///////////////////////////////////////////////////////////////////////////////
//
// IAR C/C++ Compiler V9.10.1.2146 for 8051               14/Sep/2016  11:22:10
// Copyright 2004-2014 IAR Systems AB.
// Standalone license - IAR Embedded Workbench for 8051
//
//    Core               =  plain
//    Code model         =  banked
//    Data model         =  large
//    Calling convention =  xdata reentrant
//    Constant location  =  data_rom
//    Dptr setup         =  1,16
//                          
//    Source file        =  
//        C:\Texas Instruments\Z-Stack Mesh v1.0.0\Components\mt\MT_AF.c
//    Command line       =  
//        -f "C:\Texas Instruments\Z-Stack Mesh
//        v1.0.0\Projects\zstack\Samples\GenericApp\CC2530DB\..\..\..\Tools\CC2530DB\f8wCoord.cfg"
//        (-DCPU32MHZ -DROOT=__near_func -DMAC_CFG_APP_PENDING_QUEUE=TRUE
//        -DMAC_CFG_TX_DATA_MAX=5 -DMAC_CFG_TX_MAX=8 -DMAC_CFG_RX_MAX=5
//        -DZDO_COORDINATOR -DRTR_NWK) -f "C:\Texas Instruments\Z-Stack Mesh
//        v1.0.0\Projects\zstack\Samples\GenericApp\CC2530DB\..\..\..\Tools\CC2530DB\f8wConfig.cfg"
//        (-DZIGBEEPRO -DSECURE=0 -DZG_SECURE_DYNAMIC=0 -DREFLECTOR
//        -DDEFAULT_CHANLIST=0x00000800 -DZDAPP_CONFIG_PAN_ID=0xFFFF
//        -DNWK_START_DELAY=100 -DEXTENDED_JOINING_RANDOM_MASK=0x007F
//        -DBEACON_REQUEST_DELAY=100 -DBEACON_REQ_DELAY_MASK=0x00FF
//        -DLINK_STATUS_JITTER_MASK=0x007F -DROUTE_EXPIRY_TIME=30
//        -DAPSC_ACK_WAIT_DURATION_POLLED=3000 -DNWK_INDIRECT_MSG_TIMEOUT=7
//        -DMAX_RREQ_ENTRIES=8 -DAPSC_MAX_FRAME_RETRIES=3
//        -DNWK_MAX_DATA_RETRIES=2 -DMAX_POLL_FAILURE_RETRIES=2 -DMAX_BCAST=9
//        -DAPS_MAX_GROUPS=16 -DMAX_RTG_ENTRIES=40 -DNWK_MAX_BINDING_ENTRIES=4
//        -DMAX_BINDING_CLUSTER_IDS=4 "-DDEFAULT_KEY={0x01, 0x03, 0x05, 0x07,
//        0x09, 0x0B, 0x0D, 0x0F, 0x00, 0x02, 0x04, 0x06, 0x08, 0x0A, 0x0C,
//        0x0D}" -DMAC_MAX_FRAME_SIZE=116 -DZDNWKMGR_MIN_TRANSMISSIONS=20
//        "-DCONST=const __code" -DGENERIC=__generic -DRFD_RCVC_ALWAYS_ON=FALSE
//        -DPOLL_RATE=1000 -DQUEUED_POLL_RATE=100 -DRESPONSE_POLL_RATE=100
//        -DREJOIN_POLL_RATE=440) "C:\Texas Instruments\Z-Stack Mesh
//        v1.0.0\Components\mt\MT_AF.c" -D ZTOOL_P1 -D MT_TASK -D MT_SYS_FUNC
//        -D MT_ZDO_FUNC -D LCD_SUPPORTED=DEBUG -lC "C:\Texas
//        Instruments\Z-Stack Mesh
//        v1.0.0\Projects\zstack\Samples\GenericApp\CC2530DB\CoordinatorEB\List\"
//        -lA "C:\Texas Instruments\Z-Stack Mesh
//        v1.0.0\Projects\zstack\Samples\GenericApp\CC2530DB\CoordinatorEB\List\"
//        --diag_suppress Pe001,Pa010 -o "C:\Texas Instruments\Z-Stack Mesh
//        v1.0.0\Projects\zstack\Samples\GenericApp\CC2530DB\CoordinatorEB\Obj\"
//        -e --no_code_motion --debug --core=plain --dptr=16,1
//        --data_model=large --code_model=banked
//        --calling_convention=xdata_reentrant --place_constants=data_rom
//        --nr_virtual_regs 16 -I "C:\Texas Instruments\Z-Stack Mesh
//        v1.0.0\Projects\zstack\Samples\GenericApp\CC2530DB\" -I "C:\Texas
//        Instruments\Z-Stack Mesh
//        v1.0.0\Projects\zstack\Samples\GenericApp\CC2530DB\..\Source\" -I
//        "C:\Texas Instruments\Z-Stack Mesh
//        v1.0.0\Projects\zstack\Samples\GenericApp\CC2530DB\..\..\..\ZMain\TI2530DB\"
//        -I "C:\Texas Instruments\Z-Stack Mesh
//        v1.0.0\Projects\zstack\Samples\GenericApp\CC2530DB\..\..\..\..\..\Components\hal\include\"
//        -I "C:\Texas Instruments\Z-Stack Mesh
//        v1.0.0\Projects\zstack\Samples\GenericApp\CC2530DB\..\..\..\..\..\Components\hal\target\CC2530EB\"
//        -I "C:\Texas Instruments\Z-Stack Mesh
//        v1.0.0\Projects\zstack\Samples\GenericApp\CC2530DB\..\..\..\..\..\Components\mac\include\"
//        -I "C:\Texas Instruments\Z-Stack Mesh
//        v1.0.0\Projects\zstack\Samples\GenericApp\CC2530DB\..\..\..\..\..\Components\mac\high_level\"
//        -I "C:\Texas Instruments\Z-Stack Mesh
//        v1.0.0\Projects\zstack\Samples\GenericApp\CC2530DB\..\..\..\..\..\Components\mac\low_level\srf04\"
//        -I "C:\Texas Instruments\Z-Stack Mesh
//        v1.0.0\Projects\zstack\Samples\GenericApp\CC2530DB\..\..\..\..\..\Components\mac\low_level\srf04\single_chip\"
//        -I "C:\Texas Instruments\Z-Stack Mesh
//        v1.0.0\Projects\zstack\Samples\GenericApp\CC2530DB\..\..\..\..\..\Components\mt\"
//        -I "C:\Texas Instruments\Z-Stack Mesh
//        v1.0.0\Projects\zstack\Samples\GenericApp\CC2530DB\..\..\..\..\..\Components\osal\include\"
//        -I "C:\Texas Instruments\Z-Stack Mesh
//        v1.0.0\Projects\zstack\Samples\GenericApp\CC2530DB\..\..\..\..\..\Components\services\saddr\"
//        -I "C:\Texas Instruments\Z-Stack Mesh
//        v1.0.0\Projects\zstack\Samples\GenericApp\CC2530DB\..\..\..\..\..\Components\services\sdata\"
//        -I "C:\Texas Instruments\Z-Stack Mesh
//        v1.0.0\Projects\zstack\Samples\GenericApp\CC2530DB\..\..\..\..\..\Components\stack\af\"
//        -I "C:\Texas Instruments\Z-Stack Mesh
//        v1.0.0\Projects\zstack\Samples\GenericApp\CC2530DB\..\..\..\..\..\Components\stack\nwk\"
//        -I "C:\Texas Instruments\Z-Stack Mesh
//        v1.0.0\Projects\zstack\Samples\GenericApp\CC2530DB\..\..\..\..\..\Components\stack\sapi\"
//        -I "C:\Texas Instruments\Z-Stack Mesh
//        v1.0.0\Projects\zstack\Samples\GenericApp\CC2530DB\..\..\..\..\..\Components\stack\sec\"
//        -I "C:\Texas Instruments\Z-Stack Mesh
//        v1.0.0\Projects\zstack\Samples\GenericApp\CC2530DB\..\..\..\..\..\Components\stack\sys\"
//        -I "C:\Texas Instruments\Z-Stack Mesh
//        v1.0.0\Projects\zstack\Samples\GenericApp\CC2530DB\..\..\..\..\..\Components\stack\zdo\"
//        -I "C:\Texas Instruments\Z-Stack Mesh
//        v1.0.0\Projects\zstack\Samples\GenericApp\CC2530DB\..\..\..\..\..\Components\zmac\"
//        -I "C:\Texas Instruments\Z-Stack Mesh
//        v1.0.0\Projects\zstack\Samples\GenericApp\CC2530DB\..\..\..\..\..\Components\zmac\f8w\"
//        -Ohz --require_prototypes
//    List file          =  
//        C:\Texas Instruments\Z-Stack Mesh
//        v1.0.0\Projects\zstack\Samples\GenericApp\CC2530DB\CoordinatorEB\List\MT_AF.s51
//
///////////////////////////////////////////////////////////////////////////////

        NAME MT_AF

        RTMODEL "__SystemLibrary", "CLib"
        RTMODEL "__calling_convention", "xdata_reentrant"
        RTMODEL "__code_model", "banked"
        RTMODEL "__core", "plain"
        RTMODEL "__data_model", "large"
        RTMODEL "__dptr_size", "16"
        RTMODEL "__extended_stack", "disabled"
        RTMODEL "__location_for_constants", "data"
        RTMODEL "__number_of_dptrs", "1"
        RTMODEL "__rt_version", "1"

        RSEG DOVERLAY:DATA:NOROOT(0)
        RSEG IOVERLAY:IDATA:NOROOT(0)
        RSEG ISTACK:IDATA:NOROOT(0)
        RSEG PSTACK:XDATA:NOROOT(0)
        RSEG XSTACK:XDATA:NOROOT(0)

        EXTERN ?V0
        EXTERN ?V1
        EXTERN ?V2
        EXTERN ?V4
        EXTERN ?V5
        EXTERN ?V3
        EXTERN ?V6
        EXTERN ?V7
        EXTERN ?V8
        EXTERN ?V9
        EXTERN ?V10
        EXTERN ?V12
        EXTERN ?V13
        EXTERN ?V11
        EXTERN ?V14
        EXTERN ?ALLOC_XSTACK8
        EXTERN ?BANKED_ENTER_XDATA
        EXTERN ?BANKED_LEAVE_XDATA
        EXTERN ?BDISPATCH
        EXTERN ?BRET
        EXTERN ?DEALLOC_XSTACK8
        EXTERN ?L_ADD
        EXTERN ?L_EQ_X
        EXTERN ?L_MOV_X
        EXTERN ?L_SHL
        EXTERN ?MOVE_LONG8_XDATA_XDATA
        EXTERN ?PUSH_XSTACK8_X_FOUR
        EXTERN ?PUSH_XSTACK8_X_TWO
        EXTERN ?PUSH_XSTACK_I_ONE
        EXTERN ?PUSH_XSTACK_I_THREE
        EXTERN ?PUSH_XSTACK_I_TWO
        EXTERN ?UL_SHR
        EXTERN ?XLOAD_R0123
        EXTERN ?XSP
        EXTERN ?XSTACK_DISP0_8
        EXTERN ?XSTACK_DISP100_8
        EXTERN ?XSTACK_DISP101_8
        EXTERN ?XSTACK_DISP102_8
        EXTERN ?XSTORE_R0123
        EXTERN __INIT_XDATA_Z

        PUBLIC ??MT_AfCommandProcessing?relay
        FUNCTION ??MT_AfCommandProcessing?relay,0203H
        PUBLIC ??MT_AfDataConfirm?relay
        FUNCTION ??MT_AfDataConfirm?relay,0203H
        PUBLIC ??MT_AfDataRequest?relay
        FUNCTION ??MT_AfDataRequest?relay,0203H
        PUBLIC ??MT_AfDataRequestSrcRtg?relay
        FUNCTION ??MT_AfDataRequestSrcRtg?relay,0203H
        FUNCTION ??MT_AfDataRetrieve?relay,0203H
        FUNCTION ??MT_AfDataStore?relay,0203H
        PUBLIC ??MT_AfDelete?relay
        FUNCTION ??MT_AfDelete?relay,0203H
        PUBLIC ??MT_AfExec?relay
        FUNCTION ??MT_AfExec?relay,0203H
        PUBLIC ??MT_AfIncomingMsg?relay
        FUNCTION ??MT_AfIncomingMsg?relay,0203H
        PUBLIC ??MT_AfReflectError?relay
        FUNCTION ??MT_AfReflectError?relay,0203H
        PUBLIC ??MT_AfRegister?relay
        FUNCTION ??MT_AfRegister?relay,0203H
        PUBLIC MT_AfCommandProcessing
        FUNCTION MT_AfCommandProcessing,021203H
        ARGFRAME XSTACK, 0, STACK
        LOCFRAME ISTACK, 1, STACK
        LOCFRAME XSTACK, 14, STACK
        PUBLIC MT_AfDataConfirm
        FUNCTION MT_AfDataConfirm,021203H
        ARGFRAME XSTACK, 0, STACK
        LOCFRAME ISTACK, 3, STACK
        LOCFRAME XSTACK, 3, STACK
        PUBLIC MT_AfDataRequest
        FUNCTION MT_AfDataRequest,0a1203H
        ARGFRAME XSTACK, 14, STACK
        ARGFRAME IOVERLAY, 0, STATIC
        ARGFRAME DOVERLAY, 0, STATIC
        LOCFRAME ISTACK, 1, STACK
        LOCFRAME XSTACK, 45, STACK
        PUBLIC MT_AfDataRequestSrcRtg
        FUNCTION MT_AfDataRequestSrcRtg,0a1203H
        ARGFRAME XSTACK, 14, STACK
        ARGFRAME IOVERLAY, 0, STATIC
        ARGFRAME DOVERLAY, 0, STATIC
        LOCFRAME ISTACK, 1, STACK
        LOCFRAME XSTACK, 46, STACK
        FUNCTION MT_AfDataRetrieve,0a1203H
        ARGFRAME XSTACK, 14, STACK
        ARGFRAME IOVERLAY, 0, STATIC
        ARGFRAME DOVERLAY, 0, STATIC
        LOCFRAME ISTACK, 1, STACK
        LOCFRAME XSTACK, 24, STACK
        FUNCTION MT_AfDataStore,0a1203H
        ARGFRAME XSTACK, 14, STACK
        ARGFRAME IOVERLAY, 0, STATIC
        ARGFRAME DOVERLAY, 0, STATIC
        LOCFRAME ISTACK, 1, STACK
        LOCFRAME XSTACK, 21, STACK
        PUBLIC MT_AfDelete
        FUNCTION MT_AfDelete,021203H
        ARGFRAME XSTACK, 14, STACK
        ARGFRAME IOVERLAY, 0, STATIC
        ARGFRAME DOVERLAY, 0, STATIC
        LOCFRAME ISTACK, 1, STACK
        LOCFRAME XSTACK, 10, STACK
        PUBLIC MT_AfExec
        FUNCTION MT_AfExec,021203H
        ARGFRAME XSTACK, 0, STACK
        LOCFRAME XSTACK, 13, STACK
        PUBLIC MT_AfIncomingMsg
        FUNCTION MT_AfIncomingMsg,0a1203H
        ARGFRAME XSTACK, 0, STACK
        LOCFRAME ISTACK, 1, STACK
        LOCFRAME XSTACK, 27, STACK
        PUBLIC MT_AfReflectError
        FUNCTION MT_AfReflectError,021203H
        ARGFRAME XSTACK, 0, STACK
        LOCFRAME ISTACK, 3, STACK
        LOCFRAME XSTACK, 6, STACK
        PUBLIC MT_AfRegister
        FUNCTION MT_AfRegister,0a1203H
        ARGFRAME XSTACK, 14, STACK
        ARGFRAME IOVERLAY, 0, STATIC
        ARGFRAME DOVERLAY, 0, STATIC
        LOCFRAME ISTACK, 1, STACK
        LOCFRAME XSTACK, 15, STACK
        PUBWEAK __Constant_3e8
        PUBLIC pMtAfDataReq
        PUBLIC pMtAfInMsgList
        
          CFI Names cfiNames0
          CFI StackFrame CFA_SP SP IDATA
          CFI StackFrame CFA_PSP16 PSP16 XDATA
          CFI StackFrame CFA_XSP16 XSP16 XDATA
          CFI StaticOverlayFrame CFA_IOVERLAY IOVERLAY
          CFI StaticOverlayFrame CFA_DOVERLAY DOVERLAY
          CFI Resource `PSW.CY`:1, `B.BR0`:1, `B.BR1`:1, `B.BR2`:1, `B.BR3`:1
          CFI Resource `B.BR4`:1, `B.BR5`:1, `B.BR6`:1, `B.BR7`:1, `VB.BR8`:1
          CFI Resource `VB.BR9`:1, `VB.BR10`:1, `VB.BR11`:1, `VB.BR12`:1
          CFI Resource `VB.BR13`:1, `VB.BR14`:1, `VB.BR15`:1, VB:8, B:8, A:8
          CFI Resource PSW:8, DPL0:8, DPH0:8, R0:8, R1:8, R2:8, R3:8, R4:8, R5:8
          CFI Resource R6:8, R7:8, V0:8, V1:8, V2:8, V3:8, V4:8, V5:8, V6:8, V7:8
          CFI Resource V8:8, V9:8, V10:8, V11:8, V12:8, V13:8, V14:8, V15:8, SP:8
          CFI Resource PSPH:8, PSPL:8, PSP16:16, XSPH:8, XSPL:8, XSP16:16
          CFI VirtualResource ?RET:24
          CFI Resource ?BRET_EXT:8
          CFI VirtualResource ?RET_HIGH:8, ?RET_LOW:8
          CFI ResourceParts PSP16 PSPH, PSPL
          CFI ResourceParts XSP16 XSPH, XSPL
          CFI ResourceParts ?RET ?BRET_EXT, ?RET_HIGH, ?RET_LOW
          CFI EndNames cfiNames0
        
          CFI Common cfiCommon0 Using cfiNames0
          CFI CodeAlign 1
          CFI DataAlign -1
          CFI ReturnAddress ?RET CODE
          CFI CFA_DOVERLAY Used
          CFI CFA_IOVERLAY Used
          CFI CFA_SP SP+-3
          CFI CFA_PSP16 PSP16+0
          CFI CFA_XSP16 XSP16+0
          CFI `PSW.CY` SameValue
          CFI `B.BR0` SameValue
          CFI `B.BR1` SameValue
          CFI `B.BR2` SameValue
          CFI `B.BR3` SameValue
          CFI `B.BR4` SameValue
          CFI `B.BR5` SameValue
          CFI `B.BR6` SameValue
          CFI `B.BR7` SameValue
          CFI `VB.BR8` SameValue
          CFI `VB.BR9` SameValue
          CFI `VB.BR10` SameValue
          CFI `VB.BR11` SameValue
          CFI `VB.BR12` SameValue
          CFI `VB.BR13` SameValue
          CFI `VB.BR14` SameValue
          CFI `VB.BR15` SameValue
          CFI VB SameValue
          CFI B Undefined
          CFI A Undefined
          CFI PSW SameValue
          CFI DPL0 SameValue
          CFI DPH0 SameValue
          CFI R0 Undefined
          CFI R1 Undefined
          CFI R2 Undefined
          CFI R3 Undefined
          CFI R4 Undefined
          CFI R5 Undefined
          CFI R6 SameValue
          CFI R7 SameValue
          CFI V0 SameValue
          CFI V1 SameValue
          CFI V2 SameValue
          CFI V3 SameValue
          CFI V4 SameValue
          CFI V5 SameValue
          CFI V6 SameValue
          CFI V7 SameValue
          CFI V8 SameValue
          CFI V9 SameValue
          CFI V10 SameValue
          CFI V11 SameValue
          CFI V12 SameValue
          CFI V13 SameValue
          CFI V14 SameValue
          CFI V15 SameValue
          CFI PSPH Undefined
          CFI PSPL Undefined
          CFI XSPH Undefined
          CFI XSPL Undefined
          CFI ?RET Concat
          CFI ?BRET_EXT Frame(CFA_SP, 3)
          CFI ?RET_HIGH Frame(CFA_SP, 2)
          CFI ?RET_LOW Frame(CFA_SP, 1)
          CFI EndCommon cfiCommon0
        
        
          CFI Common cfiCommon1 Using cfiNames0
          CFI CodeAlign 1
          CFI DataAlign -1
          CFI ReturnAddress ?RET CODE
          CFI CFA_DOVERLAY Used
          CFI CFA_IOVERLAY Used
          CFI CFA_SP SP+-2
          CFI CFA_PSP16 PSP16+0
          CFI CFA_XSP16 XSP16+0
          CFI `PSW.CY` SameValue
          CFI `B.BR0` SameValue
          CFI `B.BR1` SameValue
          CFI `B.BR2` SameValue
          CFI `B.BR3` SameValue
          CFI `B.BR4` SameValue
          CFI `B.BR5` SameValue
          CFI `B.BR6` SameValue
          CFI `B.BR7` SameValue
          CFI `VB.BR8` SameValue
          CFI `VB.BR9` SameValue
          CFI `VB.BR10` SameValue
          CFI `VB.BR11` SameValue
          CFI `VB.BR12` SameValue
          CFI `VB.BR13` SameValue
          CFI `VB.BR14` SameValue
          CFI `VB.BR15` SameValue
          CFI VB SameValue
          CFI B SameValue
          CFI A SameValue
          CFI PSW SameValue
          CFI DPL0 SameValue
          CFI DPH0 SameValue
          CFI R0 SameValue
          CFI R1 SameValue
          CFI R2 SameValue
          CFI R3 SameValue
          CFI R4 SameValue
          CFI R5 SameValue
          CFI R6 SameValue
          CFI R7 SameValue
          CFI V0 SameValue
          CFI V1 SameValue
          CFI V2 SameValue
          CFI V3 SameValue
          CFI V4 SameValue
          CFI V5 SameValue
          CFI V6 SameValue
          CFI V7 SameValue
          CFI V8 SameValue
          CFI V9 SameValue
          CFI V10 SameValue
          CFI V11 SameValue
          CFI V12 SameValue
          CFI V13 SameValue
          CFI V14 SameValue
          CFI V15 SameValue
          CFI PSPH Undefined
          CFI PSPL Undefined
          CFI XSPH Undefined
          CFI XSPL Undefined
          CFI ?RET Concat
          CFI ?BRET_EXT SameValue
          CFI ?RET_HIGH Frame(CFA_SP, 2)
          CFI ?RET_LOW Frame(CFA_SP, 1)
          CFI EndCommon cfiCommon1
        
AF_DataRequest      SYMBOL "AF_DataRequest"
??AF_DataRequest?relay SYMBOL "?relay", AF_DataRequest
AF_DataRequestSrcRtg SYMBOL "AF_DataRequestSrcRtg"
??AF_DataRequestSrcRtg?relay SYMBOL "?relay", AF_DataRequestSrcRtg
MT_BuildAndSendZToolResponse SYMBOL "MT_BuildAndSendZToolResponse"
??MT_BuildAndSendZToolResponse?relay SYMBOL "?relay", MT_BuildAndSendZToolResponse
MT_BuildEndpointDesc SYMBOL "MT_BuildEndpointDesc"
??MT_BuildEndpointDesc?relay SYMBOL "?relay", MT_BuildEndpointDesc
afAPSF_ConfigGet    SYMBOL "afAPSF_ConfigGet"
??afAPSF_ConfigGet?relay SYMBOL "?relay", afAPSF_ConfigGet
afAPSF_ConfigSet    SYMBOL "afAPSF_ConfigSet"
??afAPSF_ConfigSet?relay SYMBOL "?relay", afAPSF_ConfigSet
afDelete            SYMBOL "afDelete"
??afDelete?relay    SYMBOL "?relay", afDelete
afFindEndPointDesc  SYMBOL "afFindEndPointDesc"
??afFindEndPointDesc?relay SYMBOL "?relay", afFindEndPointDesc
afRegister          SYMBOL "afRegister"
??afRegister?relay  SYMBOL "?relay", afRegister
osal_mem_alloc      SYMBOL "osal_mem_alloc"
??osal_mem_alloc?relay SYMBOL "?relay", osal_mem_alloc
osal_mem_free       SYMBOL "osal_mem_free"
??osal_mem_free?relay SYMBOL "?relay", osal_mem_free
osal_memcpy         SYMBOL "osal_memcpy"
??osal_memcpy?relay SYMBOL "?relay", osal_memcpy
osal_memset         SYMBOL "osal_memset"
??osal_memset?relay SYMBOL "?relay", osal_memset
osal_set_event      SYMBOL "osal_set_event"
??osal_set_event?relay SYMBOL "?relay", osal_set_event
osal_start_timerEx  SYMBOL "osal_start_timerEx"
??osal_start_timerEx?relay SYMBOL "?relay", osal_start_timerEx
MT_AfCommandProcessing SYMBOL "MT_AfCommandProcessing"
??MT_AfCommandProcessing?relay SYMBOL "?relay", MT_AfCommandProcessing
MT_AfDataConfirm    SYMBOL "MT_AfDataConfirm"
??MT_AfDataConfirm?relay SYMBOL "?relay", MT_AfDataConfirm
MT_AfDataRequest    SYMBOL "MT_AfDataRequest"
??MT_AfDataRequest?relay SYMBOL "?relay", MT_AfDataRequest
MT_AfDataRequestSrcRtg SYMBOL "MT_AfDataRequestSrcRtg"
??MT_AfDataRequestSrcRtg?relay SYMBOL "?relay", MT_AfDataRequestSrcRtg
MT_AfDelete         SYMBOL "MT_AfDelete"
??MT_AfDelete?relay SYMBOL "?relay", MT_AfDelete
MT_AfExec           SYMBOL "MT_AfExec"
??MT_AfExec?relay   SYMBOL "?relay", MT_AfExec
MT_AfIncomingMsg    SYMBOL "MT_AfIncomingMsg"
??MT_AfIncomingMsg?relay SYMBOL "?relay", MT_AfIncomingMsg
MT_AfReflectError   SYMBOL "MT_AfReflectError"
??MT_AfReflectError?relay SYMBOL "?relay", MT_AfReflectError
MT_AfRegister       SYMBOL "MT_AfRegister"
??MT_AfRegister?relay SYMBOL "?relay", MT_AfRegister

        EXTERN ??AF_DataRequest?relay
        FUNCTION ??AF_DataRequest?relay,00H
        EXTERN ??AF_DataRequestSrcRtg?relay
        FUNCTION ??AF_DataRequestSrcRtg?relay,00H
        EXTERN ??MT_BuildAndSendZToolResponse?relay
        FUNCTION ??MT_BuildAndSendZToolResponse?relay,00H
        EXTERN ??MT_BuildEndpointDesc?relay
        FUNCTION ??MT_BuildEndpointDesc?relay,00H
        EXTERN ??afAPSF_ConfigGet?relay
        FUNCTION ??afAPSF_ConfigGet?relay,00H
        EXTERN ??afAPSF_ConfigSet?relay
        FUNCTION ??afAPSF_ConfigSet?relay,00H
        EXTERN ??afDelete?relay
        FUNCTION ??afDelete?relay,00H
        EXTERN ??afFindEndPointDesc?relay
        FUNCTION ??afFindEndPointDesc?relay,00H
        EXTERN ??afRegister?relay
        FUNCTION ??afRegister?relay,00H
        EXTERN ??osal_mem_alloc?relay
        FUNCTION ??osal_mem_alloc?relay,00H
        EXTERN ??osal_mem_free?relay
        FUNCTION ??osal_mem_free?relay,00H
        EXTERN ??osal_memcpy?relay
        FUNCTION ??osal_memcpy?relay,00H
        EXTERN ??osal_memset?relay
        FUNCTION ??osal_memset?relay,00H
        EXTERN ??osal_set_event?relay
        FUNCTION ??osal_set_event?relay,00H
        EXTERN ??osal_start_timerEx?relay
        FUNCTION ??osal_start_timerEx?relay,00H
        EXTERN AF_DataRequest
        FUNCTION AF_DataRequest,0202H
        ARGFRAME ISTACK, 0, STACK
        ARGFRAME PSTACK, 0, STACK
        ARGFRAME XSTACK, 45, STACK
        ARGFRAME IOVERLAY, 0, STATIC
        ARGFRAME DOVERLAY, 0, STATIC
        EXTERN AF_DataRequestSrcRtg
        FUNCTION AF_DataRequestSrcRtg,0202H
        ARGFRAME ISTACK, 0, STACK
        ARGFRAME PSTACK, 0, STACK
        ARGFRAME XSTACK, 46, STACK
        ARGFRAME IOVERLAY, 0, STATIC
        ARGFRAME DOVERLAY, 0, STATIC
        EXTERN MT_BuildAndSendZToolResponse
        FUNCTION MT_BuildAndSendZToolResponse,0202H
        ARGFRAME ISTACK, 2, STACK
        ARGFRAME PSTACK, 0, STACK
        ARGFRAME XSTACK, 36, STACK
        ARGFRAME IOVERLAY, 0, STATIC
        ARGFRAME DOVERLAY, 0, STATIC
        EXTERN MT_BuildEndpointDesc
        FUNCTION MT_BuildEndpointDesc,0202H
        ARGFRAME ISTACK, 0, STACK
        ARGFRAME PSTACK, 0, STACK
        ARGFRAME XSTACK, 15, STACK
        ARGFRAME IOVERLAY, 0, STATIC
        ARGFRAME DOVERLAY, 0, STATIC
        EXTERN MT_TaskID
        EXTERN afAPSF_ConfigGet
        FUNCTION afAPSF_ConfigGet,0202H
        ARGFRAME ISTACK, 0, STACK
        ARGFRAME PSTACK, 0, STACK
        ARGFRAME XSTACK, 14, STACK
        ARGFRAME IOVERLAY, 0, STATIC
        ARGFRAME DOVERLAY, 0, STATIC
        EXTERN afAPSF_ConfigSet
        FUNCTION afAPSF_ConfigSet,0202H
        ARGFRAME ISTACK, 0, STACK
        ARGFRAME PSTACK, 0, STACK
        ARGFRAME XSTACK, 14, STACK
        ARGFRAME IOVERLAY, 0, STATIC
        ARGFRAME DOVERLAY, 0, STATIC
        EXTERN afDelete
        FUNCTION afDelete,0202H
        ARGFRAME ISTACK, 0, STACK
        ARGFRAME PSTACK, 0, STACK
        ARGFRAME XSTACK, 10, STACK
        ARGFRAME IOVERLAY, 0, STATIC
        ARGFRAME DOVERLAY, 0, STATIC
        EXTERN afFindEndPointDesc
        FUNCTION afFindEndPointDesc,0202H
        ARGFRAME ISTACK, 0, STACK
        ARGFRAME PSTACK, 0, STACK
        ARGFRAME XSTACK, 36, STACK
        ARGFRAME IOVERLAY, 0, STATIC
        ARGFRAME DOVERLAY, 0, STATIC
        EXTERN afRegister
        FUNCTION afRegister,0202H
        ARGFRAME ISTACK, 0, STACK
        ARGFRAME PSTACK, 0, STACK
        ARGFRAME XSTACK, 15, STACK
        ARGFRAME IOVERLAY, 0, STATIC
        ARGFRAME DOVERLAY, 0, STATIC
        EXTERN osal_mem_alloc
        FUNCTION osal_mem_alloc,0202H
        ARGFRAME ISTACK, 0, STACK
        ARGFRAME PSTACK, 0, STACK
        ARGFRAME XSTACK, 36, STACK
        ARGFRAME IOVERLAY, 0, STATIC
        ARGFRAME DOVERLAY, 0, STATIC
        EXTERN osal_mem_free
        FUNCTION osal_mem_free,0202H
        ARGFRAME ISTACK, 0, STACK
        ARGFRAME PSTACK, 0, STACK
        ARGFRAME XSTACK, 34, STACK
        ARGFRAME IOVERLAY, 0, STATIC
        ARGFRAME DOVERLAY, 0, STATIC
        EXTERN osal_memcpy
        FUNCTION osal_memcpy,0202H
        ARGFRAME ISTACK, 0, STACK
        ARGFRAME PSTACK, 0, STACK
        ARGFRAME XSTACK, 39, STACK
        ARGFRAME IOVERLAY, 0, STATIC
        ARGFRAME DOVERLAY, 0, STATIC
        EXTERN osal_memset
        FUNCTION osal_memset,0202H
        ARGFRAME ISTACK, 0, STACK
        ARGFRAME PSTACK, 0, STACK
        ARGFRAME XSTACK, 34, STACK
        ARGFRAME IOVERLAY, 0, STATIC
        ARGFRAME DOVERLAY, 0, STATIC
        EXTERN osal_set_event
        FUNCTION osal_set_event,0202H
        ARGFRAME ISTACK, 0, STACK
        ARGFRAME PSTACK, 0, STACK
        ARGFRAME XSTACK, 36, STACK
        ARGFRAME IOVERLAY, 0, STATIC
        ARGFRAME DOVERLAY, 0, STATIC
        EXTERN osal_start_timerEx
        FUNCTION osal_start_timerEx,0202H
        ARGFRAME ISTACK, 0, STACK
        ARGFRAME PSTACK, 0, STACK
        ARGFRAME XSTACK, 40, STACK
        ARGFRAME IOVERLAY, 0, STATIC
        ARGFRAME DOVERLAY, 0, STATIC

// C:\Texas Instruments\Z-Stack Mesh v1.0.0\Components\mt\MT_AF.c
//    1 /**************************************************************************************************
//    2   Filename:       MT_AF.c
//    3   Revised:        $Date: 2014-08-21 13:23:51 -0700 (Thu, 21 Aug 2014) $
//    4   Revision:       $Revision: 39843 $
//    5 
//    6 
//    7   Description:    MonitorTest functions for the AF layer.
//    8 
//    9 
//   10   Copyright 2007-2014 Texas Instruments Incorporated. All rights reserved.
//   11 
//   12   IMPORTANT: Your use of this Software is limited to those specific rights
//   13   granted under the terms of a software license agreement between the user
//   14   who downloaded the software, his/her employer (which must be your employer)
//   15   and Texas Instruments Incorporated (the "License").  You may not use this
//   16   Software unless you agree to abide by the terms of the License. The License
//   17   limits your use, and you acknowledge, that the Software may not be modified,
//   18   copied or distributed unless embedded on a Texas Instruments microcontroller
//   19   or used solely and exclusively in conjunction with a Texas Instruments radio
//   20   frequency transceiver, which is integrated into your product.  Other than for
//   21   the foregoing purpose, you may not use, reproduce, copy, prepare derivative
//   22   works of, modify, distribute, perform, display or sell this Software and/or
//   23   its documentation for any purpose.
//   24 
//   25   YOU FURTHER ACKNOWLEDGE AND AGREE THAT THE SOFTWARE AND DOCUMENTATION ARE
//   26   PROVIDED “AS IS” WITHOUT WARRANTY OF ANY KIND, EITHER EXPRESS OR IMPLIED,
//   27   INCLUDING WITHOUT LIMITATION, ANY WARRANTY OF MERCHANTABILITY, TITLE,
//   28   NON-INFRINGEMENT AND FITNESS FOR A PARTICULAR PURPOSE. IN NO EVENT SHALL
//   29   TEXAS INSTRUMENTS OR ITS LICENSORS BE LIABLE OR OBLIGATED UNDER CONTRACT,
//   30   NEGLIGENCE, STRICT LIABILITY, CONTRIBUTION, BREACH OF WARRANTY, OR OTHER
//   31   LEGAL EQUITABLE THEORY ANY DIRECT OR INDIRECT DAMAGES OR EXPENSES
//   32   INCLUDING BUT NOT LIMITED TO ANY INCIDENTAL, SPECIAL, INDIRECT, PUNITIVE
//   33   OR CONSEQUENTIAL DAMAGES, LOST PROFITS OR LOST DATA, COST OF PROCUREMENT
//   34   OF SUBSTITUTE GOODS, TECHNOLOGY, SERVICES, OR ANY CLAIMS BY THIRD PARTIES
//   35   (INCLUDING BUT NOT LIMITED TO ANY DEFENSE THEREOF), OR OTHER SIMILAR COSTS.
//   36 
//   37   Should you have any questions regarding your right to use this Software,
//   38   contact Texas Instruments Incorporated at www.TI.com.
//   39 
//   40 **************************************************************************************************/
//   41 
//   42 /* ------------------------------------------------------------------------------------------------
//   43  *                                          Includes
//   44  * ------------------------------------------------------------------------------------------------
//   45  */
//   46 #include "ZComDef.h"
//   47 #include "OSAL.h"
//   48 #include "MT.h"
//   49 #include "MT_AF.h"
//   50 #include "MT_ZDO.h"
//   51 #include "nwk.h"
//   52 #include "OnBoard.h"
//   53 #include "MT_UART.h"
//   54 
//   55 #if defined INTER_PAN
//   56 #include "stub_aps.h"
//   57 #endif
//   58 
//   59 #if defined ( MT_GP_FUNC )
//   60 #include "MT_GP.h"
//   61 #endif
//   62 
//   63 /* ------------------------------------------------------------------------------------------------
//   64  *                                          Constants
//   65  * ------------------------------------------------------------------------------------------------
//   66  */
//   67 
//   68 #if !defined MT_AF_EXEC_CNT
//   69 #define MT_AF_EXEC_CNT  15
//   70 #endif
//   71 
//   72 #if !defined MT_AF_EXEC_DLY
//   73 #define MT_AF_EXEC_DLY  1000
//   74 #endif
//   75 
//   76 /* ------------------------------------------------------------------------------------------------
//   77  *                                           Typedefs
//   78  * ------------------------------------------------------------------------------------------------
//   79  */
//   80 
//   81 typedef struct
//   82 {
//   83   uint8 *data;
//   84   afAddrType_t dstAddr;
//   85   endPointDesc_t *epDesc;
//   86   uint16 cId;
//   87   uint16 dataLen;
//   88   uint8 transId;
//   89   uint8 txOpts;
//   90   uint8 radius;
//   91   uint8 tick;
//   92 } mtAfDataReq_t;
//   93 
//   94 typedef struct _mtAfInMsgList_t
//   95 {
//   96   struct _mtAfInMsgList_t *next;
//   97   uint8 *data;
//   98   uint32 timestamp;         // Receipt timestamp from MAC.
//   99   uint8 tick;
//  100 } mtAfInMsgList_t;
//  101 
//  102 /* ------------------------------------------------------------------------------------------------
//  103  *                                        Local Variables
//  104  * ------------------------------------------------------------------------------------------------
//  105  */
//  106 

        RSEG XDATA_Z:XDATA:NOROOT(0)
        DATA16
//  107 mtAfInMsgList_t *pMtAfInMsgList = NULL;
pMtAfInMsgList:
        DS 2
        REQUIRE __INIT_XDATA_Z

        RSEG XDATA_Z:XDATA:NOROOT(0)
        DATA16
//  108 mtAfDataReq_t *pMtAfDataReq = NULL;
pMtAfDataReq:
        DS 2
        REQUIRE __INIT_XDATA_Z
//  109 
//  110 /* ------------------------------------------------------------------------------------------------
//  111  *                                        Global Variables
//  112  * ------------------------------------------------------------------------------------------------
//  113  */
//  114 
//  115 #if defined ( MT_AF_CB_FUNC )
//  116 uint16 _afCallbackSub;
//  117 #endif
//  118 
//  119 /* ------------------------------------------------------------------------------------------------
//  120  *                                        Local Functions
//  121  * ------------------------------------------------------------------------------------------------
//  122  */
//  123 
//  124 void MT_AfRegister(uint8 *pBuf);
//  125 void MT_AfDelete(uint8 *pBuf);
//  126 void MT_AfDataRequest(uint8 *pBuf);
//  127 
//  128 #if defined ( ZIGBEE_SOURCE_ROUTING )
//  129 void MT_AfDataRequestSrcRtg(uint8 *pBuf);
//  130 #endif
//  131 
//  132 #if defined INTER_PAN
//  133 static void MT_AfInterPanCtl(uint8 *pBuf);
//  134 #endif
//  135 
//  136 static void MT_AfDataRetrieve(uint8 *pBuf);
//  137 static void MT_AfDataStore(uint8 *pBuf);
//  138 static void MT_AfAPSF_ConfigSet(uint8 *pBuf);
//  139 static void MT_AfAPSF_ConfigGet(uint8 *pBuf);
//  140 
//  141 
//  142 /**************************************************************************************************
//  143  * @fn          MT_AfExec
//  144  *
//  145  * @brief       This function is invoked by an MT timer event.
//  146  *
//  147  * input parameters
//  148  *
//  149  * None.
//  150  *
//  151  * output parameters
//  152  *
//  153  * None.
//  154  *
//  155  * @return      None.
//  156  **************************************************************************************************
//  157  */

        RSEG BANKED_CODE:CODE:NOROOT(0)
//  158 void MT_AfExec(void)
MT_AfExec:
          CFI Block cfiBlock0 Using cfiCommon0
          CFI Function MT_AfExec
        CODE
//  159 {
        FUNCALL MT_AfExec, osal_mem_free
        LOCFRAME ISTACK, 0, STACK
        LOCFRAME PSTACK, 0, STACK
        LOCFRAME XSTACK, 9, STACK
        LOCFRAME IOVERLAY, 0, STATIC
        LOCFRAME DOVERLAY, 0, STATIC
        ARGFRAME ISTACK, 0, STACK
        ARGFRAME PSTACK, 0, STACK
        ARGFRAME XSTACK, 9, STACK
        ARGFRAME IOVERLAY, 0, STATIC
        ARGFRAME DOVERLAY, 0, STATIC
        FUNCALL MT_AfExec, osal_mem_free
        LOCFRAME ISTACK, 0, STACK
        LOCFRAME PSTACK, 0, STACK
        LOCFRAME XSTACK, 9, STACK
        LOCFRAME IOVERLAY, 0, STATIC
        LOCFRAME DOVERLAY, 0, STATIC
        ARGFRAME ISTACK, 0, STACK
        ARGFRAME PSTACK, 0, STACK
        ARGFRAME XSTACK, 9, STACK
        ARGFRAME IOVERLAY, 0, STATIC
        ARGFRAME DOVERLAY, 0, STATIC
        FUNCALL MT_AfExec, osal_mem_free
        LOCFRAME ISTACK, 0, STACK
        LOCFRAME PSTACK, 0, STACK
        LOCFRAME XSTACK, 9, STACK
        LOCFRAME IOVERLAY, 0, STATIC
        LOCFRAME DOVERLAY, 0, STATIC
        ARGFRAME ISTACK, 0, STACK
        ARGFRAME PSTACK, 0, STACK
        ARGFRAME XSTACK, 9, STACK
        ARGFRAME IOVERLAY, 0, STATIC
        ARGFRAME DOVERLAY, 0, STATIC
        FUNCALL MT_AfExec, osal_start_timerEx
        LOCFRAME ISTACK, 0, STACK
        LOCFRAME PSTACK, 0, STACK
        LOCFRAME XSTACK, 13, STACK
        LOCFRAME IOVERLAY, 0, STATIC
        LOCFRAME DOVERLAY, 0, STATIC
        ARGFRAME ISTACK, 0, STACK
        ARGFRAME PSTACK, 0, STACK
        ARGFRAME XSTACK, 13, STACK
        ARGFRAME IOVERLAY, 0, STATIC
        ARGFRAME DOVERLAY, 0, STATIC
        FUNCALL MT_AfExec, osal_set_event
        LOCFRAME ISTACK, 0, STACK
        LOCFRAME PSTACK, 0, STACK
        LOCFRAME XSTACK, 9, STACK
        LOCFRAME IOVERLAY, 0, STATIC
        LOCFRAME DOVERLAY, 0, STATIC
        ARGFRAME ISTACK, 0, STACK
        ARGFRAME PSTACK, 0, STACK
        ARGFRAME XSTACK, 9, STACK
        ARGFRAME IOVERLAY, 0, STATIC
        ARGFRAME DOVERLAY, 0, STATIC
        MOV     A,#-0x9
        LCALL   ?BANKED_ENTER_XDATA
          CFI R6 load(1, XDATA, add(CFA_XSP16, literal(-9)))
          CFI VB load(1, XDATA, add(CFA_XSP16, literal(-8)))
          CFI V0 load(1, XDATA, add(CFA_XSP16, literal(-7)))
          CFI R7 load(1, XDATA, add(CFA_XSP16, literal(-6)))
          CFI ?RET_LOW load(1, XDATA, add(CFA_XSP16, literal(-5)))
          CFI ?RET_HIGH load(1, XDATA, add(CFA_XSP16, literal(-4)))
          CFI ?BRET_EXT load(1, XDATA, add(CFA_XSP16, literal(-3)))
          CFI DPL0 load(1, XDATA, add(CFA_XSP16, literal(-2)))
          CFI DPH0 load(1, XDATA, add(CFA_XSP16, literal(-1)))
          CFI CFA_SP SP+0
          CFI CFA_XSP16 add(XSP16, 9)
        ; Saved register size: 9
        ; Auto size: 0
//  160   mtAfInMsgList_t *pPrev, *pItem = pMtAfInMsgList;
??MT_AfExec_0:
        MOV     DPTR,#pMtAfInMsgList
        SJMP    ??MT_AfExec_1
//  161 
//  162   while (pItem != NULL)
//  163   {
//  164     if (--(pItem->tick) == 0)
//  165     {
//  166       if (pMtAfInMsgList == pItem)
//  167       {
//  168         pMtAfInMsgList = pItem->next;
//  169         (void)osal_mem_free(pItem);
//  170         pItem = pMtAfInMsgList;
//  171       }
//  172       else
//  173       {
//  174         pPrev->next = pItem->next;
//  175         (void)osal_mem_free(pItem);
//  176         pItem = pPrev->next;
//  177       }
//  178     }
//  179     else
//  180     {
//  181       pPrev = pItem;
??MT_AfExec_2:
        MOV     A,R2
        MOV     R6,A
        MOV     A,R3
        MOV     R7,A
//  182       pItem = pItem->next;
        MOV     DPL,R2
        MOV     DPH,R3
//  183     }
??MT_AfExec_1:
        LCALL   ??Subroutine50_0 & 0xFFFF
??CrossCallReturnLabel_109:
        MOV     A,R2
        ORL     A,R3
        JZ      ??MT_AfExec_3
        MOV     A,R2
        ADD     A,#0x8
        MOV     DPL,A
        CLR     A
        ADDC    A,R3
        MOV     DPH,A
        MOVX    A,@DPTR
        DEC     A
        MOVX    @DPTR,A
        JNZ     ??MT_AfExec_2
        LCALL   ?Subroutine21 & 0xFFFF
??CrossCallReturnLabel_126:
        MOV     A,R2
        XRL     A,R0
        JNZ     ??MT_AfExec_4
        MOV     A,R3
        XRL     A,R1
??MT_AfExec_4:
        MOV     DPL,R2
        MOV     DPH,R3
        JNZ     ??MT_AfExec_5
        LCALL   ?Subroutine20 & 0xFFFF
??CrossCallReturnLabel_31:
        LCALL   ?Subroutine27 & 0xFFFF
??CrossCallReturnLabel_40:
        ; Setup parameters for call to function osal_mem_free
        LCALL   ??osal_mem_free?relay; Banked call to: osal_mem_free
        SJMP    ??MT_AfExec_0
??MT_AfExec_5:
        LCALL   ??Subroutine53_0 & 0xFFFF
??CrossCallReturnLabel_124:
        MOV     DPL,R6
        MOV     DPH,R7
        LCALL   ?Subroutine27 & 0xFFFF
??CrossCallReturnLabel_41:
        ; Setup parameters for call to function osal_mem_free
        LCALL   ??osal_mem_free?relay; Banked call to: osal_mem_free
        MOV     DPL,R6
        MOV     DPH,R7
        SJMP    ??MT_AfExec_1
//  184   }
//  185 
//  186   if (pMtAfDataReq != NULL)
??MT_AfExec_3:
        LCALL   ?Subroutine3 & 0xFFFF
??CrossCallReturnLabel_94:
        JZ      ??MT_AfExec_6
//  187   {
//  188     if (--(pMtAfDataReq->tick) == 0)
        MOVX    A,@DPTR
        XCH     A,R0
        LCALL   ?Subroutine41 & 0xFFFF
??CrossCallReturnLabel_82:
        MOVX    A,@DPTR
        DEC     A
        LCALL   ?Subroutine8 & 0xFFFF
??CrossCallReturnLabel_10:
        MOVX    A,@DPTR
        JNZ     ??MT_AfExec_6
//  189     {
//  190       (void)osal_mem_free(pMtAfDataReq);
        ; Setup parameters for call to function osal_mem_free
        LCALL   ?Subroutine17 & 0xFFFF
??CrossCallReturnLabel_111:
        LCALL   ??osal_mem_free?relay; Banked call to: osal_mem_free
//  191       pMtAfDataReq = NULL;
        MOV     DPTR,#pMtAfDataReq
        CLR     A
        MOVX    @DPTR,A
        INC     DPTR
        MOVX    @DPTR,A
//  192     }
//  193   }
//  194 
//  195   if ((pMtAfInMsgList != NULL) || (pMtAfDataReq != NULL))
??MT_AfExec_6:
        MOV     DPTR,#pMtAfInMsgList
        LCALL   ??Subroutine47_0 & 0xFFFF
??CrossCallReturnLabel_93:
        JNZ     ??MT_AfExec_7
        LCALL   ?Subroutine3 & 0xFFFF
??CrossCallReturnLabel_95:
        JZ      ??MT_AfExec_8
//  196   {
//  197     if (ZSuccess != osal_start_timerEx(MT_TaskID, MT_AF_EXEC_EVT, MT_AF_EXEC_DLY))
??MT_AfExec_7:
        ; Setup parameters for call to function osal_start_timerEx
        MOV     DPTR,#__Constant_3e8
        LCALL   ?PUSH_XSTACK8_X_FOUR
          CFI CFA_XSP16 add(XSP16, 13)
        MOV     R2,#0x8
        MOV     R3,#0x0
        MOV     DPTR,#MT_TaskID
        MOVX    A,@DPTR
        MOV     R1,A
        LCALL   ??osal_start_timerEx?relay; Banked call to: osal_start_timerEx
        MOV     A,#0x4
        LCALL   ?DEALLOC_XSTACK8
          CFI CFA_XSP16 add(XSP16, 9)
        MOV     A,R1
        JZ      ??MT_AfExec_8
//  198     {
//  199       osal_set_event(MT_TaskID, MT_AF_EXEC_EVT);
        ; Setup parameters for call to function osal_set_event
        MOV     R2,#0x8
        MOV     R3,#0x0
        MOV     DPTR,#MT_TaskID
        MOVX    A,@DPTR
        MOV     R1,A
        LCALL   ??osal_set_event?relay; Banked call to: osal_set_event
//  200     }
//  201   }
//  202 }
??MT_AfExec_8:
        LJMP    ??Subroutine45_0 & 0xFFFF
          CFI EndBlock cfiBlock0
//  203 
//  204 /***************************************************************************************************
//  205  * @fn      MT_AfCommandProcessing
//  206  *
//  207  * @brief   Process all the AF commands that are issued by test tool
//  208  *
//  209  * @param   pBuf - pointer to the received buffer
//  210  *
//  211  * @return  status
//  212  ***************************************************************************************************/

        RSEG BANKED_CODE:CODE:NOROOT(0)
//  213 uint8 MT_AfCommandProcessing(uint8 *pBuf)
MT_AfCommandProcessing:
          CFI Block cfiBlock1 Using cfiCommon0
          CFI Function MT_AfCommandProcessing
        CODE
//  214 {
        FUNCALL MT_AfCommandProcessing, MT_AfRegister
        LOCFRAME ISTACK, 0, STACK
        LOCFRAME PSTACK, 0, STACK
        LOCFRAME XSTACK, 14, STACK
        LOCFRAME IOVERLAY, 0, STATIC
        LOCFRAME DOVERLAY, 0, STATIC
        ARGFRAME ISTACK, 0, STACK
        ARGFRAME PSTACK, 0, STACK
        ARGFRAME XSTACK, 14, STACK
        ARGFRAME IOVERLAY, 0, STATIC
        ARGFRAME DOVERLAY, 0, STATIC
        FUNCALL MT_AfCommandProcessing, MT_AfDelete
        LOCFRAME ISTACK, 0, STACK
        LOCFRAME PSTACK, 0, STACK
        LOCFRAME XSTACK, 14, STACK
        LOCFRAME IOVERLAY, 0, STATIC
        LOCFRAME DOVERLAY, 0, STATIC
        ARGFRAME ISTACK, 0, STACK
        ARGFRAME PSTACK, 0, STACK
        ARGFRAME XSTACK, 14, STACK
        ARGFRAME IOVERLAY, 0, STATIC
        ARGFRAME DOVERLAY, 0, STATIC
        FUNCALL MT_AfCommandProcessing, MT_AfDataRequest
        LOCFRAME ISTACK, 0, STACK
        LOCFRAME PSTACK, 0, STACK
        LOCFRAME XSTACK, 14, STACK
        LOCFRAME IOVERLAY, 0, STATIC
        LOCFRAME DOVERLAY, 0, STATIC
        ARGFRAME ISTACK, 0, STACK
        ARGFRAME PSTACK, 0, STACK
        ARGFRAME XSTACK, 14, STACK
        ARGFRAME IOVERLAY, 0, STATIC
        ARGFRAME DOVERLAY, 0, STATIC
        FUNCALL MT_AfCommandProcessing, MT_AfDataRequestSrcRtg
        LOCFRAME ISTACK, 0, STACK
        LOCFRAME PSTACK, 0, STACK
        LOCFRAME XSTACK, 14, STACK
        LOCFRAME IOVERLAY, 0, STATIC
        LOCFRAME DOVERLAY, 0, STATIC
        ARGFRAME ISTACK, 0, STACK
        ARGFRAME PSTACK, 0, STACK
        ARGFRAME XSTACK, 14, STACK
        ARGFRAME IOVERLAY, 0, STATIC
        ARGFRAME DOVERLAY, 0, STATIC
        FUNCALL MT_AfCommandProcessing, MT_AfDataRetrieve
        LOCFRAME ISTACK, 0, STACK
        LOCFRAME PSTACK, 0, STACK
        LOCFRAME XSTACK, 14, STACK
        LOCFRAME IOVERLAY, 0, STATIC
        LOCFRAME DOVERLAY, 0, STATIC
        ARGFRAME ISTACK, 0, STACK
        ARGFRAME PSTACK, 0, STACK
        ARGFRAME XSTACK, 14, STACK
        ARGFRAME IOVERLAY, 0, STATIC
        ARGFRAME DOVERLAY, 0, STATIC
        FUNCALL MT_AfCommandProcessing, MT_AfDataStore
        LOCFRAME ISTACK, 0, STACK
        LOCFRAME PSTACK, 0, STACK
        LOCFRAME XSTACK, 14, STACK
        LOCFRAME IOVERLAY, 0, STATIC
        LOCFRAME DOVERLAY, 0, STATIC
        ARGFRAME ISTACK, 0, STACK
        ARGFRAME PSTACK, 0, STACK
        ARGFRAME XSTACK, 14, STACK
        ARGFRAME IOVERLAY, 0, STATIC
        ARGFRAME DOVERLAY, 0, STATIC
        FUNCALL MT_AfCommandProcessing, afAPSF_ConfigSet
        LOCFRAME ISTACK, 0, STACK
        LOCFRAME PSTACK, 0, STACK
        LOCFRAME XSTACK, 14, STACK
        LOCFRAME IOVERLAY, 0, STATIC
        LOCFRAME DOVERLAY, 0, STATIC
        ARGFRAME ISTACK, 0, STACK
        ARGFRAME PSTACK, 0, STACK
        ARGFRAME XSTACK, 14, STACK
        ARGFRAME IOVERLAY, 0, STATIC
        ARGFRAME DOVERLAY, 0, STATIC
        FUNCALL MT_AfCommandProcessing, MT_BuildAndSendZToolResponse
        LOCFRAME ISTACK, 0, STACK
        LOCFRAME PSTACK, 0, STACK
        LOCFRAME XSTACK, 14, STACK
        LOCFRAME IOVERLAY, 0, STATIC
        LOCFRAME DOVERLAY, 0, STATIC
        ARGFRAME ISTACK, 0, STACK
        ARGFRAME PSTACK, 0, STACK
        ARGFRAME XSTACK, 14, STACK
        ARGFRAME IOVERLAY, 0, STATIC
        ARGFRAME DOVERLAY, 0, STATIC
        FUNCALL MT_AfCommandProcessing, afAPSF_ConfigGet
        LOCFRAME ISTACK, 0, STACK
        LOCFRAME PSTACK, 0, STACK
        LOCFRAME XSTACK, 14, STACK
        LOCFRAME IOVERLAY, 0, STATIC
        LOCFRAME DOVERLAY, 0, STATIC
        ARGFRAME ISTACK, 0, STACK
        ARGFRAME PSTACK, 0, STACK
        ARGFRAME XSTACK, 14, STACK
        ARGFRAME IOVERLAY, 0, STATIC
        ARGFRAME DOVERLAY, 0, STATIC
        FUNCALL MT_AfCommandProcessing, MT_BuildAndSendZToolResponse
        LOCFRAME ISTACK, 0, STACK
        LOCFRAME PSTACK, 0, STACK
        LOCFRAME XSTACK, 14, STACK
        LOCFRAME IOVERLAY, 0, STATIC
        LOCFRAME DOVERLAY, 0, STATIC
        ARGFRAME ISTACK, 0, STACK
        ARGFRAME PSTACK, 0, STACK
        ARGFRAME XSTACK, 14, STACK
        ARGFRAME IOVERLAY, 0, STATIC
        ARGFRAME DOVERLAY, 0, STATIC
        MOV     A,#-0x9
        LCALL   ?BANKED_ENTER_XDATA
          CFI DPH0 load(1, XDATA, add(CFA_XSP16, literal(-1)))
          CFI DPL0 load(1, XDATA, add(CFA_XSP16, literal(-2)))
          CFI ?BRET_EXT load(1, XDATA, add(CFA_XSP16, literal(-3)))
          CFI ?RET_HIGH load(1, XDATA, add(CFA_XSP16, literal(-4)))
          CFI ?RET_LOW load(1, XDATA, add(CFA_XSP16, literal(-5)))
          CFI R7 load(1, XDATA, add(CFA_XSP16, literal(-6)))
          CFI V0 load(1, XDATA, add(CFA_XSP16, literal(-7)))
          CFI VB load(1, XDATA, add(CFA_XSP16, literal(-8)))
          CFI R6 load(1, XDATA, add(CFA_XSP16, literal(-9)))
          CFI CFA_SP SP+0
          CFI CFA_XSP16 add(XSP16, 9)
        ; Saved register size: 9
        ; Auto size: 5
        MOV     A,#-0x5
        LCALL   ?ALLOC_XSTACK8
          CFI CFA_XSP16 add(XSP16, 14)
        MOV     A,R2
        MOV     R0,A
        MOV     A,R3
        MOV     R1,A
//  215   uint8 status = MT_RPC_SUCCESS;
        MOV     R6,#0x0
//  216 
//  217   switch (pBuf[MT_RPC_POS_CMD1])
        MOV     DPL,R0
        MOV     DPH,R1
        INC     DPTR
        INC     DPTR
        MOVX    A,@DPTR
        JZ      ??MT_AfCommandProcessing_0
        DEC     A
        JZ      ??MT_AfCommandProcessing_1
        DEC     A
        JZ      ??MT_AfCommandProcessing_1
        DEC     A
        JZ      ??MT_AfCommandProcessing_2
        DEC     A
        JZ      ??MT_AfCommandProcessing_3
        ADD     A,#-0xd
        JZ      ??MT_AfCommandProcessing_4
        DEC     A
        JZ      ??MT_AfCommandProcessing_5
        DEC     A
        JZ      ??MT_AfCommandProcessing_6
        DEC     A
        JZ      ??MT_AfCommandProcessing_7
        LJMP    ??MT_AfCommandProcessing_8 & 0xFFFF
//  218   {
//  219     case MT_AF_REGISTER:
//  220       MT_AfRegister(pBuf);
??MT_AfCommandProcessing_0:
        ; Setup parameters for call to function MT_AfRegister
        LCALL   ??MT_AfRegister?relay; Banked call to: MT_AfRegister
//  221       break;
        LJMP    ??MT_AfCommandProcessing_9 & 0xFFFF
//  222 
//  223     case MT_AF_DELETE:
//  224       MT_AfDelete( pBuf );
??MT_AfCommandProcessing_3:
        ; Setup parameters for call to function MT_AfDelete
        LCALL   ??MT_AfDelete?relay  ; Banked call to: MT_AfDelete
//  225       break;
        LJMP    ??MT_AfCommandProcessing_9 & 0xFFFF
//  226 
//  227     case MT_AF_DATA_REQUEST:
//  228     case MT_AF_DATA_REQUEST_EXT:
//  229       MT_AfDataRequest(pBuf);
??MT_AfCommandProcessing_1:
        ; Setup parameters for call to function MT_AfDataRequest
        LCALL   ??MT_AfDataRequest?relay; Banked call to: MT_AfDataRequest
//  230       break;
        LJMP    ??MT_AfCommandProcessing_9 & 0xFFFF
//  231 
//  232 #if defined ( ZIGBEE_SOURCE_ROUTING )
//  233     case MT_AF_DATA_REQUEST_SRCRTG:
//  234       MT_AfDataRequestSrcRtg(pBuf);
??MT_AfCommandProcessing_2:
        ; Setup parameters for call to function MT_AfDataRequestSrcRtg
        LCALL   ??MT_AfDataRequestSrcRtg?relay; Banked call to: MT_AfDataRequestSrcRtg
//  235       break;
        LJMP    ??MT_AfCommandProcessing_9 & 0xFFFF
//  236 #endif
//  237 
//  238 #if defined INTER_PAN
//  239     case MT_AF_INTER_PAN_CTL:
//  240       MT_AfInterPanCtl(pBuf);
//  241       break;
//  242 #endif
//  243 
//  244     case MT_AF_DATA_RETRIEVE:
//  245       MT_AfDataRetrieve(pBuf);
??MT_AfCommandProcessing_5:
        ; Setup parameters for call to function MT_AfDataRetrieve
        LCALL   ??MT_AfDataRetrieve?relay; Banked call to: MT_AfDataRetrieve
//  246       break;
        LJMP    ??MT_AfCommandProcessing_9 & 0xFFFF
//  247 
//  248     case MT_AF_DATA_STORE:
//  249       MT_AfDataStore(pBuf);
??MT_AfCommandProcessing_4:
        ; Setup parameters for call to function MT_AfDataStore
        LCALL   ??MT_AfDataStore?relay; Banked call to: MT_AfDataStore
//  250       break;
        LJMP    ??MT_AfCommandProcessing_9 & 0xFFFF
//  251 
//  252     case MT_AF_APSF_CONFIG_SET:
//  253       MT_AfAPSF_ConfigSet(pBuf);
??MT_AfCommandProcessing_6:
        MOV     DPL,R0
        MOV     DPH,R1
        INC     DPTR
        INC     DPTR
        INC     DPTR
        INC     DPTR
        MOVX    A,@DPTR
        MOV     DPL,?XSP + 0
        MOV     DPH,?XSP + 1
        LCALL   ?Subroutine28 & 0xFFFF
??CrossCallReturnLabel_47:
        INC     DPTR
        INC     DPTR
        INC     DPTR
        INC     DPTR
        MOVX    A,@DPTR
        PUSH    A
          CFI CFA_SP SP+-1
        MOV     A,#0x1
        LCALL   ?XSTACK_DISP0_8
        POP     A
          CFI CFA_SP SP+0
        MOVX    @DPTR,A
        ; Setup parameters for call to function afAPSF_ConfigSet
        MOV     R2,?XSP + 0
        MOV     R3,?XSP + 1
        MOV     DPL,R0
        MOV     DPH,R1
        INC     DPTR
        INC     DPTR
        INC     DPTR
        MOVX    A,@DPTR
        MOV     R1,A
        LCALL   ??afAPSF_ConfigSet?relay; Banked call to: afAPSF_ConfigSet
        MOV     A,#0x2
        LCALL   ?XSTACK_DISP0_8
        MOV     A,R1
        MOVX    @DPTR,A
        ; Setup parameters for call to function MT_BuildAndSendZToolResponse
        MOV     A,#0x2
        LCALL   ?XSTACK_DISP102_8
        MOV     R3,#0x1
        MOV     R2,#0x13
        SJMP    ??MT_AfCommandProcessing_10
//  254       break;
//  255 
//  256     case MT_AF_APSF_CONFIG_GET:
//  257       MT_AfAPSF_ConfigGet(pBuf);
??MT_AfCommandProcessing_7:
        MOV     DPTR,#`?<Constant {0, 0}>`
        MOV     R4,?XSP + 0
        MOV     R5,?XSP + 1
        MOV     A,#0x2
        LCALL   ?MOVE_LONG8_XDATA_XDATA
        ; Setup parameters for call to function afAPSF_ConfigGet
        MOV     R2,?XSP + 0
        MOV     R3,?XSP + 1
        MOV     DPL,R0
        MOV     DPH,R1
        INC     DPTR
        INC     DPTR
        INC     DPTR
        MOVX    A,@DPTR
        MOV     R1,A
        LCALL   ??afAPSF_ConfigGet?relay; Banked call to: afAPSF_ConfigGet
        MOV     DPL,?XSP + 0
        MOV     DPH,?XSP + 1
        MOVX    A,@DPTR
        PUSH    A
          CFI CFA_SP SP+-1
        MOV     A,#0x3
        LCALL   ?XSTACK_DISP0_8
        POP     A
          CFI CFA_SP SP+0
        MOVX    @DPTR,A
        MOV     A,#0x1
        LCALL   ?XSTACK_DISP0_8
        MOVX    A,@DPTR
        PUSH    A
          CFI CFA_SP SP+-1
        MOV     A,#0x4
        LCALL   ?XSTACK_DISP0_8
        POP     A
          CFI CFA_SP SP+0
        MOVX    @DPTR,A
        ; Setup parameters for call to function MT_BuildAndSendZToolResponse
        MOV     A,#0x3
        LCALL   ?XSTACK_DISP102_8
        MOV     R3,#0x3
        MOV     R2,#0x14
??MT_AfCommandProcessing_10:
        MOV     R1,#0x64
        LCALL   ??MT_BuildAndSendZToolResponse?relay; Banked call to: MT_BuildAndSendZToolResponse
//  258       break;
        SJMP    ??MT_AfCommandProcessing_9
//  259 
//  260     default:
//  261       status = MT_RPC_ERR_COMMAND_ID;
??MT_AfCommandProcessing_8:
        MOV     R6,#0x2
//  262       break;
//  263   }
//  264 
//  265   return status;
??MT_AfCommandProcessing_9:
        MOV     A,R6
        MOV     R1,A
        MOV     A,#0x5
          CFI EndBlock cfiBlock1
        REQUIRE ?Subroutine0
        ; // Fall through to label ?Subroutine0
//  266 }

        RSEG BANKED_CODE:CODE:NOROOT(0)
?Subroutine0:
          CFI Block cfiBlock2 Using cfiCommon0
          CFI NoFunction
          CFI CFA_SP SP+0
          CFI CFA_XSP16 add(XSP16, 14)
          CFI VB load(1, XDATA, add(CFA_XSP16, literal(-8)))
          CFI DPL0 load(1, XDATA, add(CFA_XSP16, literal(-2)))
          CFI DPH0 load(1, XDATA, add(CFA_XSP16, literal(-1)))
          CFI R6 load(1, XDATA, add(CFA_XSP16, literal(-9)))
          CFI R7 load(1, XDATA, add(CFA_XSP16, literal(-6)))
          CFI V0 load(1, XDATA, add(CFA_XSP16, literal(-7)))
          CFI ?BRET_EXT load(1, XDATA, add(CFA_XSP16, literal(-3)))
          CFI ?RET_HIGH load(1, XDATA, add(CFA_XSP16, literal(-4)))
          CFI ?RET_LOW load(1, XDATA, add(CFA_XSP16, literal(-5)))
          CFI Invalid
        LCALL   ?DEALLOC_XSTACK8
          CFI EndBlock cfiBlock2
        REQUIRE ??Subroutine45_0
        ; // Fall through to label ??Subroutine45_0

        RSEG BANKED_CODE:CODE:NOROOT(0)
??Subroutine45_0:
          CFI Block cfiBlock3 Using cfiCommon0
          CFI NoFunction
          CFI CFA_SP SP+0
          CFI CFA_XSP16 add(XSP16, 9)
          CFI VB load(1, XDATA, add(CFA_XSP16, literal(-8)))
          CFI DPL0 load(1, XDATA, add(CFA_XSP16, literal(-2)))
          CFI DPH0 load(1, XDATA, add(CFA_XSP16, literal(-1)))
          CFI R6 load(1, XDATA, add(CFA_XSP16, literal(-9)))
          CFI R7 load(1, XDATA, add(CFA_XSP16, literal(-6)))
          CFI V0 load(1, XDATA, add(CFA_XSP16, literal(-7)))
          CFI ?BRET_EXT load(1, XDATA, add(CFA_XSP16, literal(-3)))
          CFI ?RET_HIGH load(1, XDATA, add(CFA_XSP16, literal(-4)))
          CFI ?RET_LOW load(1, XDATA, add(CFA_XSP16, literal(-5)))
        MOV     R7,#0x1
        LJMP    ?BANKED_LEAVE_XDATA
          CFI EndBlock cfiBlock3
//  267 
//  268 /***************************************************************************************************
//  269  * @fn      MT_AfRegister
//  270  *
//  271  * @brief   Process AF Register command
//  272  *
//  273  * @param   pBuf - pointer to the received buffer
//  274  *
//  275  * @return  none
//  276  ***************************************************************************************************/

        RSEG BANKED_CODE:CODE:NOROOT(0)
//  277 void MT_AfRegister(uint8 *pBuf)
MT_AfRegister:
          CFI Block cfiBlock4 Using cfiCommon0
          CFI Function MT_AfRegister
        CODE
//  278 {
        FUNCALL MT_AfRegister, osal_mem_alloc
        LOCFRAME ISTACK, 0, STACK
        LOCFRAME PSTACK, 0, STACK
        LOCFRAME XSTACK, 15, STACK
        LOCFRAME IOVERLAY, 0, STATIC
        LOCFRAME DOVERLAY, 0, STATIC
        ARGFRAME ISTACK, 0, STACK
        ARGFRAME PSTACK, 0, STACK
        ARGFRAME XSTACK, 15, STACK
        ARGFRAME IOVERLAY, 0, STATIC
        ARGFRAME DOVERLAY, 0, STATIC
        FUNCALL MT_AfRegister, MT_BuildEndpointDesc
        LOCFRAME ISTACK, 0, STACK
        LOCFRAME PSTACK, 0, STACK
        LOCFRAME XSTACK, 15, STACK
        LOCFRAME IOVERLAY, 0, STATIC
        LOCFRAME DOVERLAY, 0, STATIC
        ARGFRAME ISTACK, 0, STACK
        ARGFRAME PSTACK, 0, STACK
        ARGFRAME XSTACK, 15, STACK
        ARGFRAME IOVERLAY, 0, STATIC
        ARGFRAME DOVERLAY, 0, STATIC
        FUNCALL MT_AfRegister, afRegister
        LOCFRAME ISTACK, 0, STACK
        LOCFRAME PSTACK, 0, STACK
        LOCFRAME XSTACK, 15, STACK
        LOCFRAME IOVERLAY, 0, STATIC
        LOCFRAME DOVERLAY, 0, STATIC
        ARGFRAME ISTACK, 0, STACK
        ARGFRAME PSTACK, 0, STACK
        ARGFRAME XSTACK, 15, STACK
        ARGFRAME IOVERLAY, 0, STATIC
        ARGFRAME DOVERLAY, 0, STATIC
        FUNCALL MT_AfRegister, osal_mem_free
        LOCFRAME ISTACK, 0, STACK
        LOCFRAME PSTACK, 0, STACK
        LOCFRAME XSTACK, 15, STACK
        LOCFRAME IOVERLAY, 0, STATIC
        LOCFRAME DOVERLAY, 0, STATIC
        ARGFRAME ISTACK, 0, STACK
        ARGFRAME PSTACK, 0, STACK
        ARGFRAME XSTACK, 15, STACK
        ARGFRAME IOVERLAY, 0, STATIC
        ARGFRAME DOVERLAY, 0, STATIC
        FUNCALL MT_AfRegister, MT_BuildAndSendZToolResponse
        LOCFRAME ISTACK, 0, STACK
        LOCFRAME PSTACK, 0, STACK
        LOCFRAME XSTACK, 15, STACK
        LOCFRAME IOVERLAY, 0, STATIC
        LOCFRAME DOVERLAY, 0, STATIC
        ARGFRAME ISTACK, 0, STACK
        ARGFRAME PSTACK, 0, STACK
        ARGFRAME XSTACK, 15, STACK
        ARGFRAME IOVERLAY, 0, STATIC
        ARGFRAME DOVERLAY, 0, STATIC
        REQUIRE ?V0
        REQUIRE ?V1
        REQUIRE ?V2
        REQUIRE ?V4
        REQUIRE ?V5
        MOV     A,#-0xe
        LCALL   ?BANKED_ENTER_XDATA
          CFI DPH0 load(1, XDATA, add(CFA_XSP16, literal(-1)))
          CFI DPL0 load(1, XDATA, add(CFA_XSP16, literal(-2)))
          CFI ?BRET_EXT load(1, XDATA, add(CFA_XSP16, literal(-3)))
          CFI ?RET_HIGH load(1, XDATA, add(CFA_XSP16, literal(-4)))
          CFI ?RET_LOW load(1, XDATA, add(CFA_XSP16, literal(-5)))
          CFI R7 load(1, XDATA, add(CFA_XSP16, literal(-6)))
          CFI V5 load(1, XDATA, add(CFA_XSP16, literal(-7)))
          CFI V4 load(1, XDATA, add(CFA_XSP16, literal(-8)))
          CFI V3 load(1, XDATA, add(CFA_XSP16, literal(-9)))
          CFI V2 load(1, XDATA, add(CFA_XSP16, literal(-10)))
          CFI V1 load(1, XDATA, add(CFA_XSP16, literal(-11)))
          CFI V0 load(1, XDATA, add(CFA_XSP16, literal(-12)))
          CFI VB load(1, XDATA, add(CFA_XSP16, literal(-13)))
          CFI R6 load(1, XDATA, add(CFA_XSP16, literal(-14)))
          CFI CFA_SP SP+0
          CFI CFA_XSP16 add(XSP16, 14)
        ; Saved register size: 14
        ; Auto size: 1
        MOV     A,#-0x1
        LCALL   ?ALLOC_XSTACK8
          CFI CFA_XSP16 add(XSP16, 15)
        MOV     ?V0,R2
        MOV     ?V1,R3
//  279   uint8 cmdId;
//  280   uint8 retValue = ZMemError;
        LCALL   ?Subroutine32 & 0xFFFF
//  281   endPointDesc_t *epDesc;
//  282 
//  283   /* parse header */
//  284   cmdId = pBuf[MT_RPC_POS_CMD1];
??CrossCallReturnLabel_59:
        MOV     ?V2,A
//  285   pBuf += MT_RPC_FRAME_HDR_SZ;
//  286 
//  287   epDesc = (endPointDesc_t *)osal_mem_alloc(sizeof(endPointDesc_t));
        ; Setup parameters for call to function osal_mem_alloc
        MOV     R2,#0x6
        MOV     R3,#0x0
        LCALL   ??osal_mem_alloc?relay; Banked call to: osal_mem_alloc
        MOV     ?V4,R2
        MOV     ?V5,R3
        MOV     R6,?V4
        MOV     R7,?V5
//  288   if ( epDesc )
        MOV     A,R6
        ORL     A,R7
        JZ      ??MT_AfRegister_0
//  289   {
//  290     epDesc->task_id = &MT_TaskID;
        MOV     DPL,R6
        MOV     DPH,R7
        INC     DPTR
        MOV     A,#MT_TaskID & 0xff
        MOVX    @DPTR,A
        INC     DPTR
        MOV     A,#(MT_TaskID >> 8) & 0xff
        MOVX    @DPTR,A
//  291     retValue = MT_BuildEndpointDesc( pBuf, epDesc );
        ; Setup parameters for call to function MT_BuildEndpointDesc
        MOV     A,R6
        MOV     R4,A
        MOV     A,R7
        MOV     R5,A
        MOV     A,?V0
        ADD     A,#0x3
        MOV     R2,A
        CLR     A
        ADDC    A,?V1
        MOV     R3,A
        LCALL   ??MT_BuildEndpointDesc?relay; Banked call to: MT_BuildEndpointDesc
        MOV     A,R1
        MOV     DPL,?XSP + 0
        MOV     DPH,?XSP + 1
        MOVX    @DPTR,A
//  292     if ( retValue == ZSuccess )
        JNZ     ??MT_AfRegister_1
//  293     {
//  294       retValue = afRegister( epDesc );
        ; Setup parameters for call to function afRegister
        MOV     A,R6
        MOV     R2,A
        MOV     A,R7
        MOV     R3,A
        LCALL   ??afRegister?relay   ; Banked call to: afRegister
        MOV     A,R1
        MOV     DPL,?XSP + 0
        MOV     DPH,?XSP + 1
        MOVX    @DPTR,A
//  295     }
//  296 
//  297     if ( retValue != ZSuccess )
??MT_AfRegister_1:
        MOVX    A,@DPTR
        JZ      ??MT_AfRegister_0
//  298     {
//  299       osal_mem_free( epDesc );
        ; Setup parameters for call to function osal_mem_free
        MOV     A,R6
        MOV     R2,A
        MOV     A,R7
        MOV     R3,A
        LCALL   ??osal_mem_free?relay; Banked call to: osal_mem_free
//  300     }
//  301   }
//  302 
//  303   /* Build and send back the response */
//  304   MT_BuildAndSendZToolResponse(((uint8)MT_RPC_CMD_SRSP | (uint8)MT_RPC_SYS_AF), cmdId, 1, &retValue);
??MT_AfRegister_0:
        ; Setup parameters for call to function MT_BuildAndSendZToolResponse
        MOV     R4,?XSP + 0
        MOV     R5,?XSP + 1
        MOV     R3,#0x1
        MOV     R2,?V2
        MOV     R1,#0x64
        LCALL   ??MT_BuildAndSendZToolResponse?relay; Banked call to: MT_BuildAndSendZToolResponse
//  305 }
        MOV     A,#0x1
        LCALL   ?DEALLOC_XSTACK8
          CFI CFA_XSP16 add(XSP16, 14)
        MOV     R7,#0x6
        LJMP    ?BANKED_LEAVE_XDATA
          CFI EndBlock cfiBlock4
//  306 
//  307 /***************************************************************************************************
//  308  * @fn      MT_AfDelete
//  309  *
//  310  * @brief   Process AF Delete Endpoint command
//  311  *
//  312  * @param   pBuf - pointer to the received buffer
//  313  *
//  314  * @return  none
//  315  ***************************************************************************************************/

        RSEG BANKED_CODE:CODE:NOROOT(0)
//  316 void MT_AfDelete(uint8 *pBuf)
MT_AfDelete:
          CFI Block cfiBlock5 Using cfiCommon0
          CFI Function MT_AfDelete
        CODE
//  317 {
        FUNCALL MT_AfDelete, afDelete
        LOCFRAME ISTACK, 0, STACK
        LOCFRAME PSTACK, 0, STACK
        LOCFRAME XSTACK, 10, STACK
        LOCFRAME IOVERLAY, 0, STATIC
        LOCFRAME DOVERLAY, 0, STATIC
        ARGFRAME ISTACK, 0, STACK
        ARGFRAME PSTACK, 0, STACK
        ARGFRAME XSTACK, 10, STACK
        ARGFRAME IOVERLAY, 0, STATIC
        ARGFRAME DOVERLAY, 0, STATIC
        FUNCALL MT_AfDelete, MT_BuildAndSendZToolResponse
        LOCFRAME ISTACK, 0, STACK
        LOCFRAME PSTACK, 0, STACK
        LOCFRAME XSTACK, 10, STACK
        LOCFRAME IOVERLAY, 0, STATIC
        LOCFRAME DOVERLAY, 0, STATIC
        ARGFRAME ISTACK, 0, STACK
        ARGFRAME PSTACK, 0, STACK
        ARGFRAME XSTACK, 10, STACK
        ARGFRAME IOVERLAY, 0, STATIC
        ARGFRAME DOVERLAY, 0, STATIC
        MOV     A,#-0x9
        LCALL   ?BANKED_ENTER_XDATA
          CFI DPH0 load(1, XDATA, add(CFA_XSP16, literal(-1)))
          CFI DPL0 load(1, XDATA, add(CFA_XSP16, literal(-2)))
          CFI ?BRET_EXT load(1, XDATA, add(CFA_XSP16, literal(-3)))
          CFI ?RET_HIGH load(1, XDATA, add(CFA_XSP16, literal(-4)))
          CFI ?RET_LOW load(1, XDATA, add(CFA_XSP16, literal(-5)))
          CFI R7 load(1, XDATA, add(CFA_XSP16, literal(-6)))
          CFI V0 load(1, XDATA, add(CFA_XSP16, literal(-7)))
          CFI VB load(1, XDATA, add(CFA_XSP16, literal(-8)))
          CFI R6 load(1, XDATA, add(CFA_XSP16, literal(-9)))
          CFI CFA_SP SP+0
          CFI CFA_XSP16 add(XSP16, 9)
        ; Saved register size: 9
        ; Auto size: 1
        MOV     A,#-0x1
        LCALL   ?ALLOC_XSTACK8
          CFI CFA_XSP16 add(XSP16, 10)
//  318   uint8 cmdId;
//  319   uint8 retValue = ZMemError;
        LCALL   ?Subroutine32 & 0xFFFF
//  320 
//  321   /* parse header */
//  322   cmdId = pBuf[MT_RPC_POS_CMD1];
??CrossCallReturnLabel_60:
        MOV     R6,A
//  323   pBuf += MT_RPC_FRAME_HDR_SZ;
//  324 
//  325   retValue = afDelete( *pBuf );
        ; Setup parameters for call to function afDelete
        MOV     DPL,R2
        MOV     DPH,R3
        INC     DPTR
        INC     DPTR
        INC     DPTR
        MOVX    A,@DPTR
        MOV     R1,A
        LCALL   ??afDelete?relay     ; Banked call to: afDelete
        MOV     A,R1
        MOV     DPL,?XSP + 0
        MOV     DPH,?XSP + 1
        LCALL   ?Subroutine30 & 0xFFFF
//  326 
//  327   /* Build and send back the response */
//  328   MT_BuildAndSendZToolResponse(((uint8)MT_RPC_CMD_SRSP | (uint8)MT_RPC_SYS_AF), cmdId, 1, &retValue);
??CrossCallReturnLabel_52:
        MOV     R3,#0x1
        MOV     A,R6
        MOV     R2,A
        MOV     R1,#0x64
        LCALL   ??MT_BuildAndSendZToolResponse?relay; Banked call to: MT_BuildAndSendZToolResponse
//  329 }
        MOV     A,#0x1
        LJMP    ?Subroutine0 & 0xFFFF
          CFI EndBlock cfiBlock5

        RSEG BANKED_CODE:CODE:NOROOT(0)
?Subroutine32:
          CFI Block cfiCond6 Using cfiCommon0
          CFI Function MT_AfRegister
          CFI Conditional ??CrossCallReturnLabel_59
          CFI R6 load(1, XDATA, add(CFA_XSP16, literal(-14)))
          CFI VB load(1, XDATA, add(CFA_XSP16, literal(-13)))
          CFI V0 load(1, XDATA, add(CFA_XSP16, literal(-12)))
          CFI V1 load(1, XDATA, add(CFA_XSP16, literal(-11)))
          CFI V2 load(1, XDATA, add(CFA_XSP16, literal(-10)))
          CFI V3 load(1, XDATA, add(CFA_XSP16, literal(-9)))
          CFI V4 load(1, XDATA, add(CFA_XSP16, literal(-8)))
          CFI V5 load(1, XDATA, add(CFA_XSP16, literal(-7)))
          CFI R7 load(1, XDATA, add(CFA_XSP16, literal(-6)))
          CFI ?RET_LOW load(1, XDATA, add(CFA_XSP16, literal(-5)))
          CFI ?RET_HIGH load(1, XDATA, add(CFA_XSP16, literal(-4)))
          CFI ?BRET_EXT load(1, XDATA, add(CFA_XSP16, literal(-3)))
          CFI DPL0 load(1, XDATA, add(CFA_XSP16, literal(-2)))
          CFI DPH0 load(1, XDATA, add(CFA_XSP16, literal(-1)))
          CFI CFA_SP SP+-2
          CFI CFA_XSP16 add(XSP16, 15)
          CFI Block cfiCond7 Using cfiCommon0
          CFI (cfiCond7) Function MT_AfDelete
          CFI (cfiCond7) Conditional ??CrossCallReturnLabel_60
          CFI (cfiCond7) R6 load(1, XDATA, add(CFA_XSP16, literal(-9)))
          CFI (cfiCond7) VB load(1, XDATA, add(CFA_XSP16, literal(-8)))
          CFI (cfiCond7) V0 load(1, XDATA, add(CFA_XSP16, literal(-7)))
          CFI (cfiCond7) R7 load(1, XDATA, add(CFA_XSP16, literal(-6)))
          CFI (cfiCond7) ?RET_LOW load(1, XDATA, add(CFA_XSP16, literal(-5)))
          CFI (cfiCond7) ?RET_HIGH load(1, XDATA, add(CFA_XSP16, literal(-4)))
          CFI (cfiCond7) ?BRET_EXT load(1, XDATA, add(CFA_XSP16, literal(-3)))
          CFI (cfiCond7) DPL0 load(1, XDATA, add(CFA_XSP16, literal(-2)))
          CFI (cfiCond7) DPH0 load(1, XDATA, add(CFA_XSP16, literal(-1)))
          CFI (cfiCond7) CFA_SP SP+-2
          CFI (cfiCond7) CFA_XSP16 add(XSP16, 10)
          CFI Block cfiPicker8 Using cfiCommon1
          CFI (cfiPicker8) NoFunction
          CFI (cfiPicker8) Picker
        MOV     DPL,?XSP + 0
        MOV     DPH,?XSP + 1
        MOV     A,#0x10
        LCALL   ?Subroutine38 & 0xFFFF
??CrossCallReturnLabel_76:
        RET
          CFI EndBlock cfiCond6
          CFI EndBlock cfiCond7
          CFI EndBlock cfiPicker8
//  330 
//  331 /***************************************************************************************************
//  332  * @fn      MT_AfDataRequest
//  333  *
//  334  * @brief   Process AF Register command
//  335  *
//  336  * @param   pBuf - pointer to the received buffer
//  337  *
//  338  * @return  none
//  339  ***************************************************************************************************/

        RSEG BANKED_CODE:CODE:NOROOT(0)
//  340 void MT_AfDataRequest(uint8 *pBuf)
MT_AfDataRequest:
          CFI Block cfiBlock9 Using cfiCommon0
          CFI Function MT_AfDataRequest
        CODE
//  341 {
        FUNCALL MT_AfDataRequest, osal_memcpy
        LOCFRAME ISTACK, 0, STACK
        LOCFRAME PSTACK, 0, STACK
        LOCFRAME XSTACK, 39, STACK
        LOCFRAME IOVERLAY, 0, STATIC
        LOCFRAME DOVERLAY, 0, STATIC
        ARGFRAME ISTACK, 0, STACK
        ARGFRAME PSTACK, 0, STACK
        ARGFRAME XSTACK, 39, STACK
        ARGFRAME IOVERLAY, 0, STATIC
        ARGFRAME DOVERLAY, 0, STATIC
        FUNCALL MT_AfDataRequest, afFindEndPointDesc
        LOCFRAME ISTACK, 0, STACK
        LOCFRAME PSTACK, 0, STACK
        LOCFRAME XSTACK, 36, STACK
        LOCFRAME IOVERLAY, 0, STATIC
        LOCFRAME DOVERLAY, 0, STATIC
        ARGFRAME ISTACK, 0, STACK
        ARGFRAME PSTACK, 0, STACK
        ARGFRAME XSTACK, 36, STACK
        ARGFRAME IOVERLAY, 0, STATIC
        ARGFRAME DOVERLAY, 0, STATIC
        FUNCALL MT_AfDataRequest, osal_mem_alloc
        LOCFRAME ISTACK, 0, STACK
        LOCFRAME PSTACK, 0, STACK
        LOCFRAME XSTACK, 36, STACK
        LOCFRAME IOVERLAY, 0, STATIC
        LOCFRAME DOVERLAY, 0, STATIC
        ARGFRAME ISTACK, 0, STACK
        ARGFRAME PSTACK, 0, STACK
        ARGFRAME XSTACK, 36, STACK
        ARGFRAME IOVERLAY, 0, STATIC
        ARGFRAME DOVERLAY, 0, STATIC
        FUNCALL MT_AfDataRequest, osal_memcpy
        LOCFRAME ISTACK, 0, STACK
        LOCFRAME PSTACK, 0, STACK
        LOCFRAME XSTACK, 39, STACK
        LOCFRAME IOVERLAY, 0, STATIC
        LOCFRAME DOVERLAY, 0, STATIC
        ARGFRAME ISTACK, 0, STACK
        ARGFRAME PSTACK, 0, STACK
        ARGFRAME XSTACK, 39, STACK
        ARGFRAME IOVERLAY, 0, STATIC
        ARGFRAME DOVERLAY, 0, STATIC
        FUNCALL MT_AfDataRequest, osal_start_timerEx
        LOCFRAME ISTACK, 0, STACK
        LOCFRAME PSTACK, 0, STACK
        LOCFRAME XSTACK, 40, STACK
        LOCFRAME IOVERLAY, 0, STATIC
        LOCFRAME DOVERLAY, 0, STATIC
        ARGFRAME ISTACK, 0, STACK
        ARGFRAME PSTACK, 0, STACK
        ARGFRAME XSTACK, 40, STACK
        ARGFRAME IOVERLAY, 0, STATIC
        ARGFRAME DOVERLAY, 0, STATIC
        FUNCALL MT_AfDataRequest, osal_set_event
        LOCFRAME ISTACK, 0, STACK
        LOCFRAME PSTACK, 0, STACK
        LOCFRAME XSTACK, 36, STACK
        LOCFRAME IOVERLAY, 0, STATIC
        LOCFRAME DOVERLAY, 0, STATIC
        ARGFRAME ISTACK, 0, STACK
        ARGFRAME PSTACK, 0, STACK
        ARGFRAME XSTACK, 36, STACK
        ARGFRAME IOVERLAY, 0, STATIC
        ARGFRAME DOVERLAY, 0, STATIC
        FUNCALL MT_AfDataRequest, AF_DataRequest
        LOCFRAME ISTACK, 0, STACK
        LOCFRAME PSTACK, 0, STACK
        LOCFRAME XSTACK, 45, STACK
        LOCFRAME IOVERLAY, 0, STATIC
        LOCFRAME DOVERLAY, 0, STATIC
        ARGFRAME ISTACK, 0, STACK
        ARGFRAME PSTACK, 0, STACK
        ARGFRAME XSTACK, 45, STACK
        ARGFRAME IOVERLAY, 0, STATIC
        ARGFRAME DOVERLAY, 0, STATIC
        FUNCALL MT_AfDataRequest, MT_BuildAndSendZToolResponse
        LOCFRAME ISTACK, 0, STACK
        LOCFRAME PSTACK, 0, STACK
        LOCFRAME XSTACK, 36, STACK
        LOCFRAME IOVERLAY, 0, STATIC
        LOCFRAME DOVERLAY, 0, STATIC
        ARGFRAME ISTACK, 0, STACK
        ARGFRAME PSTACK, 0, STACK
        ARGFRAME XSTACK, 36, STACK
        ARGFRAME IOVERLAY, 0, STATIC
        ARGFRAME DOVERLAY, 0, STATIC
        REQUIRE ?V0
        REQUIRE ?V1
        REQUIRE ?V2
        REQUIRE ?V3
        REQUIRE ?V4
        REQUIRE ?V5
        REQUIRE ?V6
        REQUIRE ?V7
        REQUIRE ?V8
        REQUIRE ?V9
        REQUIRE ?V10
        REQUIRE ?V12
        REQUIRE ?V13
        MOV     A,#-0x16
        LCALL   ?BANKED_ENTER_XDATA
          CFI DPH0 load(1, XDATA, add(CFA_XSP16, literal(-1)))
          CFI DPL0 load(1, XDATA, add(CFA_XSP16, literal(-2)))
          CFI ?BRET_EXT load(1, XDATA, add(CFA_XSP16, literal(-3)))
          CFI ?RET_HIGH load(1, XDATA, add(CFA_XSP16, literal(-4)))
          CFI ?RET_LOW load(1, XDATA, add(CFA_XSP16, literal(-5)))
          CFI R7 load(1, XDATA, add(CFA_XSP16, literal(-6)))
          CFI V13 load(1, XDATA, add(CFA_XSP16, literal(-7)))
          CFI V12 load(1, XDATA, add(CFA_XSP16, literal(-8)))
          CFI V11 load(1, XDATA, add(CFA_XSP16, literal(-9)))
          CFI V10 load(1, XDATA, add(CFA_XSP16, literal(-10)))
          CFI V9 load(1, XDATA, add(CFA_XSP16, literal(-11)))
          CFI V8 load(1, XDATA, add(CFA_XSP16, literal(-12)))
          CFI V7 load(1, XDATA, add(CFA_XSP16, literal(-13)))
          CFI V6 load(1, XDATA, add(CFA_XSP16, literal(-14)))
          CFI V5 load(1, XDATA, add(CFA_XSP16, literal(-15)))
          CFI V4 load(1, XDATA, add(CFA_XSP16, literal(-16)))
          CFI V3 load(1, XDATA, add(CFA_XSP16, literal(-17)))
          CFI V2 load(1, XDATA, add(CFA_XSP16, literal(-18)))
          CFI V1 load(1, XDATA, add(CFA_XSP16, literal(-19)))
          CFI V0 load(1, XDATA, add(CFA_XSP16, literal(-20)))
          CFI VB load(1, XDATA, add(CFA_XSP16, literal(-21)))
          CFI R6 load(1, XDATA, add(CFA_XSP16, literal(-22)))
          CFI CFA_SP SP+0
          CFI CFA_XSP16 add(XSP16, 22)
        ; Saved register size: 22
        ; Auto size: 14
        MOV     A,#-0xe
        LCALL   ?ALLOC_XSTACK8
          CFI CFA_XSP16 add(XSP16, 36)
        MOV     ?V5,R3
//  342   #define MT_AF_REQ_MSG_LEN  10
//  343   #define MT_AF_REQ_MSG_EXT  10
//  344 
//  345   endPointDesc_t *epDesc;
//  346   afAddrType_t dstAddr;
//  347   cId_t cId;
//  348   uint8 transId, txOpts, radius;
//  349   uint8 cmd0, cmd1;
//  350   uint8 retValue = ZFailure;
        MOV     DPL,?XSP + 0
        MOV     DPH,?XSP + 1
        MOV     A,#0x1
        LCALL   ?Subroutine44 & 0xFFFF
//  351   uint16 dataLen, tempLen;
//  352 
//  353   /* Parse header */
//  354   cmd0 = pBuf[MT_RPC_POS_CMD0];
??CrossCallReturnLabel_87:
        MOVX    A,@DPTR
        MOV     ?V10,A
//  355   cmd1 = pBuf[MT_RPC_POS_CMD1];
        MOV     DPL,R2
        MOV     DPH,R3
        INC     DPTR
        INC     DPTR
        MOVX    A,@DPTR
        MOV     ?V7,A
//  356   pBuf += MT_RPC_FRAME_HDR_SZ;
        MOV     A,R2
        ADD     A,#0x3
        MOV     ?V4,A
        JNC     ??MT_AfDataRequest_0
        INC     ?V5
//  357 
//  358   if (cmd1 == MT_AF_DATA_REQUEST_EXT)
??MT_AfDataRequest_0:
        MOV     A,#0x2
        XRL     A,?V7
        JNZ     ??MT_AfDataRequest_1
//  359   {
//  360     dstAddr.addrMode = (afAddrMode_t)*pBuf++;
        MOV     DPL,?V4
        MOV     DPH,?V5
        MOVX    A,@DPTR
        MOV     R0,A
        MOV     A,#0xa
        LCALL   ?XSTACK_DISP0_8
        MOV     A,R0
        LCALL   ?Subroutine24 & 0xFFFF
//  361 
//  362     if (dstAddr.addrMode == afAddr64Bit)
??CrossCallReturnLabel_35:
        MOV     A,#0x3
        XRL     A,R0
        JNZ     ??MT_AfDataRequest_2
//  363     {
//  364       (void)osal_memcpy(dstAddr.addr.extAddr, pBuf, Z_EXTADDR_LEN);
        ; Setup parameters for call to function osal_memcpy
        MOV     ?V0,?V4
        MOV     ?V1,?V5
        MOV     ?V2,#0x0
        MOV     R0,#?V0
        LCALL   ?PUSH_XSTACK_I_THREE
          CFI CFA_XSP16 add(XSP16, 39)
        MOV     R4,#0x8
        MOV     R5,#0x0
        MOV     A,#0x5
        LCALL   ?XSTACK_DISP101_8
        LCALL   ??osal_memcpy?relay  ; Banked call to: osal_memcpy
        MOV     A,#0x3
        LCALL   ?DEALLOC_XSTACK8
          CFI CFA_XSP16 add(XSP16, 36)
        SJMP    ??CrossCallReturnLabel_42
//  365     }
//  366     else
//  367     {
//  368       dstAddr.addr.shortAddr = BUILD_UINT16(pBuf[0], pBuf[1]);
??MT_AfDataRequest_2:
        LCALL   ?Subroutine5 & 0xFFFF
//  369     }
??CrossCallReturnLabel_2:
        LCALL   ?XSTACK_DISP0_8
        LCALL   ?Subroutine27 & 0xFFFF
//  370     pBuf += Z_EXTADDR_LEN;
??CrossCallReturnLabel_42:
        MOV     A,?V4
        ADD     A,#0x8
        MOV     ?V4,A
        JNC     ??MT_AfDataRequest_3
        INC     ?V5
//  371 
//  372     dstAddr.endPoint = *pBuf++;
??MT_AfDataRequest_3:
        MOV     DPL,A
        MOV     DPH,?V5
        MOVX    A,@DPTR
        PUSH    A
          CFI CFA_SP SP+-1
        MOV     A,#0xb
        LCALL   ?XSTACK_DISP0_8
        POP     A
          CFI CFA_SP SP+0
        LCALL   ?Subroutine24 & 0xFFFF
//  373     dstAddr.panId = BUILD_UINT16(pBuf[0], pBuf[1]);
??CrossCallReturnLabel_36:
        MOVX    A,@DPTR
        MOV     R2,A
        INC     DPTR
        MOVX    A,@DPTR
        MOV     R1,A
        MOV     A,R2
        MOV     R0,A
        MOV     A,#0xc
        LCALL   ?XSTACK_DISP0_8
        LCALL   ?Subroutine26 & 0xFFFF
//  374     pBuf += 2;
//  375   }
??CrossCallReturnLabel_38:
        JNC     ??MT_AfDataRequest_4
        INC     ?V5
        SJMP    ??MT_AfDataRequest_4
//  376   else
//  377   {
//  378     /* Destination address */
//  379     dstAddr.addrMode = afAddr16Bit;
??MT_AfDataRequest_1:
        MOV     A,#0xa
        LCALL   ?XSTACK_DISP0_8
        MOV     A,#0x2
        MOVX    @DPTR,A
//  380     dstAddr.addr.shortAddr = BUILD_UINT16(pBuf[0], pBuf[1]);
        MOV     DPL,?V4
        MOV     DPH,?V5
        LCALL   ?Subroutine5 & 0xFFFF
??CrossCallReturnLabel_3:
        LCALL   ?XSTACK_DISP0_8
        LCALL   ?Subroutine26 & 0xFFFF
//  381     pBuf += 2;
??CrossCallReturnLabel_39:
        JNC     ??MT_AfDataRequest_5
        INC     ?V5
//  382 
//  383     /* Destination endpoint */
//  384     dstAddr.endPoint = *pBuf++;
??MT_AfDataRequest_5:
        MOV     DPL,A
        MOV     DPH,?V5
        MOVX    A,@DPTR
        PUSH    A
          CFI CFA_SP SP+-1
        MOV     A,#0xb
        LCALL   ?XSTACK_DISP0_8
        POP     A
          CFI CFA_SP SP+0
        LCALL   ?Subroutine24 & 0xFFFF
//  385     dstAddr.panId = 0;
??CrossCallReturnLabel_37:
        MOV     A,#0xc
        LCALL   ?XSTACK_DISP0_8
        CLR     A
        MOVX    @DPTR,A
        INC     DPTR
        MOVX    @DPTR,A
//  386   }
//  387 
//  388   /* Source endpoint */
//  389   epDesc = afFindEndPointDesc(*pBuf++);
??MT_AfDataRequest_4:
        ; Setup parameters for call to function afFindEndPointDesc
        MOV     DPL,?V4
        MOV     DPH,?V5
        MOVX    A,@DPTR
        MOV     R1,A
        LCALL   ??afFindEndPointDesc?relay; Banked call to: afFindEndPointDesc
        MOV     ?V8,R2
        MOV     ?V9,R3
        MOV     DPL,?V4
        MOV     DPH,?V5
        INC     DPTR
        MOV     ?V4,DPL
        MOV     ?V5,DPH
//  390 
//  391   /* ClusterId */
//  392   cId = BUILD_UINT16(pBuf[0], pBuf[1]);
        LCALL   ?Subroutine14 & 0xFFFF
??CrossCallReturnLabel_91:
        MOV     ?V0,A
        CLR     A
        ADDC    A,R1
        MOV     ?V1,A
//  393   pBuf +=2;
        MOV     A,?V4
        ADD     A,#0x2
        MOV     ?V4,A
        JNC     ??MT_AfDataRequest_6
        INC     ?V5
//  394 
//  395   /* TransId */
//  396   transId = *pBuf++;
??MT_AfDataRequest_6:
        MOV     DPL,A
        MOV     DPH,?V5
        MOVX    A,@DPTR
        PUSH    A
          CFI CFA_SP SP+-1
        MOV     A,#0x1
        LCALL   ?XSTACK_DISP0_8
        POP     A
          CFI CFA_SP SP+0
        LCALL   ?Subroutine40 & 0xFFFF
//  397 
//  398   /* TxOption */
//  399   txOpts = *pBuf++;
??CrossCallReturnLabel_80:
        MOVX    A,@DPTR
        MOV     ?V3,A
        INC     DPTR
//  400 
//  401   /* Radius */
//  402   radius = *pBuf++;
        MOVX    A,@DPTR
        MOV     ?V2,A
        INC     DPTR
        MOV     ?V4,DPL
        MOV     ?V5,DPH
//  403 
//  404   /* Length */
//  405   if (cmd1 == MT_AF_DATA_REQUEST_EXT)
        MOV     A,#0x2
        XRL     A,?V7
        JNZ     ??MT_AfDataRequest_7
//  406   {
//  407     dataLen = BUILD_UINT16(pBuf[0], pBuf[1]);
        LCALL   ?Subroutine14 & 0xFFFF
??CrossCallReturnLabel_92:
        MOV     R6,A
        CLR     A
        ADDC    A,R1
        MOV     R7,A
//  408     tempLen = dataLen + MT_AF_REQ_MSG_LEN + MT_AF_REQ_MSG_EXT;
        MOV     A,R6
        ADD     A,#0x14
        MOV     R0,A
        CLR     A
        ADDC    A,R7
        MOV     R1,A
//  409     pBuf += 2;
        MOV     A,?V4
        ADD     A,#0x2
        MOV     ?V4,A
        JNC     ??MT_AfDataRequest_8
        INC     ?V5
        SJMP    ??MT_AfDataRequest_8
//  410   }
//  411   else
//  412   {
//  413     dataLen = *pBuf++;
??MT_AfDataRequest_7:
        MOVX    A,@DPTR
        MOV     R6,A
        MOV     R7,#0x0
        INC     DPTR
        MOV     ?V4,DPL
        MOV     ?V5,DPH
//  414     tempLen = dataLen + MT_AF_REQ_MSG_LEN;
        ADD     A,#0xa
        MOV     R0,A
        CLR     A
        ADDC    A,#0x0
        MOV     R1,A
//  415   }
//  416 
//  417   if ( epDesc == NULL )
??MT_AfDataRequest_8:
        MOV     A,?V8
        ORL     A,?V9
        JZ      ??MT_AfDataRequest_9
//  418   {
//  419     retValue = afStatus_INVALID_PARAMETER;
//  420   }
//  421   else if (tempLen > (uint16)MT_RPC_DATA_MAX)
        CLR     C
        MOV     A,R0
        SUBB    A,#-0x5
        MOV     A,R1
        SUBB    A,#0x0
        JNC     $+5
        LJMP    ??MT_AfDataRequest_10 & 0xFFFF
//  422   {
//  423     if (pMtAfDataReq != NULL)
        LCALL   ?Subroutine3 & 0xFFFF
??CrossCallReturnLabel_96:
        JZ      ??MT_AfDataRequest_11
//  424     {
//  425       retValue = afStatus_INVALID_PARAMETER;
??MT_AfDataRequest_9:
        MOV     DPL,?XSP + 0
        MOV     DPH,?XSP + 1
        MOV     A,#0x2
        LJMP    ??MT_AfDataRequest_12 & 0xFFFF
//  426     }
//  427     else if ((pMtAfDataReq = osal_mem_alloc(sizeof(mtAfDataReq_t) + dataLen)) == NULL)
??MT_AfDataRequest_11:
        ; Setup parameters for call to function osal_mem_alloc
        MOV     A,R6
        ADD     A,#0x18
        MOV     R2,A
        CLR     A
        ADDC    A,R7
        MOV     R3,A
        LCALL   ??osal_mem_alloc?relay; Banked call to: osal_mem_alloc
        MOV     DPTR,#pMtAfDataReq
        MOV     A,R2
        MOVX    @DPTR,A
        INC     DPTR
        MOV     A,R3
        MOVX    @DPTR,A
        LCALL   ?Subroutine3 & 0xFFFF
??CrossCallReturnLabel_97:
        MOV     DPL,?XSP + 0
        MOV     DPH,?XSP + 1
        JNZ     ??MT_AfDataRequest_13
//  428     {
//  429       retValue = afStatus_MEM_FAIL;
        MOV     A,#0x10
        LJMP    ??MT_AfDataRequest_12 & 0xFFFF
//  430     }
//  431     else
//  432     {
//  433       retValue = afStatus_SUCCESS;
??MT_AfDataRequest_13:
        CLR     A
        MOVX    @DPTR,A
//  434 
//  435       pMtAfDataReq->data = (uint8 *)(pMtAfDataReq+1);
        MOV     DPTR,#pMtAfDataReq
        MOVX    A,@DPTR
        ADD     A,#0x18
        MOV     R2,A
        INC     DPTR
        MOVX    A,@DPTR
        ADDC    A,#0x0
        MOV     R3,A
        LCALL   ?Subroutine9 & 0xFFFF
??CrossCallReturnLabel_11:
        MOV     A,R2
        MOVX    @DPTR,A
        INC     DPTR
        MOV     A,R3
        MOVX    @DPTR,A
//  436       (void)osal_memcpy(&(pMtAfDataReq->dstAddr), &dstAddr, sizeof(afAddrType_t));
        ; Setup parameters for call to function osal_memcpy
        MOV     A,#0x2
        LCALL   ?XSTACK_DISP100_8
        MOV     ?V4,R0
        MOV     ?V5,R1
        MOV     ?V6,#0x0
        MOV     R0,#?V4
        LCALL   ?PUSH_XSTACK_I_THREE
          CFI CFA_XSP16 add(XSP16, 39)
        MOV     R4,#0xc
        MOV     R5,#0x0
        LCALL   ?Subroutine18 & 0xFFFF
??CrossCallReturnLabel_27:
        LCALL   ??osal_memcpy?relay  ; Banked call to: osal_memcpy
        MOV     A,#0x3
        LCALL   ?DEALLOC_XSTACK8
          CFI CFA_XSP16 add(XSP16, 36)
//  437       pMtAfDataReq->epDesc = epDesc;
        LCALL   ?Subroutine10 & 0xFFFF
??CrossCallReturnLabel_14:
        MOV     A,?V8
        MOVX    @DPTR,A
        INC     DPTR
        MOV     A,?V9
        MOVX    @DPTR,A
//  438       pMtAfDataReq->cId = cId;
        LCALL   ?Subroutine11 & 0xFFFF
??CrossCallReturnLabel_16:
        MOV     A,?V0
        MOVX    @DPTR,A
        INC     DPTR
        MOV     A,?V1
        MOVX    @DPTR,A
//  439       pMtAfDataReq->dataLen = dataLen;
        LCALL   ?Subroutine12 & 0xFFFF
??CrossCallReturnLabel_18:
        MOV     A,R6
        MOVX    @DPTR,A
        INC     DPTR
        MOV     A,R7
        MOVX    @DPTR,A
//  440       pMtAfDataReq->transId = transId;
        MOV     A,#0x1
        LCALL   ?XSTACK_DISP0_8
        MOVX    A,@DPTR
        PUSH    A
          CFI CFA_SP SP+-1
        LCALL   ?Subroutine35 & 0xFFFF
??CrossCallReturnLabel_70:
        ADD     A,#0x14
        MOV     DPL,A
        CLR     A
        ADDC    A,R0
        MOV     DPH,A
        POP     A
          CFI CFA_SP SP+0
        MOVX    @DPTR,A
//  441       pMtAfDataReq->txOpts = txOpts;
        LCALL   ?Subroutine13 & 0xFFFF
??CrossCallReturnLabel_20:
        MOV     A,?V3
        MOVX    @DPTR,A
//  442       pMtAfDataReq->radius = radius;
        MOV     DPTR,#pMtAfDataReq
        MOVX    A,@DPTR
        MOV     R0,A
        INC     DPTR
        LCALL   ?Subroutine16 & 0xFFFF
??CrossCallReturnLabel_25:
        MOV     A,?V2
        LCALL   ?Subroutine8 & 0xFFFF
//  443 
//  444       // Setup to time-out the huge outgoing item if host does not MT_AF_DATA_STORE it.
//  445       pMtAfDataReq->tick = MT_AF_EXEC_CNT;
??CrossCallReturnLabel_9:
        MOV     A,#0xf
        MOVX    @DPTR,A
//  446       if (ZSuccess != osal_start_timerEx(MT_TaskID, MT_AF_EXEC_EVT, MT_AF_EXEC_DLY))
        ; Setup parameters for call to function osal_start_timerEx
        MOV     DPTR,#__Constant_3e8
        LCALL   ?PUSH_XSTACK8_X_FOUR
          CFI CFA_XSP16 add(XSP16, 40)
        MOV     R2,#0x8
        MOV     R3,#0x0
        MOV     DPTR,#MT_TaskID
        MOVX    A,@DPTR
        MOV     R1,A
        LCALL   ??osal_start_timerEx?relay; Banked call to: osal_start_timerEx
        MOV     A,#0x4
        LCALL   ?DEALLOC_XSTACK8
          CFI CFA_XSP16 add(XSP16, 36)
        MOV     A,R1
        JZ      ??MT_AfDataRequest_14
//  447       {
//  448         (void)osal_set_event(MT_TaskID, MT_AF_EXEC_EVT);
        ; Setup parameters for call to function osal_set_event
        MOV     R2,#0x8
        MOV     R3,#0x0
        MOV     DPTR,#MT_TaskID
        MOVX    A,@DPTR
        MOV     R1,A
        LCALL   ??osal_set_event?relay; Banked call to: osal_set_event
        SJMP    ??MT_AfDataRequest_14
//  449       }
//  450     }
//  451   }
//  452 #if defined ( MT_GP_FUNC )
//  453   else if ( ( cmd1 == MT_AF_DATA_REQUEST_EXT )
//  454            && ( dstAddr.endPoint == ZGP_ENDPOINT_ID )
//  455            && ( dstAddr.panId == 0 )
//  456            && ( dstAddr.addrMode == afAddr64Bit ) )// loopback support
//  457   {
//  458     retValue = MT_GpGenerateResponse( dstAddr.addr.extAddr, dataLen, pBuf );
//  459   }
//  460 #endif
//  461   else
//  462   {
//  463     retValue = AF_DataRequest(&dstAddr, epDesc, cId, dataLen, pBuf, &transId, txOpts, radius);
??MT_AfDataRequest_10:
        ; Setup parameters for call to function AF_DataRequest
        MOV     R0,#?V2
        LCALL   ?PUSH_XSTACK_I_ONE
          CFI CFA_XSP16 add(XSP16, 37)
        MOV     A,#0x2
        LCALL   ?XSTACK_DISP100_8
        MOV     ?V12,R0
        MOV     ?V13,R1
        MOV     R0,#?V12
        LCALL   ?PUSH_XSTACK_I_TWO
          CFI CFA_XSP16 add(XSP16, 39)
        MOV     R0,#?V4
        LCALL   ?PUSH_XSTACK_I_TWO
          CFI CFA_XSP16 add(XSP16, 41)
        MOV     ?V4,R6
        MOV     ?V5,R7
        MOV     R0,#?V4
        LCALL   ?PUSH_XSTACK_I_TWO
          CFI CFA_XSP16 add(XSP16, 43)
        MOV     R0,#?V0
        LCALL   ?PUSH_XSTACK_I_TWO
          CFI CFA_XSP16 add(XSP16, 45)
        MOV     R1,?V3
        MOV     R4,?V8
        MOV     R5,?V9
        MOV     A,#0xb
        LCALL   ?XSTACK_DISP101_8
        LCALL   ??AF_DataRequest?relay; Banked call to: AF_DataRequest
        MOV     A,#0x9
        LCALL   ?DEALLOC_XSTACK8
          CFI CFA_XSP16 add(XSP16, 36)
        MOV     A,R1
        MOV     DPL,?XSP + 0
        MOV     DPH,?XSP + 1
??MT_AfDataRequest_12:
        MOVX    @DPTR,A
//  464   }
//  465 
//  466   if (MT_RPC_CMD_SREQ == (cmd0 & MT_RPC_CMD_TYPE_MASK))
??MT_AfDataRequest_14:
        MOV     A,#-0x20
        ANL     A,?V10
        XRL     A,#0x20
        JNZ     ??MT_AfDataRequest_15
//  467   {
//  468     MT_BuildAndSendZToolResponse(((uint8)MT_RPC_CMD_SRSP|(uint8)MT_RPC_SYS_AF), cmd1, 1, &retValue);
        ; Setup parameters for call to function MT_BuildAndSendZToolResponse
        MOV     R4,?XSP + 0
        MOV     R5,?XSP + 1
        MOV     R3,#0x1
        MOV     R2,?V7
        MOV     R1,#0x64
        LCALL   ??MT_BuildAndSendZToolResponse?relay; Banked call to: MT_BuildAndSendZToolResponse
//  469   }
//  470 }
??MT_AfDataRequest_15:
        MOV     A,#0xe
        LCALL   ?DEALLOC_XSTACK8
          CFI CFA_XSP16 add(XSP16, 22)
        MOV     R7,#0xe
        LJMP    ?BANKED_LEAVE_XDATA
          CFI EndBlock cfiBlock9

        RSEG BANKED_CODE:CODE:NOROOT(0)
?Subroutine26:
          CFI Block cfiCond10 Using cfiCommon0
          CFI Function MT_AfDataRequest
          CFI Conditional ??CrossCallReturnLabel_38
          CFI R6 load(1, XDATA, add(CFA_XSP16, literal(-22)))
          CFI VB load(1, XDATA, add(CFA_XSP16, literal(-21)))
          CFI V0 load(1, XDATA, add(CFA_XSP16, literal(-20)))
          CFI V1 load(1, XDATA, add(CFA_XSP16, literal(-19)))
          CFI V2 load(1, XDATA, add(CFA_XSP16, literal(-18)))
          CFI V3 load(1, XDATA, add(CFA_XSP16, literal(-17)))
          CFI V4 load(1, XDATA, add(CFA_XSP16, literal(-16)))
          CFI V5 load(1, XDATA, add(CFA_XSP16, literal(-15)))
          CFI V6 load(1, XDATA, add(CFA_XSP16, literal(-14)))
          CFI V7 load(1, XDATA, add(CFA_XSP16, literal(-13)))
          CFI V8 load(1, XDATA, add(CFA_XSP16, literal(-12)))
          CFI V9 load(1, XDATA, add(CFA_XSP16, literal(-11)))
          CFI V10 load(1, XDATA, add(CFA_XSP16, literal(-10)))
          CFI V11 load(1, XDATA, add(CFA_XSP16, literal(-9)))
          CFI V12 load(1, XDATA, add(CFA_XSP16, literal(-8)))
          CFI V13 load(1, XDATA, add(CFA_XSP16, literal(-7)))
          CFI R7 load(1, XDATA, add(CFA_XSP16, literal(-6)))
          CFI ?RET_LOW load(1, XDATA, add(CFA_XSP16, literal(-5)))
          CFI ?RET_HIGH load(1, XDATA, add(CFA_XSP16, literal(-4)))
          CFI ?BRET_EXT load(1, XDATA, add(CFA_XSP16, literal(-3)))
          CFI DPL0 load(1, XDATA, add(CFA_XSP16, literal(-2)))
          CFI DPH0 load(1, XDATA, add(CFA_XSP16, literal(-1)))
          CFI CFA_SP SP+-2
          CFI CFA_XSP16 add(XSP16, 36)
          CFI Block cfiCond11 Using cfiCommon0
          CFI (cfiCond11) Function MT_AfDataRequest
          CFI (cfiCond11) Conditional ??CrossCallReturnLabel_39
          CFI (cfiCond11) R6 load(1, XDATA, add(CFA_XSP16, literal(-22)))
          CFI (cfiCond11) VB load(1, XDATA, add(CFA_XSP16, literal(-21)))
          CFI (cfiCond11) V0 load(1, XDATA, add(CFA_XSP16, literal(-20)))
          CFI (cfiCond11) V1 load(1, XDATA, add(CFA_XSP16, literal(-19)))
          CFI (cfiCond11) V2 load(1, XDATA, add(CFA_XSP16, literal(-18)))
          CFI (cfiCond11) V3 load(1, XDATA, add(CFA_XSP16, literal(-17)))
          CFI (cfiCond11) V4 load(1, XDATA, add(CFA_XSP16, literal(-16)))
          CFI (cfiCond11) V5 load(1, XDATA, add(CFA_XSP16, literal(-15)))
          CFI (cfiCond11) V6 load(1, XDATA, add(CFA_XSP16, literal(-14)))
          CFI (cfiCond11) V7 load(1, XDATA, add(CFA_XSP16, literal(-13)))
          CFI (cfiCond11) V8 load(1, XDATA, add(CFA_XSP16, literal(-12)))
          CFI (cfiCond11) V9 load(1, XDATA, add(CFA_XSP16, literal(-11)))
          CFI (cfiCond11) V10 load(1, XDATA, add(CFA_XSP16, literal(-10)))
          CFI (cfiCond11) V11 load(1, XDATA, add(CFA_XSP16, literal(-9)))
          CFI (cfiCond11) V12 load(1, XDATA, add(CFA_XSP16, literal(-8)))
          CFI (cfiCond11) V13 load(1, XDATA, add(CFA_XSP16, literal(-7)))
          CFI (cfiCond11) R7 load(1, XDATA, add(CFA_XSP16, literal(-6)))
          CFI (cfiCond11) ?RET_LOW load(1, XDATA, add(CFA_XSP16, literal(-5)))
          CFI (cfiCond11) ?RET_HIGH load(1, XDATA, add(CFA_XSP16, literal(-4)))
          CFI (cfiCond11) ?BRET_EXT load(1, XDATA, add(CFA_XSP16, literal(-3)))
          CFI (cfiCond11) DPL0 load(1, XDATA, add(CFA_XSP16, literal(-2)))
          CFI (cfiCond11) DPH0 load(1, XDATA, add(CFA_XSP16, literal(-1)))
          CFI (cfiCond11) CFA_SP SP+-2
          CFI (cfiCond11) CFA_XSP16 add(XSP16, 36)
          CFI Block cfiPicker12 Using cfiCommon1
          CFI (cfiPicker12) NoFunction
          CFI (cfiPicker12) Picker
        MOV     A,R0
        MOVX    @DPTR,A
        INC     DPTR
        MOV     A,R1
        MOVX    @DPTR,A
        MOV     A,?V4
        ADD     A,#0x2
        MOV     ?V4,A
        RET
          CFI EndBlock cfiCond10
          CFI EndBlock cfiCond11
          CFI EndBlock cfiPicker12

        RSEG BANKED_CODE:CODE:NOROOT(0)
?Subroutine24:
          CFI Block cfiCond13 Using cfiCommon0
          CFI Function MT_AfDataRequest
          CFI Conditional ??CrossCallReturnLabel_35
          CFI R6 load(1, XDATA, add(CFA_XSP16, literal(-22)))
          CFI VB load(1, XDATA, add(CFA_XSP16, literal(-21)))
          CFI V0 load(1, XDATA, add(CFA_XSP16, literal(-20)))
          CFI V1 load(1, XDATA, add(CFA_XSP16, literal(-19)))
          CFI V2 load(1, XDATA, add(CFA_XSP16, literal(-18)))
          CFI V3 load(1, XDATA, add(CFA_XSP16, literal(-17)))
          CFI V4 load(1, XDATA, add(CFA_XSP16, literal(-16)))
          CFI V5 load(1, XDATA, add(CFA_XSP16, literal(-15)))
          CFI V6 load(1, XDATA, add(CFA_XSP16, literal(-14)))
          CFI V7 load(1, XDATA, add(CFA_XSP16, literal(-13)))
          CFI V8 load(1, XDATA, add(CFA_XSP16, literal(-12)))
          CFI V9 load(1, XDATA, add(CFA_XSP16, literal(-11)))
          CFI V10 load(1, XDATA, add(CFA_XSP16, literal(-10)))
          CFI V11 load(1, XDATA, add(CFA_XSP16, literal(-9)))
          CFI V12 load(1, XDATA, add(CFA_XSP16, literal(-8)))
          CFI V13 load(1, XDATA, add(CFA_XSP16, literal(-7)))
          CFI R7 load(1, XDATA, add(CFA_XSP16, literal(-6)))
          CFI ?RET_LOW load(1, XDATA, add(CFA_XSP16, literal(-5)))
          CFI ?RET_HIGH load(1, XDATA, add(CFA_XSP16, literal(-4)))
          CFI ?BRET_EXT load(1, XDATA, add(CFA_XSP16, literal(-3)))
          CFI DPL0 load(1, XDATA, add(CFA_XSP16, literal(-2)))
          CFI DPH0 load(1, XDATA, add(CFA_XSP16, literal(-1)))
          CFI CFA_SP SP+-2
          CFI CFA_XSP16 add(XSP16, 36)
          CFI Block cfiCond14 Using cfiCommon0
          CFI (cfiCond14) Function MT_AfDataRequest
          CFI (cfiCond14) Conditional ??CrossCallReturnLabel_36
          CFI (cfiCond14) R6 load(1, XDATA, add(CFA_XSP16, literal(-22)))
          CFI (cfiCond14) VB load(1, XDATA, add(CFA_XSP16, literal(-21)))
          CFI (cfiCond14) V0 load(1, XDATA, add(CFA_XSP16, literal(-20)))
          CFI (cfiCond14) V1 load(1, XDATA, add(CFA_XSP16, literal(-19)))
          CFI (cfiCond14) V2 load(1, XDATA, add(CFA_XSP16, literal(-18)))
          CFI (cfiCond14) V3 load(1, XDATA, add(CFA_XSP16, literal(-17)))
          CFI (cfiCond14) V4 load(1, XDATA, add(CFA_XSP16, literal(-16)))
          CFI (cfiCond14) V5 load(1, XDATA, add(CFA_XSP16, literal(-15)))
          CFI (cfiCond14) V6 load(1, XDATA, add(CFA_XSP16, literal(-14)))
          CFI (cfiCond14) V7 load(1, XDATA, add(CFA_XSP16, literal(-13)))
          CFI (cfiCond14) V8 load(1, XDATA, add(CFA_XSP16, literal(-12)))
          CFI (cfiCond14) V9 load(1, XDATA, add(CFA_XSP16, literal(-11)))
          CFI (cfiCond14) V10 load(1, XDATA, add(CFA_XSP16, literal(-10)))
          CFI (cfiCond14) V11 load(1, XDATA, add(CFA_XSP16, literal(-9)))
          CFI (cfiCond14) V12 load(1, XDATA, add(CFA_XSP16, literal(-8)))
          CFI (cfiCond14) V13 load(1, XDATA, add(CFA_XSP16, literal(-7)))
          CFI (cfiCond14) R7 load(1, XDATA, add(CFA_XSP16, literal(-6)))
          CFI (cfiCond14) ?RET_LOW load(1, XDATA, add(CFA_XSP16, literal(-5)))
          CFI (cfiCond14) ?RET_HIGH load(1, XDATA, add(CFA_XSP16, literal(-4)))
          CFI (cfiCond14) ?BRET_EXT load(1, XDATA, add(CFA_XSP16, literal(-3)))
          CFI (cfiCond14) DPL0 load(1, XDATA, add(CFA_XSP16, literal(-2)))
          CFI (cfiCond14) DPH0 load(1, XDATA, add(CFA_XSP16, literal(-1)))
          CFI (cfiCond14) CFA_SP SP+-2
          CFI (cfiCond14) CFA_XSP16 add(XSP16, 36)
          CFI Block cfiCond15 Using cfiCommon0
          CFI (cfiCond15) Function MT_AfDataRequest
          CFI (cfiCond15) Conditional ??CrossCallReturnLabel_37
          CFI (cfiCond15) R6 load(1, XDATA, add(CFA_XSP16, literal(-22)))
          CFI (cfiCond15) VB load(1, XDATA, add(CFA_XSP16, literal(-21)))
          CFI (cfiCond15) V0 load(1, XDATA, add(CFA_XSP16, literal(-20)))
          CFI (cfiCond15) V1 load(1, XDATA, add(CFA_XSP16, literal(-19)))
          CFI (cfiCond15) V2 load(1, XDATA, add(CFA_XSP16, literal(-18)))
          CFI (cfiCond15) V3 load(1, XDATA, add(CFA_XSP16, literal(-17)))
          CFI (cfiCond15) V4 load(1, XDATA, add(CFA_XSP16, literal(-16)))
          CFI (cfiCond15) V5 load(1, XDATA, add(CFA_XSP16, literal(-15)))
          CFI (cfiCond15) V6 load(1, XDATA, add(CFA_XSP16, literal(-14)))
          CFI (cfiCond15) V7 load(1, XDATA, add(CFA_XSP16, literal(-13)))
          CFI (cfiCond15) V8 load(1, XDATA, add(CFA_XSP16, literal(-12)))
          CFI (cfiCond15) V9 load(1, XDATA, add(CFA_XSP16, literal(-11)))
          CFI (cfiCond15) V10 load(1, XDATA, add(CFA_XSP16, literal(-10)))
          CFI (cfiCond15) V11 load(1, XDATA, add(CFA_XSP16, literal(-9)))
          CFI (cfiCond15) V12 load(1, XDATA, add(CFA_XSP16, literal(-8)))
          CFI (cfiCond15) V13 load(1, XDATA, add(CFA_XSP16, literal(-7)))
          CFI (cfiCond15) R7 load(1, XDATA, add(CFA_XSP16, literal(-6)))
          CFI (cfiCond15) ?RET_LOW load(1, XDATA, add(CFA_XSP16, literal(-5)))
          CFI (cfiCond15) ?RET_HIGH load(1, XDATA, add(CFA_XSP16, literal(-4)))
          CFI (cfiCond15) ?BRET_EXT load(1, XDATA, add(CFA_XSP16, literal(-3)))
          CFI (cfiCond15) DPL0 load(1, XDATA, add(CFA_XSP16, literal(-2)))
          CFI (cfiCond15) DPH0 load(1, XDATA, add(CFA_XSP16, literal(-1)))
          CFI (cfiCond15) CFA_SP SP+-2
          CFI (cfiCond15) CFA_XSP16 add(XSP16, 36)
          CFI Block cfiPicker16 Using cfiCommon1
          CFI (cfiPicker16) NoFunction
          CFI (cfiPicker16) Picker
        LCALL   ?Subroutine40 & 0xFFFF
??CrossCallReturnLabel_81:
        MOV     ?V4,DPL
        MOV     ?V5,DPH
        RET
          CFI EndBlock cfiCond13
          CFI EndBlock cfiCond14
          CFI EndBlock cfiCond15
          CFI EndBlock cfiPicker16

        RSEG BANKED_CODE:CODE:NOROOT(0)
?Subroutine40:
          CFI Block cfiCond17 Using cfiCommon0
          CFI Function MT_AfDataRequest
          CFI Conditional ??CrossCallReturnLabel_80
          CFI R6 load(1, XDATA, add(CFA_XSP16, literal(-22)))
          CFI VB load(1, XDATA, add(CFA_XSP16, literal(-21)))
          CFI V0 load(1, XDATA, add(CFA_XSP16, literal(-20)))
          CFI V1 load(1, XDATA, add(CFA_XSP16, literal(-19)))
          CFI V2 load(1, XDATA, add(CFA_XSP16, literal(-18)))
          CFI V3 load(1, XDATA, add(CFA_XSP16, literal(-17)))
          CFI V4 load(1, XDATA, add(CFA_XSP16, literal(-16)))
          CFI V5 load(1, XDATA, add(CFA_XSP16, literal(-15)))
          CFI V6 load(1, XDATA, add(CFA_XSP16, literal(-14)))
          CFI V7 load(1, XDATA, add(CFA_XSP16, literal(-13)))
          CFI V8 load(1, XDATA, add(CFA_XSP16, literal(-12)))
          CFI V9 load(1, XDATA, add(CFA_XSP16, literal(-11)))
          CFI V10 load(1, XDATA, add(CFA_XSP16, literal(-10)))
          CFI V11 load(1, XDATA, add(CFA_XSP16, literal(-9)))
          CFI V12 load(1, XDATA, add(CFA_XSP16, literal(-8)))
          CFI V13 load(1, XDATA, add(CFA_XSP16, literal(-7)))
          CFI R7 load(1, XDATA, add(CFA_XSP16, literal(-6)))
          CFI ?RET_LOW load(1, XDATA, add(CFA_XSP16, literal(-5)))
          CFI ?RET_HIGH load(1, XDATA, add(CFA_XSP16, literal(-4)))
          CFI ?BRET_EXT load(1, XDATA, add(CFA_XSP16, literal(-3)))
          CFI DPL0 load(1, XDATA, add(CFA_XSP16, literal(-2)))
          CFI DPH0 load(1, XDATA, add(CFA_XSP16, literal(-1)))
          CFI CFA_SP SP+-2
          CFI CFA_XSP16 add(XSP16, 36)
          CFI Block cfiCond18 Using cfiCommon0
          CFI (cfiCond18) Function MT_AfDataRequest
          CFI (cfiCond18) Conditional ??CrossCallReturnLabel_81, ??CrossCallReturnLabel_35
          CFI (cfiCond18) R6 load(1, XDATA, add(CFA_XSP16, literal(-22)))
          CFI (cfiCond18) VB load(1, XDATA, add(CFA_XSP16, literal(-21)))
          CFI (cfiCond18) V0 load(1, XDATA, add(CFA_XSP16, literal(-20)))
          CFI (cfiCond18) V1 load(1, XDATA, add(CFA_XSP16, literal(-19)))
          CFI (cfiCond18) V2 load(1, XDATA, add(CFA_XSP16, literal(-18)))
          CFI (cfiCond18) V3 load(1, XDATA, add(CFA_XSP16, literal(-17)))
          CFI (cfiCond18) V4 load(1, XDATA, add(CFA_XSP16, literal(-16)))
          CFI (cfiCond18) V5 load(1, XDATA, add(CFA_XSP16, literal(-15)))
          CFI (cfiCond18) V6 load(1, XDATA, add(CFA_XSP16, literal(-14)))
          CFI (cfiCond18) V7 load(1, XDATA, add(CFA_XSP16, literal(-13)))
          CFI (cfiCond18) V8 load(1, XDATA, add(CFA_XSP16, literal(-12)))
          CFI (cfiCond18) V9 load(1, XDATA, add(CFA_XSP16, literal(-11)))
          CFI (cfiCond18) V10 load(1, XDATA, add(CFA_XSP16, literal(-10)))
          CFI (cfiCond18) V11 load(1, XDATA, add(CFA_XSP16, literal(-9)))
          CFI (cfiCond18) V12 load(1, XDATA, add(CFA_XSP16, literal(-8)))
          CFI (cfiCond18) V13 load(1, XDATA, add(CFA_XSP16, literal(-7)))
          CFI (cfiCond18) R7 load(1, XDATA, add(CFA_XSP16, literal(-6)))
          CFI (cfiCond18) ?RET_LOW load(1, XDATA, add(CFA_XSP16, literal(-5)))
          CFI (cfiCond18) ?RET_HIGH load(1, XDATA, add(CFA_XSP16, literal(-4)))
          CFI (cfiCond18) ?BRET_EXT load(1, XDATA, add(CFA_XSP16, literal(-3)))
          CFI (cfiCond18) DPL0 load(1, XDATA, add(CFA_XSP16, literal(-2)))
          CFI (cfiCond18) DPH0 load(1, XDATA, add(CFA_XSP16, literal(-1)))
          CFI (cfiCond18) CFA_SP SP+-4
          CFI (cfiCond18) CFA_XSP16 add(XSP16, 36)
          CFI Block cfiCond19 Using cfiCommon0
          CFI (cfiCond19) Function MT_AfDataRequest
          CFI (cfiCond19) Conditional ??CrossCallReturnLabel_81, ??CrossCallReturnLabel_36
          CFI (cfiCond19) R6 load(1, XDATA, add(CFA_XSP16, literal(-22)))
          CFI (cfiCond19) VB load(1, XDATA, add(CFA_XSP16, literal(-21)))
          CFI (cfiCond19) V0 load(1, XDATA, add(CFA_XSP16, literal(-20)))
          CFI (cfiCond19) V1 load(1, XDATA, add(CFA_XSP16, literal(-19)))
          CFI (cfiCond19) V2 load(1, XDATA, add(CFA_XSP16, literal(-18)))
          CFI (cfiCond19) V3 load(1, XDATA, add(CFA_XSP16, literal(-17)))
          CFI (cfiCond19) V4 load(1, XDATA, add(CFA_XSP16, literal(-16)))
          CFI (cfiCond19) V5 load(1, XDATA, add(CFA_XSP16, literal(-15)))
          CFI (cfiCond19) V6 load(1, XDATA, add(CFA_XSP16, literal(-14)))
          CFI (cfiCond19) V7 load(1, XDATA, add(CFA_XSP16, literal(-13)))
          CFI (cfiCond19) V8 load(1, XDATA, add(CFA_XSP16, literal(-12)))
          CFI (cfiCond19) V9 load(1, XDATA, add(CFA_XSP16, literal(-11)))
          CFI (cfiCond19) V10 load(1, XDATA, add(CFA_XSP16, literal(-10)))
          CFI (cfiCond19) V11 load(1, XDATA, add(CFA_XSP16, literal(-9)))
          CFI (cfiCond19) V12 load(1, XDATA, add(CFA_XSP16, literal(-8)))
          CFI (cfiCond19) V13 load(1, XDATA, add(CFA_XSP16, literal(-7)))
          CFI (cfiCond19) R7 load(1, XDATA, add(CFA_XSP16, literal(-6)))
          CFI (cfiCond19) ?RET_LOW load(1, XDATA, add(CFA_XSP16, literal(-5)))
          CFI (cfiCond19) ?RET_HIGH load(1, XDATA, add(CFA_XSP16, literal(-4)))
          CFI (cfiCond19) ?BRET_EXT load(1, XDATA, add(CFA_XSP16, literal(-3)))
          CFI (cfiCond19) DPL0 load(1, XDATA, add(CFA_XSP16, literal(-2)))
          CFI (cfiCond19) DPH0 load(1, XDATA, add(CFA_XSP16, literal(-1)))
          CFI (cfiCond19) CFA_SP SP+-4
          CFI (cfiCond19) CFA_XSP16 add(XSP16, 36)
          CFI Block cfiCond20 Using cfiCommon0
          CFI (cfiCond20) Function MT_AfDataRequest
          CFI (cfiCond20) Conditional ??CrossCallReturnLabel_81, ??CrossCallReturnLabel_37
          CFI (cfiCond20) R6 load(1, XDATA, add(CFA_XSP16, literal(-22)))
          CFI (cfiCond20) VB load(1, XDATA, add(CFA_XSP16, literal(-21)))
          CFI (cfiCond20) V0 load(1, XDATA, add(CFA_XSP16, literal(-20)))
          CFI (cfiCond20) V1 load(1, XDATA, add(CFA_XSP16, literal(-19)))
          CFI (cfiCond20) V2 load(1, XDATA, add(CFA_XSP16, literal(-18)))
          CFI (cfiCond20) V3 load(1, XDATA, add(CFA_XSP16, literal(-17)))
          CFI (cfiCond20) V4 load(1, XDATA, add(CFA_XSP16, literal(-16)))
          CFI (cfiCond20) V5 load(1, XDATA, add(CFA_XSP16, literal(-15)))
          CFI (cfiCond20) V6 load(1, XDATA, add(CFA_XSP16, literal(-14)))
          CFI (cfiCond20) V7 load(1, XDATA, add(CFA_XSP16, literal(-13)))
          CFI (cfiCond20) V8 load(1, XDATA, add(CFA_XSP16, literal(-12)))
          CFI (cfiCond20) V9 load(1, XDATA, add(CFA_XSP16, literal(-11)))
          CFI (cfiCond20) V10 load(1, XDATA, add(CFA_XSP16, literal(-10)))
          CFI (cfiCond20) V11 load(1, XDATA, add(CFA_XSP16, literal(-9)))
          CFI (cfiCond20) V12 load(1, XDATA, add(CFA_XSP16, literal(-8)))
          CFI (cfiCond20) V13 load(1, XDATA, add(CFA_XSP16, literal(-7)))
          CFI (cfiCond20) R7 load(1, XDATA, add(CFA_XSP16, literal(-6)))
          CFI (cfiCond20) ?RET_LOW load(1, XDATA, add(CFA_XSP16, literal(-5)))
          CFI (cfiCond20) ?RET_HIGH load(1, XDATA, add(CFA_XSP16, literal(-4)))
          CFI (cfiCond20) ?BRET_EXT load(1, XDATA, add(CFA_XSP16, literal(-3)))
          CFI (cfiCond20) DPL0 load(1, XDATA, add(CFA_XSP16, literal(-2)))
          CFI (cfiCond20) DPH0 load(1, XDATA, add(CFA_XSP16, literal(-1)))
          CFI (cfiCond20) CFA_SP SP+-4
          CFI (cfiCond20) CFA_XSP16 add(XSP16, 36)
          CFI Block cfiPicker21 Using cfiCommon1
          CFI (cfiPicker21) NoFunction
          CFI (cfiPicker21) Picker
        MOVX    @DPTR,A
        MOV     DPL,?V4
        MOV     DPH,?V5
        INC     DPTR
        RET
          CFI EndBlock cfiCond17
          CFI EndBlock cfiCond18
          CFI EndBlock cfiCond19
          CFI EndBlock cfiCond20
          CFI EndBlock cfiPicker21

        RSEG BANKED_CODE:CODE:NOROOT(0)
?Subroutine14:
          CFI Block cfiCond22 Using cfiCommon0
          CFI Function MT_AfDataRequest
          CFI Conditional ??CrossCallReturnLabel_91
          CFI R6 load(1, XDATA, add(CFA_XSP16, literal(-22)))
          CFI VB load(1, XDATA, add(CFA_XSP16, literal(-21)))
          CFI V0 load(1, XDATA, add(CFA_XSP16, literal(-20)))
          CFI V1 load(1, XDATA, add(CFA_XSP16, literal(-19)))
          CFI V2 load(1, XDATA, add(CFA_XSP16, literal(-18)))
          CFI V3 load(1, XDATA, add(CFA_XSP16, literal(-17)))
          CFI V4 load(1, XDATA, add(CFA_XSP16, literal(-16)))
          CFI V5 load(1, XDATA, add(CFA_XSP16, literal(-15)))
          CFI V6 load(1, XDATA, add(CFA_XSP16, literal(-14)))
          CFI V7 load(1, XDATA, add(CFA_XSP16, literal(-13)))
          CFI V8 load(1, XDATA, add(CFA_XSP16, literal(-12)))
          CFI V9 load(1, XDATA, add(CFA_XSP16, literal(-11)))
          CFI V10 load(1, XDATA, add(CFA_XSP16, literal(-10)))
          CFI V11 load(1, XDATA, add(CFA_XSP16, literal(-9)))
          CFI V12 load(1, XDATA, add(CFA_XSP16, literal(-8)))
          CFI V13 load(1, XDATA, add(CFA_XSP16, literal(-7)))
          CFI R7 load(1, XDATA, add(CFA_XSP16, literal(-6)))
          CFI ?RET_LOW load(1, XDATA, add(CFA_XSP16, literal(-5)))
          CFI ?RET_HIGH load(1, XDATA, add(CFA_XSP16, literal(-4)))
          CFI ?BRET_EXT load(1, XDATA, add(CFA_XSP16, literal(-3)))
          CFI DPL0 load(1, XDATA, add(CFA_XSP16, literal(-2)))
          CFI DPH0 load(1, XDATA, add(CFA_XSP16, literal(-1)))
          CFI CFA_SP SP+-2
          CFI CFA_XSP16 add(XSP16, 36)
          CFI Block cfiCond23 Using cfiCommon0
          CFI (cfiCond23) Function MT_AfDataRequest
          CFI (cfiCond23) Conditional ??CrossCallReturnLabel_92
          CFI (cfiCond23) R6 load(1, XDATA, add(CFA_XSP16, literal(-22)))
          CFI (cfiCond23) VB load(1, XDATA, add(CFA_XSP16, literal(-21)))
          CFI (cfiCond23) V0 load(1, XDATA, add(CFA_XSP16, literal(-20)))
          CFI (cfiCond23) V1 load(1, XDATA, add(CFA_XSP16, literal(-19)))
          CFI (cfiCond23) V2 load(1, XDATA, add(CFA_XSP16, literal(-18)))
          CFI (cfiCond23) V3 load(1, XDATA, add(CFA_XSP16, literal(-17)))
          CFI (cfiCond23) V4 load(1, XDATA, add(CFA_XSP16, literal(-16)))
          CFI (cfiCond23) V5 load(1, XDATA, add(CFA_XSP16, literal(-15)))
          CFI (cfiCond23) V6 load(1, XDATA, add(CFA_XSP16, literal(-14)))
          CFI (cfiCond23) V7 load(1, XDATA, add(CFA_XSP16, literal(-13)))
          CFI (cfiCond23) V8 load(1, XDATA, add(CFA_XSP16, literal(-12)))
          CFI (cfiCond23) V9 load(1, XDATA, add(CFA_XSP16, literal(-11)))
          CFI (cfiCond23) V10 load(1, XDATA, add(CFA_XSP16, literal(-10)))
          CFI (cfiCond23) V11 load(1, XDATA, add(CFA_XSP16, literal(-9)))
          CFI (cfiCond23) V12 load(1, XDATA, add(CFA_XSP16, literal(-8)))
          CFI (cfiCond23) V13 load(1, XDATA, add(CFA_XSP16, literal(-7)))
          CFI (cfiCond23) R7 load(1, XDATA, add(CFA_XSP16, literal(-6)))
          CFI (cfiCond23) ?RET_LOW load(1, XDATA, add(CFA_XSP16, literal(-5)))
          CFI (cfiCond23) ?RET_HIGH load(1, XDATA, add(CFA_XSP16, literal(-4)))
          CFI (cfiCond23) ?BRET_EXT load(1, XDATA, add(CFA_XSP16, literal(-3)))
          CFI (cfiCond23) DPL0 load(1, XDATA, add(CFA_XSP16, literal(-2)))
          CFI (cfiCond23) DPH0 load(1, XDATA, add(CFA_XSP16, literal(-1)))
          CFI (cfiCond23) CFA_SP SP+-2
          CFI (cfiCond23) CFA_XSP16 add(XSP16, 36)
          CFI Block cfiPicker24 Using cfiCommon1
          CFI (cfiPicker24) NoFunction
          CFI (cfiPicker24) Picker
        MOVX    A,@DPTR
          CFI EndBlock cfiCond22
          CFI EndBlock cfiCond23
          CFI EndBlock cfiPicker24
        REQUIRE ??Subroutine46_0
        ; // Fall through to label ??Subroutine46_0

        RSEG BANKED_CODE:CODE:NOROOT(0)
??Subroutine46_0:
          CFI Block cfiCond25 Using cfiCommon0
          CFI Function MT_AfDataRequestSrcRtg
          CFI Conditional ??CrossCallReturnLabel_90
          CFI R6 load(1, XDATA, add(CFA_XSP16, literal(-20)))
          CFI VB load(1, XDATA, add(CFA_XSP16, literal(-19)))
          CFI V0 load(1, XDATA, add(CFA_XSP16, literal(-18)))
          CFI V1 load(1, XDATA, add(CFA_XSP16, literal(-17)))
          CFI V2 load(1, XDATA, add(CFA_XSP16, literal(-16)))
          CFI V3 load(1, XDATA, add(CFA_XSP16, literal(-15)))
          CFI V4 load(1, XDATA, add(CFA_XSP16, literal(-14)))
          CFI V5 load(1, XDATA, add(CFA_XSP16, literal(-13)))
          CFI V6 load(1, XDATA, add(CFA_XSP16, literal(-12)))
          CFI V7 load(1, XDATA, add(CFA_XSP16, literal(-11)))
          CFI V8 load(1, XDATA, add(CFA_XSP16, literal(-10)))
          CFI V9 load(1, XDATA, add(CFA_XSP16, literal(-9)))
          CFI V10 load(1, XDATA, add(CFA_XSP16, literal(-8)))
          CFI V11 load(1, XDATA, add(CFA_XSP16, literal(-7)))
          CFI R7 load(1, XDATA, add(CFA_XSP16, literal(-6)))
          CFI ?RET_LOW load(1, XDATA, add(CFA_XSP16, literal(-5)))
          CFI ?RET_HIGH load(1, XDATA, add(CFA_XSP16, literal(-4)))
          CFI ?BRET_EXT load(1, XDATA, add(CFA_XSP16, literal(-3)))
          CFI DPL0 load(1, XDATA, add(CFA_XSP16, literal(-2)))
          CFI DPH0 load(1, XDATA, add(CFA_XSP16, literal(-1)))
          CFI CFA_SP SP+-2
          CFI CFA_XSP16 add(XSP16, 34)
          CFI Block cfiCond26 Using cfiCommon0
          CFI (cfiCond26) Function MT_AfDataRequest
          CFI (cfiCond26) Conditional ??CrossCallReturnLabel_91
          CFI (cfiCond26) R6 load(1, XDATA, add(CFA_XSP16, literal(-22)))
          CFI (cfiCond26) VB load(1, XDATA, add(CFA_XSP16, literal(-21)))
          CFI (cfiCond26) V0 load(1, XDATA, add(CFA_XSP16, literal(-20)))
          CFI (cfiCond26) V1 load(1, XDATA, add(CFA_XSP16, literal(-19)))
          CFI (cfiCond26) V2 load(1, XDATA, add(CFA_XSP16, literal(-18)))
          CFI (cfiCond26) V3 load(1, XDATA, add(CFA_XSP16, literal(-17)))
          CFI (cfiCond26) V4 load(1, XDATA, add(CFA_XSP16, literal(-16)))
          CFI (cfiCond26) V5 load(1, XDATA, add(CFA_XSP16, literal(-15)))
          CFI (cfiCond26) V6 load(1, XDATA, add(CFA_XSP16, literal(-14)))
          CFI (cfiCond26) V7 load(1, XDATA, add(CFA_XSP16, literal(-13)))
          CFI (cfiCond26) V8 load(1, XDATA, add(CFA_XSP16, literal(-12)))
          CFI (cfiCond26) V9 load(1, XDATA, add(CFA_XSP16, literal(-11)))
          CFI (cfiCond26) V10 load(1, XDATA, add(CFA_XSP16, literal(-10)))
          CFI (cfiCond26) V11 load(1, XDATA, add(CFA_XSP16, literal(-9)))
          CFI (cfiCond26) V12 load(1, XDATA, add(CFA_XSP16, literal(-8)))
          CFI (cfiCond26) V13 load(1, XDATA, add(CFA_XSP16, literal(-7)))
          CFI (cfiCond26) R7 load(1, XDATA, add(CFA_XSP16, literal(-6)))
          CFI (cfiCond26) ?RET_LOW load(1, XDATA, add(CFA_XSP16, literal(-5)))
          CFI (cfiCond26) ?RET_HIGH load(1, XDATA, add(CFA_XSP16, literal(-4)))
          CFI (cfiCond26) ?BRET_EXT load(1, XDATA, add(CFA_XSP16, literal(-3)))
          CFI (cfiCond26) DPL0 load(1, XDATA, add(CFA_XSP16, literal(-2)))
          CFI (cfiCond26) DPH0 load(1, XDATA, add(CFA_XSP16, literal(-1)))
          CFI (cfiCond26) CFA_SP SP+-2
          CFI (cfiCond26) CFA_XSP16 add(XSP16, 36)
          CFI Block cfiCond27 Using cfiCommon0
          CFI (cfiCond27) Function MT_AfDataRequest
          CFI (cfiCond27) Conditional ??CrossCallReturnLabel_92
          CFI (cfiCond27) R6 load(1, XDATA, add(CFA_XSP16, literal(-22)))
          CFI (cfiCond27) VB load(1, XDATA, add(CFA_XSP16, literal(-21)))
          CFI (cfiCond27) V0 load(1, XDATA, add(CFA_XSP16, literal(-20)))
          CFI (cfiCond27) V1 load(1, XDATA, add(CFA_XSP16, literal(-19)))
          CFI (cfiCond27) V2 load(1, XDATA, add(CFA_XSP16, literal(-18)))
          CFI (cfiCond27) V3 load(1, XDATA, add(CFA_XSP16, literal(-17)))
          CFI (cfiCond27) V4 load(1, XDATA, add(CFA_XSP16, literal(-16)))
          CFI (cfiCond27) V5 load(1, XDATA, add(CFA_XSP16, literal(-15)))
          CFI (cfiCond27) V6 load(1, XDATA, add(CFA_XSP16, literal(-14)))
          CFI (cfiCond27) V7 load(1, XDATA, add(CFA_XSP16, literal(-13)))
          CFI (cfiCond27) V8 load(1, XDATA, add(CFA_XSP16, literal(-12)))
          CFI (cfiCond27) V9 load(1, XDATA, add(CFA_XSP16, literal(-11)))
          CFI (cfiCond27) V10 load(1, XDATA, add(CFA_XSP16, literal(-10)))
          CFI (cfiCond27) V11 load(1, XDATA, add(CFA_XSP16, literal(-9)))
          CFI (cfiCond27) V12 load(1, XDATA, add(CFA_XSP16, literal(-8)))
          CFI (cfiCond27) V13 load(1, XDATA, add(CFA_XSP16, literal(-7)))
          CFI (cfiCond27) R7 load(1, XDATA, add(CFA_XSP16, literal(-6)))
          CFI (cfiCond27) ?RET_LOW load(1, XDATA, add(CFA_XSP16, literal(-5)))
          CFI (cfiCond27) ?RET_HIGH load(1, XDATA, add(CFA_XSP16, literal(-4)))
          CFI (cfiCond27) ?BRET_EXT load(1, XDATA, add(CFA_XSP16, literal(-3)))
          CFI (cfiCond27) DPL0 load(1, XDATA, add(CFA_XSP16, literal(-2)))
          CFI (cfiCond27) DPH0 load(1, XDATA, add(CFA_XSP16, literal(-1)))
          CFI (cfiCond27) CFA_SP SP+-2
          CFI (cfiCond27) CFA_XSP16 add(XSP16, 36)
          CFI Block cfiPicker28 Using cfiCommon1
          CFI (cfiPicker28) NoFunction
          CFI (cfiPicker28) Picker
        MOV     R2,A
        INC     DPTR
        MOVX    A,@DPTR
        MOV     R0,A
        CLR     A
        XCH     A,R0
        MOV     R1,A
        MOV     A,R2
        ADD     A,R0
        RET
          CFI EndBlock cfiCond25
          CFI EndBlock cfiCond26
          CFI EndBlock cfiCond27
          CFI EndBlock cfiPicker28

        RSEG BANKED_CODE:CODE:NOROOT(0)
?Subroutine8:
          CFI Block cfiCond29 Using cfiCommon0
          CFI Function MT_AfExec
          CFI Conditional ??CrossCallReturnLabel_10
          CFI R6 load(1, XDATA, add(CFA_XSP16, literal(-9)))
          CFI VB load(1, XDATA, add(CFA_XSP16, literal(-8)))
          CFI V0 load(1, XDATA, add(CFA_XSP16, literal(-7)))
          CFI R7 load(1, XDATA, add(CFA_XSP16, literal(-6)))
          CFI ?RET_LOW load(1, XDATA, add(CFA_XSP16, literal(-5)))
          CFI ?RET_HIGH load(1, XDATA, add(CFA_XSP16, literal(-4)))
          CFI ?BRET_EXT load(1, XDATA, add(CFA_XSP16, literal(-3)))
          CFI DPL0 load(1, XDATA, add(CFA_XSP16, literal(-2)))
          CFI DPH0 load(1, XDATA, add(CFA_XSP16, literal(-1)))
          CFI CFA_SP SP+-2
          CFI CFA_XSP16 add(XSP16, 9)
          CFI Block cfiCond30 Using cfiCommon0
          CFI (cfiCond30) Function MT_AfDataRequest
          CFI (cfiCond30) Conditional ??CrossCallReturnLabel_9
          CFI (cfiCond30) R6 load(1, XDATA, add(CFA_XSP16, literal(-22)))
          CFI (cfiCond30) VB load(1, XDATA, add(CFA_XSP16, literal(-21)))
          CFI (cfiCond30) V0 load(1, XDATA, add(CFA_XSP16, literal(-20)))
          CFI (cfiCond30) V1 load(1, XDATA, add(CFA_XSP16, literal(-19)))
          CFI (cfiCond30) V2 load(1, XDATA, add(CFA_XSP16, literal(-18)))
          CFI (cfiCond30) V3 load(1, XDATA, add(CFA_XSP16, literal(-17)))
          CFI (cfiCond30) V4 load(1, XDATA, add(CFA_XSP16, literal(-16)))
          CFI (cfiCond30) V5 load(1, XDATA, add(CFA_XSP16, literal(-15)))
          CFI (cfiCond30) V6 load(1, XDATA, add(CFA_XSP16, literal(-14)))
          CFI (cfiCond30) V7 load(1, XDATA, add(CFA_XSP16, literal(-13)))
          CFI (cfiCond30) V8 load(1, XDATA, add(CFA_XSP16, literal(-12)))
          CFI (cfiCond30) V9 load(1, XDATA, add(CFA_XSP16, literal(-11)))
          CFI (cfiCond30) V10 load(1, XDATA, add(CFA_XSP16, literal(-10)))
          CFI (cfiCond30) V11 load(1, XDATA, add(CFA_XSP16, literal(-9)))
          CFI (cfiCond30) V12 load(1, XDATA, add(CFA_XSP16, literal(-8)))
          CFI (cfiCond30) V13 load(1, XDATA, add(CFA_XSP16, literal(-7)))
          CFI (cfiCond30) R7 load(1, XDATA, add(CFA_XSP16, literal(-6)))
          CFI (cfiCond30) ?RET_LOW load(1, XDATA, add(CFA_XSP16, literal(-5)))
          CFI (cfiCond30) ?RET_HIGH load(1, XDATA, add(CFA_XSP16, literal(-4)))
          CFI (cfiCond30) ?BRET_EXT load(1, XDATA, add(CFA_XSP16, literal(-3)))
          CFI (cfiCond30) DPL0 load(1, XDATA, add(CFA_XSP16, literal(-2)))
          CFI (cfiCond30) DPH0 load(1, XDATA, add(CFA_XSP16, literal(-1)))
          CFI (cfiCond30) CFA_SP SP+-2
          CFI (cfiCond30) CFA_XSP16 add(XSP16, 36)
          CFI Block cfiPicker31 Using cfiCommon1
          CFI (cfiPicker31) NoFunction
          CFI (cfiPicker31) Picker
        MOVX    @DPTR,A
        LCALL   ?Subroutine35 & 0xFFFF
??CrossCallReturnLabel_71:
        LCALL   ?Subroutine41 & 0xFFFF
??CrossCallReturnLabel_83:
        RET
          CFI EndBlock cfiCond29
          CFI EndBlock cfiCond30
          CFI EndBlock cfiPicker31

        RSEG BANKED_CODE:CODE:NOROOT(0)
?Subroutine41:
          CFI Block cfiCond32 Using cfiCommon0
          CFI Function MT_AfExec
          CFI Conditional ??CrossCallReturnLabel_82
          CFI R6 load(1, XDATA, add(CFA_XSP16, literal(-9)))
          CFI VB load(1, XDATA, add(CFA_XSP16, literal(-8)))
          CFI V0 load(1, XDATA, add(CFA_XSP16, literal(-7)))
          CFI R7 load(1, XDATA, add(CFA_XSP16, literal(-6)))
          CFI ?RET_LOW load(1, XDATA, add(CFA_XSP16, literal(-5)))
          CFI ?RET_HIGH load(1, XDATA, add(CFA_XSP16, literal(-4)))
          CFI ?BRET_EXT load(1, XDATA, add(CFA_XSP16, literal(-3)))
          CFI DPL0 load(1, XDATA, add(CFA_XSP16, literal(-2)))
          CFI DPH0 load(1, XDATA, add(CFA_XSP16, literal(-1)))
          CFI CFA_SP SP+-2
          CFI CFA_XSP16 add(XSP16, 9)
          CFI Block cfiCond33 Using cfiCommon0
          CFI (cfiCond33) Function MT_AfExec
          CFI (cfiCond33) Conditional ??CrossCallReturnLabel_83, ??CrossCallReturnLabel_10
          CFI (cfiCond33) R6 load(1, XDATA, add(CFA_XSP16, literal(-9)))
          CFI (cfiCond33) VB load(1, XDATA, add(CFA_XSP16, literal(-8)))
          CFI (cfiCond33) V0 load(1, XDATA, add(CFA_XSP16, literal(-7)))
          CFI (cfiCond33) R7 load(1, XDATA, add(CFA_XSP16, literal(-6)))
          CFI (cfiCond33) ?RET_LOW load(1, XDATA, add(CFA_XSP16, literal(-5)))
          CFI (cfiCond33) ?RET_HIGH load(1, XDATA, add(CFA_XSP16, literal(-4)))
          CFI (cfiCond33) ?BRET_EXT load(1, XDATA, add(CFA_XSP16, literal(-3)))
          CFI (cfiCond33) DPL0 load(1, XDATA, add(CFA_XSP16, literal(-2)))
          CFI (cfiCond33) DPH0 load(1, XDATA, add(CFA_XSP16, literal(-1)))
          CFI (cfiCond33) CFA_SP SP+-4
          CFI (cfiCond33) CFA_XSP16 add(XSP16, 9)
          CFI Block cfiCond34 Using cfiCommon0
          CFI (cfiCond34) Function MT_AfDataRequest
          CFI (cfiCond34) Conditional ??CrossCallReturnLabel_83, ??CrossCallReturnLabel_9
          CFI (cfiCond34) R6 load(1, XDATA, add(CFA_XSP16, literal(-22)))
          CFI (cfiCond34) VB load(1, XDATA, add(CFA_XSP16, literal(-21)))
          CFI (cfiCond34) V0 load(1, XDATA, add(CFA_XSP16, literal(-20)))
          CFI (cfiCond34) V1 load(1, XDATA, add(CFA_XSP16, literal(-19)))
          CFI (cfiCond34) V2 load(1, XDATA, add(CFA_XSP16, literal(-18)))
          CFI (cfiCond34) V3 load(1, XDATA, add(CFA_XSP16, literal(-17)))
          CFI (cfiCond34) V4 load(1, XDATA, add(CFA_XSP16, literal(-16)))
          CFI (cfiCond34) V5 load(1, XDATA, add(CFA_XSP16, literal(-15)))
          CFI (cfiCond34) V6 load(1, XDATA, add(CFA_XSP16, literal(-14)))
          CFI (cfiCond34) V7 load(1, XDATA, add(CFA_XSP16, literal(-13)))
          CFI (cfiCond34) V8 load(1, XDATA, add(CFA_XSP16, literal(-12)))
          CFI (cfiCond34) V9 load(1, XDATA, add(CFA_XSP16, literal(-11)))
          CFI (cfiCond34) V10 load(1, XDATA, add(CFA_XSP16, literal(-10)))
          CFI (cfiCond34) V11 load(1, XDATA, add(CFA_XSP16, literal(-9)))
          CFI (cfiCond34) V12 load(1, XDATA, add(CFA_XSP16, literal(-8)))
          CFI (cfiCond34) V13 load(1, XDATA, add(CFA_XSP16, literal(-7)))
          CFI (cfiCond34) R7 load(1, XDATA, add(CFA_XSP16, literal(-6)))
          CFI (cfiCond34) ?RET_LOW load(1, XDATA, add(CFA_XSP16, literal(-5)))
          CFI (cfiCond34) ?RET_HIGH load(1, XDATA, add(CFA_XSP16, literal(-4)))
          CFI (cfiCond34) ?BRET_EXT load(1, XDATA, add(CFA_XSP16, literal(-3)))
          CFI (cfiCond34) DPL0 load(1, XDATA, add(CFA_XSP16, literal(-2)))
          CFI (cfiCond34) DPH0 load(1, XDATA, add(CFA_XSP16, literal(-1)))
          CFI (cfiCond34) CFA_SP SP+-4
          CFI (cfiCond34) CFA_XSP16 add(XSP16, 36)
          CFI Block cfiPicker35 Using cfiCommon1
          CFI (cfiPicker35) NoFunction
          CFI (cfiPicker35) Picker
        ADD     A,#0x17
        MOV     DPL,A
        CLR     A
        ADDC    A,R0
        MOV     DPH,A
        RET
          CFI EndBlock cfiCond32
          CFI EndBlock cfiCond33
          CFI EndBlock cfiCond34
          CFI EndBlock cfiPicker35

        RSEG BANKED_CODE:CODE:NOROOT(0)
?Subroutine3:
          CFI Block cfiCond36 Using cfiCommon0
          CFI Function MT_AfExec
          CFI Conditional ??CrossCallReturnLabel_94
          CFI R6 load(1, XDATA, add(CFA_XSP16, literal(-9)))
          CFI VB load(1, XDATA, add(CFA_XSP16, literal(-8)))
          CFI V0 load(1, XDATA, add(CFA_XSP16, literal(-7)))
          CFI R7 load(1, XDATA, add(CFA_XSP16, literal(-6)))
          CFI ?RET_LOW load(1, XDATA, add(CFA_XSP16, literal(-5)))
          CFI ?RET_HIGH load(1, XDATA, add(CFA_XSP16, literal(-4)))
          CFI ?BRET_EXT load(1, XDATA, add(CFA_XSP16, literal(-3)))
          CFI DPL0 load(1, XDATA, add(CFA_XSP16, literal(-2)))
          CFI DPH0 load(1, XDATA, add(CFA_XSP16, literal(-1)))
          CFI CFA_SP SP+-2
          CFI CFA_XSP16 add(XSP16, 9)
          CFI Block cfiCond37 Using cfiCommon0
          CFI (cfiCond37) Function MT_AfExec
          CFI (cfiCond37) Conditional ??CrossCallReturnLabel_95
          CFI (cfiCond37) R6 load(1, XDATA, add(CFA_XSP16, literal(-9)))
          CFI (cfiCond37) VB load(1, XDATA, add(CFA_XSP16, literal(-8)))
          CFI (cfiCond37) V0 load(1, XDATA, add(CFA_XSP16, literal(-7)))
          CFI (cfiCond37) R7 load(1, XDATA, add(CFA_XSP16, literal(-6)))
          CFI (cfiCond37) ?RET_LOW load(1, XDATA, add(CFA_XSP16, literal(-5)))
          CFI (cfiCond37) ?RET_HIGH load(1, XDATA, add(CFA_XSP16, literal(-4)))
          CFI (cfiCond37) ?BRET_EXT load(1, XDATA, add(CFA_XSP16, literal(-3)))
          CFI (cfiCond37) DPL0 load(1, XDATA, add(CFA_XSP16, literal(-2)))
          CFI (cfiCond37) DPH0 load(1, XDATA, add(CFA_XSP16, literal(-1)))
          CFI (cfiCond37) CFA_SP SP+-2
          CFI (cfiCond37) CFA_XSP16 add(XSP16, 9)
          CFI Block cfiCond38 Using cfiCommon0
          CFI (cfiCond38) Function MT_AfDataRequest
          CFI (cfiCond38) Conditional ??CrossCallReturnLabel_96
          CFI (cfiCond38) R6 load(1, XDATA, add(CFA_XSP16, literal(-22)))
          CFI (cfiCond38) VB load(1, XDATA, add(CFA_XSP16, literal(-21)))
          CFI (cfiCond38) V0 load(1, XDATA, add(CFA_XSP16, literal(-20)))
          CFI (cfiCond38) V1 load(1, XDATA, add(CFA_XSP16, literal(-19)))
          CFI (cfiCond38) V2 load(1, XDATA, add(CFA_XSP16, literal(-18)))
          CFI (cfiCond38) V3 load(1, XDATA, add(CFA_XSP16, literal(-17)))
          CFI (cfiCond38) V4 load(1, XDATA, add(CFA_XSP16, literal(-16)))
          CFI (cfiCond38) V5 load(1, XDATA, add(CFA_XSP16, literal(-15)))
          CFI (cfiCond38) V6 load(1, XDATA, add(CFA_XSP16, literal(-14)))
          CFI (cfiCond38) V7 load(1, XDATA, add(CFA_XSP16, literal(-13)))
          CFI (cfiCond38) V8 load(1, XDATA, add(CFA_XSP16, literal(-12)))
          CFI (cfiCond38) V9 load(1, XDATA, add(CFA_XSP16, literal(-11)))
          CFI (cfiCond38) V10 load(1, XDATA, add(CFA_XSP16, literal(-10)))
          CFI (cfiCond38) V11 load(1, XDATA, add(CFA_XSP16, literal(-9)))
          CFI (cfiCond38) V12 load(1, XDATA, add(CFA_XSP16, literal(-8)))
          CFI (cfiCond38) V13 load(1, XDATA, add(CFA_XSP16, literal(-7)))
          CFI (cfiCond38) R7 load(1, XDATA, add(CFA_XSP16, literal(-6)))
          CFI (cfiCond38) ?RET_LOW load(1, XDATA, add(CFA_XSP16, literal(-5)))
          CFI (cfiCond38) ?RET_HIGH load(1, XDATA, add(CFA_XSP16, literal(-4)))
          CFI (cfiCond38) ?BRET_EXT load(1, XDATA, add(CFA_XSP16, literal(-3)))
          CFI (cfiCond38) DPL0 load(1, XDATA, add(CFA_XSP16, literal(-2)))
          CFI (cfiCond38) DPH0 load(1, XDATA, add(CFA_XSP16, literal(-1)))
          CFI (cfiCond38) CFA_SP SP+-2
          CFI (cfiCond38) CFA_XSP16 add(XSP16, 36)
          CFI Block cfiCond39 Using cfiCommon0
          CFI (cfiCond39) Function MT_AfDataRequest
          CFI (cfiCond39) Conditional ??CrossCallReturnLabel_97
          CFI (cfiCond39) R6 load(1, XDATA, add(CFA_XSP16, literal(-22)))
          CFI (cfiCond39) VB load(1, XDATA, add(CFA_XSP16, literal(-21)))
          CFI (cfiCond39) V0 load(1, XDATA, add(CFA_XSP16, literal(-20)))
          CFI (cfiCond39) V1 load(1, XDATA, add(CFA_XSP16, literal(-19)))
          CFI (cfiCond39) V2 load(1, XDATA, add(CFA_XSP16, literal(-18)))
          CFI (cfiCond39) V3 load(1, XDATA, add(CFA_XSP16, literal(-17)))
          CFI (cfiCond39) V4 load(1, XDATA, add(CFA_XSP16, literal(-16)))
          CFI (cfiCond39) V5 load(1, XDATA, add(CFA_XSP16, literal(-15)))
          CFI (cfiCond39) V6 load(1, XDATA, add(CFA_XSP16, literal(-14)))
          CFI (cfiCond39) V7 load(1, XDATA, add(CFA_XSP16, literal(-13)))
          CFI (cfiCond39) V8 load(1, XDATA, add(CFA_XSP16, literal(-12)))
          CFI (cfiCond39) V9 load(1, XDATA, add(CFA_XSP16, literal(-11)))
          CFI (cfiCond39) V10 load(1, XDATA, add(CFA_XSP16, literal(-10)))
          CFI (cfiCond39) V11 load(1, XDATA, add(CFA_XSP16, literal(-9)))
          CFI (cfiCond39) V12 load(1, XDATA, add(CFA_XSP16, literal(-8)))
          CFI (cfiCond39) V13 load(1, XDATA, add(CFA_XSP16, literal(-7)))
          CFI (cfiCond39) R7 load(1, XDATA, add(CFA_XSP16, literal(-6)))
          CFI (cfiCond39) ?RET_LOW load(1, XDATA, add(CFA_XSP16, literal(-5)))
          CFI (cfiCond39) ?RET_HIGH load(1, XDATA, add(CFA_XSP16, literal(-4)))
          CFI (cfiCond39) ?BRET_EXT load(1, XDATA, add(CFA_XSP16, literal(-3)))
          CFI (cfiCond39) DPL0 load(1, XDATA, add(CFA_XSP16, literal(-2)))
          CFI (cfiCond39) DPH0 load(1, XDATA, add(CFA_XSP16, literal(-1)))
          CFI (cfiCond39) CFA_SP SP+-2
          CFI (cfiCond39) CFA_XSP16 add(XSP16, 36)
          CFI Block cfiCond40 Using cfiCommon0
          CFI (cfiCond40) Function MT_AfDataStore
          CFI (cfiCond40) Conditional ??CrossCallReturnLabel_98
          CFI (cfiCond40) R6 load(1, XDATA, add(CFA_XSP16, literal(-11)))
          CFI (cfiCond40) VB load(1, XDATA, add(CFA_XSP16, literal(-10)))
          CFI (cfiCond40) V0 load(1, XDATA, add(CFA_XSP16, literal(-9)))
          CFI (cfiCond40) V1 load(1, XDATA, add(CFA_XSP16, literal(-8)))
          CFI (cfiCond40) V2 load(1, XDATA, add(CFA_XSP16, literal(-7)))
          CFI (cfiCond40) R7 load(1, XDATA, add(CFA_XSP16, literal(-6)))
          CFI (cfiCond40) ?RET_LOW load(1, XDATA, add(CFA_XSP16, literal(-5)))
          CFI (cfiCond40) ?RET_HIGH load(1, XDATA, add(CFA_XSP16, literal(-4)))
          CFI (cfiCond40) ?BRET_EXT load(1, XDATA, add(CFA_XSP16, literal(-3)))
          CFI (cfiCond40) DPL0 load(1, XDATA, add(CFA_XSP16, literal(-2)))
          CFI (cfiCond40) DPH0 load(1, XDATA, add(CFA_XSP16, literal(-1)))
          CFI (cfiCond40) CFA_SP SP+-2
          CFI (cfiCond40) CFA_XSP16 add(XSP16, 12)
          CFI Block cfiPicker41 Using cfiCommon1
          CFI (cfiPicker41) NoFunction
          CFI (cfiPicker41) Picker
        MOV     DPTR,#pMtAfDataReq
          CFI EndBlock cfiCond36
          CFI EndBlock cfiCond37
          CFI EndBlock cfiCond38
          CFI EndBlock cfiCond39
          CFI EndBlock cfiCond40
          CFI EndBlock cfiPicker41
        REQUIRE ??Subroutine47_0
        ; // Fall through to label ??Subroutine47_0

        RSEG BANKED_CODE:CODE:NOROOT(0)
??Subroutine47_0:
          CFI Block cfiCond42 Using cfiCommon0
          CFI Function MT_AfExec
          CFI Conditional ??CrossCallReturnLabel_93
          CFI R6 load(1, XDATA, add(CFA_XSP16, literal(-9)))
          CFI VB load(1, XDATA, add(CFA_XSP16, literal(-8)))
          CFI V0 load(1, XDATA, add(CFA_XSP16, literal(-7)))
          CFI R7 load(1, XDATA, add(CFA_XSP16, literal(-6)))
          CFI ?RET_LOW load(1, XDATA, add(CFA_XSP16, literal(-5)))
          CFI ?RET_HIGH load(1, XDATA, add(CFA_XSP16, literal(-4)))
          CFI ?BRET_EXT load(1, XDATA, add(CFA_XSP16, literal(-3)))
          CFI DPL0 load(1, XDATA, add(CFA_XSP16, literal(-2)))
          CFI DPH0 load(1, XDATA, add(CFA_XSP16, literal(-1)))
          CFI CFA_SP SP+-2
          CFI CFA_XSP16 add(XSP16, 9)
          CFI Block cfiCond43 Using cfiCommon0
          CFI (cfiCond43) Function MT_AfExec
          CFI (cfiCond43) Conditional ??CrossCallReturnLabel_94
          CFI (cfiCond43) R6 load(1, XDATA, add(CFA_XSP16, literal(-9)))
          CFI (cfiCond43) VB load(1, XDATA, add(CFA_XSP16, literal(-8)))
          CFI (cfiCond43) V0 load(1, XDATA, add(CFA_XSP16, literal(-7)))
          CFI (cfiCond43) R7 load(1, XDATA, add(CFA_XSP16, literal(-6)))
          CFI (cfiCond43) ?RET_LOW load(1, XDATA, add(CFA_XSP16, literal(-5)))
          CFI (cfiCond43) ?RET_HIGH load(1, XDATA, add(CFA_XSP16, literal(-4)))
          CFI (cfiCond43) ?BRET_EXT load(1, XDATA, add(CFA_XSP16, literal(-3)))
          CFI (cfiCond43) DPL0 load(1, XDATA, add(CFA_XSP16, literal(-2)))
          CFI (cfiCond43) DPH0 load(1, XDATA, add(CFA_XSP16, literal(-1)))
          CFI (cfiCond43) CFA_SP SP+-2
          CFI (cfiCond43) CFA_XSP16 add(XSP16, 9)
          CFI Block cfiCond44 Using cfiCommon0
          CFI (cfiCond44) Function MT_AfExec
          CFI (cfiCond44) Conditional ??CrossCallReturnLabel_95
          CFI (cfiCond44) R6 load(1, XDATA, add(CFA_XSP16, literal(-9)))
          CFI (cfiCond44) VB load(1, XDATA, add(CFA_XSP16, literal(-8)))
          CFI (cfiCond44) V0 load(1, XDATA, add(CFA_XSP16, literal(-7)))
          CFI (cfiCond44) R7 load(1, XDATA, add(CFA_XSP16, literal(-6)))
          CFI (cfiCond44) ?RET_LOW load(1, XDATA, add(CFA_XSP16, literal(-5)))
          CFI (cfiCond44) ?RET_HIGH load(1, XDATA, add(CFA_XSP16, literal(-4)))
          CFI (cfiCond44) ?BRET_EXT load(1, XDATA, add(CFA_XSP16, literal(-3)))
          CFI (cfiCond44) DPL0 load(1, XDATA, add(CFA_XSP16, literal(-2)))
          CFI (cfiCond44) DPH0 load(1, XDATA, add(CFA_XSP16, literal(-1)))
          CFI (cfiCond44) CFA_SP SP+-2
          CFI (cfiCond44) CFA_XSP16 add(XSP16, 9)
          CFI Block cfiCond45 Using cfiCommon0
          CFI (cfiCond45) Function MT_AfDataRequest
          CFI (cfiCond45) Conditional ??CrossCallReturnLabel_96
          CFI (cfiCond45) R6 load(1, XDATA, add(CFA_XSP16, literal(-22)))
          CFI (cfiCond45) VB load(1, XDATA, add(CFA_XSP16, literal(-21)))
          CFI (cfiCond45) V0 load(1, XDATA, add(CFA_XSP16, literal(-20)))
          CFI (cfiCond45) V1 load(1, XDATA, add(CFA_XSP16, literal(-19)))
          CFI (cfiCond45) V2 load(1, XDATA, add(CFA_XSP16, literal(-18)))
          CFI (cfiCond45) V3 load(1, XDATA, add(CFA_XSP16, literal(-17)))
          CFI (cfiCond45) V4 load(1, XDATA, add(CFA_XSP16, literal(-16)))
          CFI (cfiCond45) V5 load(1, XDATA, add(CFA_XSP16, literal(-15)))
          CFI (cfiCond45) V6 load(1, XDATA, add(CFA_XSP16, literal(-14)))
          CFI (cfiCond45) V7 load(1, XDATA, add(CFA_XSP16, literal(-13)))
          CFI (cfiCond45) V8 load(1, XDATA, add(CFA_XSP16, literal(-12)))
          CFI (cfiCond45) V9 load(1, XDATA, add(CFA_XSP16, literal(-11)))
          CFI (cfiCond45) V10 load(1, XDATA, add(CFA_XSP16, literal(-10)))
          CFI (cfiCond45) V11 load(1, XDATA, add(CFA_XSP16, literal(-9)))
          CFI (cfiCond45) V12 load(1, XDATA, add(CFA_XSP16, literal(-8)))
          CFI (cfiCond45) V13 load(1, XDATA, add(CFA_XSP16, literal(-7)))
          CFI (cfiCond45) R7 load(1, XDATA, add(CFA_XSP16, literal(-6)))
          CFI (cfiCond45) ?RET_LOW load(1, XDATA, add(CFA_XSP16, literal(-5)))
          CFI (cfiCond45) ?RET_HIGH load(1, XDATA, add(CFA_XSP16, literal(-4)))
          CFI (cfiCond45) ?BRET_EXT load(1, XDATA, add(CFA_XSP16, literal(-3)))
          CFI (cfiCond45) DPL0 load(1, XDATA, add(CFA_XSP16, literal(-2)))
          CFI (cfiCond45) DPH0 load(1, XDATA, add(CFA_XSP16, literal(-1)))
          CFI (cfiCond45) CFA_SP SP+-2
          CFI (cfiCond45) CFA_XSP16 add(XSP16, 36)
          CFI Block cfiCond46 Using cfiCommon0
          CFI (cfiCond46) Function MT_AfDataRequest
          CFI (cfiCond46) Conditional ??CrossCallReturnLabel_97
          CFI (cfiCond46) R6 load(1, XDATA, add(CFA_XSP16, literal(-22)))
          CFI (cfiCond46) VB load(1, XDATA, add(CFA_XSP16, literal(-21)))
          CFI (cfiCond46) V0 load(1, XDATA, add(CFA_XSP16, literal(-20)))
          CFI (cfiCond46) V1 load(1, XDATA, add(CFA_XSP16, literal(-19)))
          CFI (cfiCond46) V2 load(1, XDATA, add(CFA_XSP16, literal(-18)))
          CFI (cfiCond46) V3 load(1, XDATA, add(CFA_XSP16, literal(-17)))
          CFI (cfiCond46) V4 load(1, XDATA, add(CFA_XSP16, literal(-16)))
          CFI (cfiCond46) V5 load(1, XDATA, add(CFA_XSP16, literal(-15)))
          CFI (cfiCond46) V6 load(1, XDATA, add(CFA_XSP16, literal(-14)))
          CFI (cfiCond46) V7 load(1, XDATA, add(CFA_XSP16, literal(-13)))
          CFI (cfiCond46) V8 load(1, XDATA, add(CFA_XSP16, literal(-12)))
          CFI (cfiCond46) V9 load(1, XDATA, add(CFA_XSP16, literal(-11)))
          CFI (cfiCond46) V10 load(1, XDATA, add(CFA_XSP16, literal(-10)))
          CFI (cfiCond46) V11 load(1, XDATA, add(CFA_XSP16, literal(-9)))
          CFI (cfiCond46) V12 load(1, XDATA, add(CFA_XSP16, literal(-8)))
          CFI (cfiCond46) V13 load(1, XDATA, add(CFA_XSP16, literal(-7)))
          CFI (cfiCond46) R7 load(1, XDATA, add(CFA_XSP16, literal(-6)))
          CFI (cfiCond46) ?RET_LOW load(1, XDATA, add(CFA_XSP16, literal(-5)))
          CFI (cfiCond46) ?RET_HIGH load(1, XDATA, add(CFA_XSP16, literal(-4)))
          CFI (cfiCond46) ?BRET_EXT load(1, XDATA, add(CFA_XSP16, literal(-3)))
          CFI (cfiCond46) DPL0 load(1, XDATA, add(CFA_XSP16, literal(-2)))
          CFI (cfiCond46) DPH0 load(1, XDATA, add(CFA_XSP16, literal(-1)))
          CFI (cfiCond46) CFA_SP SP+-2
          CFI (cfiCond46) CFA_XSP16 add(XSP16, 36)
          CFI Block cfiCond47 Using cfiCommon0
          CFI (cfiCond47) Function MT_AfDataStore
          CFI (cfiCond47) Conditional ??CrossCallReturnLabel_98
          CFI (cfiCond47) R6 load(1, XDATA, add(CFA_XSP16, literal(-11)))
          CFI (cfiCond47) VB load(1, XDATA, add(CFA_XSP16, literal(-10)))
          CFI (cfiCond47) V0 load(1, XDATA, add(CFA_XSP16, literal(-9)))
          CFI (cfiCond47) V1 load(1, XDATA, add(CFA_XSP16, literal(-8)))
          CFI (cfiCond47) V2 load(1, XDATA, add(CFA_XSP16, literal(-7)))
          CFI (cfiCond47) R7 load(1, XDATA, add(CFA_XSP16, literal(-6)))
          CFI (cfiCond47) ?RET_LOW load(1, XDATA, add(CFA_XSP16, literal(-5)))
          CFI (cfiCond47) ?RET_HIGH load(1, XDATA, add(CFA_XSP16, literal(-4)))
          CFI (cfiCond47) ?BRET_EXT load(1, XDATA, add(CFA_XSP16, literal(-3)))
          CFI (cfiCond47) DPL0 load(1, XDATA, add(CFA_XSP16, literal(-2)))
          CFI (cfiCond47) DPH0 load(1, XDATA, add(CFA_XSP16, literal(-1)))
          CFI (cfiCond47) CFA_SP SP+-2
          CFI (cfiCond47) CFA_XSP16 add(XSP16, 12)
          CFI Block cfiPicker48 Using cfiCommon1
          CFI (cfiPicker48) NoFunction
          CFI (cfiPicker48) Picker
        MOVX    A,@DPTR
        MOV     R0,A
        INC     DPTR
        MOVX    A,@DPTR
        MOV     R1,A
        MOV     A,R0
        ORL     A,R1
        RET
          CFI EndBlock cfiCond42
          CFI EndBlock cfiCond43
          CFI EndBlock cfiCond44
          CFI EndBlock cfiCond45
          CFI EndBlock cfiCond46
          CFI EndBlock cfiCond47
          CFI EndBlock cfiPicker48
//  471 
//  472 #if defined ( ZIGBEE_SOURCE_ROUTING )
//  473 
//  474 /***************************************************************************************************
//  475  * @fn      MT_AfDataRequestSrcRtg
//  476  *
//  477  * @brief   Process AF Register command
//  478  *
//  479  * @param   pBuf - pointer to the received buffer
//  480  *
//  481  * @return  none
//  482  ***************************************************************************************************/

        RSEG BANKED_CODE:CODE:NOROOT(0)
//  483 void MT_AfDataRequestSrcRtg(uint8 *pBuf)
MT_AfDataRequestSrcRtg:
          CFI Block cfiBlock49 Using cfiCommon0
          CFI Function MT_AfDataRequestSrcRtg
        CODE
//  484 {
        FUNCALL MT_AfDataRequestSrcRtg, osal_memset
        LOCFRAME ISTACK, 0, STACK
        LOCFRAME PSTACK, 0, STACK
        LOCFRAME XSTACK, 34, STACK
        LOCFRAME IOVERLAY, 0, STATIC
        LOCFRAME DOVERLAY, 0, STATIC
        ARGFRAME ISTACK, 0, STACK
        ARGFRAME PSTACK, 0, STACK
        ARGFRAME XSTACK, 34, STACK
        ARGFRAME IOVERLAY, 0, STATIC
        ARGFRAME DOVERLAY, 0, STATIC
        FUNCALL MT_AfDataRequestSrcRtg, afFindEndPointDesc
        LOCFRAME ISTACK, 0, STACK
        LOCFRAME PSTACK, 0, STACK
        LOCFRAME XSTACK, 34, STACK
        LOCFRAME IOVERLAY, 0, STATIC
        LOCFRAME DOVERLAY, 0, STATIC
        ARGFRAME ISTACK, 0, STACK
        ARGFRAME PSTACK, 0, STACK
        ARGFRAME XSTACK, 34, STACK
        ARGFRAME IOVERLAY, 0, STATIC
        ARGFRAME DOVERLAY, 0, STATIC
        FUNCALL MT_AfDataRequestSrcRtg, osal_mem_alloc
        LOCFRAME ISTACK, 0, STACK
        LOCFRAME PSTACK, 0, STACK
        LOCFRAME XSTACK, 34, STACK
        LOCFRAME IOVERLAY, 0, STATIC
        LOCFRAME DOVERLAY, 0, STATIC
        ARGFRAME ISTACK, 0, STACK
        ARGFRAME PSTACK, 0, STACK
        ARGFRAME XSTACK, 34, STACK
        ARGFRAME IOVERLAY, 0, STATIC
        ARGFRAME DOVERLAY, 0, STATIC
        FUNCALL MT_AfDataRequestSrcRtg, AF_DataRequestSrcRtg
        LOCFRAME ISTACK, 0, STACK
        LOCFRAME PSTACK, 0, STACK
        LOCFRAME XSTACK, 46, STACK
        LOCFRAME IOVERLAY, 0, STATIC
        LOCFRAME DOVERLAY, 0, STATIC
        ARGFRAME ISTACK, 0, STACK
        ARGFRAME PSTACK, 0, STACK
        ARGFRAME XSTACK, 46, STACK
        ARGFRAME IOVERLAY, 0, STATIC
        ARGFRAME DOVERLAY, 0, STATIC
        FUNCALL MT_AfDataRequestSrcRtg, osal_mem_free
        LOCFRAME ISTACK, 0, STACK
        LOCFRAME PSTACK, 0, STACK
        LOCFRAME XSTACK, 34, STACK
        LOCFRAME IOVERLAY, 0, STATIC
        LOCFRAME DOVERLAY, 0, STATIC
        ARGFRAME ISTACK, 0, STACK
        ARGFRAME PSTACK, 0, STACK
        ARGFRAME XSTACK, 34, STACK
        ARGFRAME IOVERLAY, 0, STATIC
        ARGFRAME DOVERLAY, 0, STATIC
        FUNCALL MT_AfDataRequestSrcRtg, MT_BuildAndSendZToolResponse
        LOCFRAME ISTACK, 0, STACK
        LOCFRAME PSTACK, 0, STACK
        LOCFRAME XSTACK, 34, STACK
        LOCFRAME IOVERLAY, 0, STATIC
        LOCFRAME DOVERLAY, 0, STATIC
        ARGFRAME ISTACK, 0, STACK
        ARGFRAME PSTACK, 0, STACK
        ARGFRAME XSTACK, 34, STACK
        ARGFRAME IOVERLAY, 0, STATIC
        ARGFRAME DOVERLAY, 0, STATIC
        REQUIRE ?V0
        REQUIRE ?V1
        REQUIRE ?V2
        REQUIRE ?V3
        REQUIRE ?V4
        REQUIRE ?V5
        REQUIRE ?V6
        REQUIRE ?V7
        REQUIRE ?V8
        REQUIRE ?V9
        REQUIRE ?V10
        REQUIRE ?V11
        MOV     A,#-0x14
        LCALL   ?BANKED_ENTER_XDATA
          CFI DPH0 load(1, XDATA, add(CFA_XSP16, literal(-1)))
          CFI DPL0 load(1, XDATA, add(CFA_XSP16, literal(-2)))
          CFI ?BRET_EXT load(1, XDATA, add(CFA_XSP16, literal(-3)))
          CFI ?RET_HIGH load(1, XDATA, add(CFA_XSP16, literal(-4)))
          CFI ?RET_LOW load(1, XDATA, add(CFA_XSP16, literal(-5)))
          CFI R7 load(1, XDATA, add(CFA_XSP16, literal(-6)))
          CFI V11 load(1, XDATA, add(CFA_XSP16, literal(-7)))
          CFI V10 load(1, XDATA, add(CFA_XSP16, literal(-8)))
          CFI V9 load(1, XDATA, add(CFA_XSP16, literal(-9)))
          CFI V8 load(1, XDATA, add(CFA_XSP16, literal(-10)))
          CFI V7 load(1, XDATA, add(CFA_XSP16, literal(-11)))
          CFI V6 load(1, XDATA, add(CFA_XSP16, literal(-12)))
          CFI V5 load(1, XDATA, add(CFA_XSP16, literal(-13)))
          CFI V4 load(1, XDATA, add(CFA_XSP16, literal(-14)))
          CFI V3 load(1, XDATA, add(CFA_XSP16, literal(-15)))
          CFI V2 load(1, XDATA, add(CFA_XSP16, literal(-16)))
          CFI V1 load(1, XDATA, add(CFA_XSP16, literal(-17)))
          CFI V0 load(1, XDATA, add(CFA_XSP16, literal(-18)))
          CFI VB load(1, XDATA, add(CFA_XSP16, literal(-19)))
          CFI R6 load(1, XDATA, add(CFA_XSP16, literal(-20)))
          CFI CFA_SP SP+0
          CFI CFA_XSP16 add(XSP16, 20)
        ; Saved register size: 20
        ; Auto size: 14
        MOV     A,#-0xe
        LCALL   ?ALLOC_XSTACK8
          CFI CFA_XSP16 add(XSP16, 34)
        MOV     A,R2
        MOV     R6,A
        MOV     A,R3
        MOV     R7,A
//  485   uint8 cmdId, dataLen = 0;
//  486   uint8 retValue = ZFailure;
        MOV     DPL,?XSP + 0
        MOV     DPH,?XSP + 1
        MOV     A,#0x1
        LCALL   ?Subroutine31 & 0xFFFF
//  487   endPointDesc_t *epDesc;
//  488   byte transId;
//  489   afAddrType_t dstAddr;
//  490   cId_t cId;
//  491   byte txOpts, radius, srcEP, relayCnt;
//  492   uint16 *pRelayList;
//  493   uint8 i;
//  494 
//  495   /* parse header */
//  496   cmdId = pBuf[MT_RPC_POS_CMD1];
??CrossCallReturnLabel_56:
        INC     DPTR
        MOVX    A,@DPTR
        MOV     ?V6,A
//  497   pBuf += MT_RPC_FRAME_HDR_SZ;
        MOV     A,R6
        ADD     A,#0x3
        MOV     R6,A
        JNC     ??MT_AfDataRequestSrcRtg_0
        INC     R7
//  498 
//  499   /* Destination address */
//  500   /* Initialize the panID field to zero to avoid inter-pan */
//  501   osal_memset( &dstAddr, 0, sizeof(afAddrType_t) );
??MT_AfDataRequestSrcRtg_0:
        ; Setup parameters for call to function osal_memset
        MOV     R4,#0xc
        MOV     R5,#0x0
        MOV     R1,#0x0
        MOV     A,#0x2
        LCALL   ?XSTACK_DISP101_8
        LCALL   ??osal_memset?relay  ; Banked call to: osal_memset
//  502   dstAddr.addrMode = afAddr16Bit;
        MOV     A,#0xa
        LCALL   ?XSTACK_DISP0_8
        MOV     A,#0x2
        MOVX    @DPTR,A
//  503   dstAddr.addr.shortAddr = BUILD_UINT16(pBuf[0], pBuf[1]);
        MOV     DPL,R6
        MOV     DPH,R7
        LCALL   ?Subroutine5 & 0xFFFF
??CrossCallReturnLabel_4:
        LCALL   ?XSTACK_DISP0_8
        LCALL   ?Subroutine27 & 0xFFFF
//  504   pBuf += 2;
??CrossCallReturnLabel_43:
        MOV     A,R6
        ADD     A,#0x2
        MOV     R6,A
        JNC     ??MT_AfDataRequestSrcRtg_1
        INC     R7
//  505 
//  506   /* Destination endpoint */
//  507   dstAddr.endPoint = *pBuf++;
??MT_AfDataRequestSrcRtg_1:
        MOV     DPL,R6
        MOV     DPH,R7
        MOVX    A,@DPTR
        PUSH    A
          CFI CFA_SP SP+-1
        MOV     A,#0xb
        LCALL   ?XSTACK_DISP0_8
        POP     A
          CFI CFA_SP SP+0
        LCALL   ?Subroutine31 & 0xFFFF
//  508 
//  509   /* Source endpoint */
//  510   srcEP = *pBuf++;
??CrossCallReturnLabel_57:
        MOVX    A,@DPTR
        MOV     R1,A
        INC     DPTR
        MOV     R6,DPL
        MOV     R7,DPH
//  511   epDesc = afFindEndPointDesc( srcEP );
        ; Setup parameters for call to function afFindEndPointDesc
        LCALL   ??afFindEndPointDesc?relay; Banked call to: afFindEndPointDesc
        MOV     ?V2,R2
        MOV     ?V3,R3
//  512 
//  513   /* ClusterId */
//  514   cId = BUILD_UINT16(pBuf[0], pBuf[1]);
        MOV     DPL,R6
        MOV     DPH,R7
        LCALL   ?Subroutine4 & 0xFFFF
//  515   pBuf +=2;
??CrossCallReturnLabel_0:
        MOV     A,R6
        ADD     A,#0x2
        MOV     R6,A
        JNC     ??MT_AfDataRequestSrcRtg_2
        INC     R7
//  516 
//  517   /* TransId */
//  518   transId = *pBuf++;
??MT_AfDataRequestSrcRtg_2:
        MOV     DPL,R6
        MOV     DPH,R7
        MOVX    A,@DPTR
        PUSH    A
          CFI CFA_SP SP+-1
        MOV     A,#0x1
        LCALL   ?XSTACK_DISP0_8
        POP     A
          CFI CFA_SP SP+0
        LCALL   ?Subroutine31 & 0xFFFF
//  519 
//  520   /* TxOption */
//  521   txOpts = *pBuf++;
??CrossCallReturnLabel_58:
        MOVX    A,@DPTR
        MOV     ?V7,A
        INC     DPTR
//  522 
//  523   /* Radius */
//  524   radius = *pBuf++;
        MOVX    A,@DPTR
        MOV     ?V8,A
        INC     DPTR
//  525 
//  526   /* Source route relay count */
//  527   relayCnt = *pBuf++;
        MOVX    A,@DPTR
        MOV     ?V9,A
        INC     DPTR
        MOV     R6,DPL
        MOV     R7,DPH
//  528 
//  529   /* Convert the source route relay list */
//  530   if( (pRelayList = osal_mem_alloc( relayCnt * sizeof( uint16 ))) != NULL )
        ; Setup parameters for call to function osal_mem_alloc
        ADD     A,0xE0 /* A   */
        MOV     R2,A
        CLR     A
        RLC     A
        MOV     R3,A
        LCALL   ??osal_mem_alloc?relay; Banked call to: osal_mem_alloc
        MOV     ?V0,R2
        MOV     ?V1,R3
        MOV     A,R2
        ORL     A,?V1
        JNZ     $+5
        LJMP    ??MT_AfDataRequestSrcRtg_3 & 0xFFFF
//  531   {
//  532     for( i = 0; i < relayCnt; i++ )
        MOV     R4,#0x0
        SJMP    ??MT_AfDataRequestSrcRtg_4
//  533     {
//  534       pRelayList[i]  = BUILD_UINT16( pBuf[0], pBuf[1] );
??MT_AfDataRequestSrcRtg_5:
        LCALL   ??Subroutine46_0 & 0xFFFF
??CrossCallReturnLabel_90:
        CLR     A
        ADDC    A,R1
        MOV     R3,A
        MOV     A,R4
        ADD     A,0xE0 /* A   */
        MOV     R0,A
        CLR     A
        RLC     A
        MOV     R1,A
        MOV     A,?V0
        ADD     A,R0
        MOV     DPL,A
        MOV     A,?V1
        ADDC    A,R1
        MOV     DPH,A
        MOV     A,R2
        MOVX    @DPTR,A
        INC     DPTR
        MOV     A,R3
        MOVX    @DPTR,A
//  535       pBuf += 2;
        MOV     A,R6
        ADD     A,#0x2
        MOV     R6,A
        JNC     ??MT_AfDataRequestSrcRtg_6
        INC     R7
//  536     }
??MT_AfDataRequestSrcRtg_6:
        INC     R4
??MT_AfDataRequestSrcRtg_4:
        MOV     A,R4
        CLR     C
        SUBB    A,?V9
        MOV     DPL,R6
        MOV     DPH,R7
        MOVX    A,@DPTR
        JC      ??MT_AfDataRequestSrcRtg_5
//  537 
//  538     /* Data payload Length */
//  539     dataLen = *pBuf++;
        MOV     ?V10,A
        INC     DPTR
        MOV     R6,DPL
        MOV     R7,DPH
//  540 
//  541     if ( epDesc == NULL )
        MOV     A,?V2
        ORL     A,?V3
        JNZ     ??MT_AfDataRequestSrcRtg_7
//  542     {
//  543       retValue = afStatus_INVALID_PARAMETER;
        MOV     DPL,?XSP + 0
        MOV     DPH,?XSP + 1
        MOV     A,#0x2
        SJMP    ??MT_AfDataRequestSrcRtg_8
//  544     }
//  545     else
//  546     {
//  547       retValue = AF_DataRequestSrcRtg( &dstAddr, epDesc, cId, dataLen, pBuf,
//  548                                      &transId, txOpts, radius, relayCnt, pRelayList );
??MT_AfDataRequestSrcRtg_7:
        ; Setup parameters for call to function AF_DataRequestSrcRtg
        MOV     R0,#?V0
        LCALL   ?PUSH_XSTACK_I_TWO
          CFI CFA_XSP16 add(XSP16, 36)
        MOV     R0,#?V9
        LCALL   ?PUSH_XSTACK_I_ONE
          CFI CFA_XSP16 add(XSP16, 37)
        MOV     R0,#?V8
        LCALL   ?PUSH_XSTACK_I_ONE
          CFI CFA_XSP16 add(XSP16, 38)
        MOV     A,#0x5
        LCALL   ?XSTACK_DISP100_8
        MOV     ?V8,R0
        MOV     ?V9,R1
        MOV     R0,#?V8
        LCALL   ?PUSH_XSTACK_I_TWO
          CFI CFA_XSP16 add(XSP16, 40)
        MOV     ?V8,R6
        MOV     ?V9,R7
        MOV     R0,#?V8
        LCALL   ?PUSH_XSTACK_I_TWO
          CFI CFA_XSP16 add(XSP16, 42)
        MOV     ?V11,#0x0
        MOV     R0,#?V10
        LCALL   ?PUSH_XSTACK_I_TWO
          CFI CFA_XSP16 add(XSP16, 44)
        MOV     R0,#?V4
        LCALL   ?PUSH_XSTACK_I_TWO
          CFI CFA_XSP16 add(XSP16, 46)
        MOV     R1,?V7
        MOV     R4,?V2
        MOV     R5,?V3
        MOV     A,#0xe
        LCALL   ?XSTACK_DISP101_8
        LCALL   ??AF_DataRequestSrcRtg?relay; Banked call to: AF_DataRequestSrcRtg
        MOV     A,#0xc
        LCALL   ?DEALLOC_XSTACK8
          CFI CFA_XSP16 add(XSP16, 34)
        MOV     A,R1
        MOV     DPL,?XSP + 0
        MOV     DPH,?XSP + 1
??MT_AfDataRequestSrcRtg_8:
        MOVX    @DPTR,A
//  549     }
//  550 
//  551     /* Free the memory allocated */
//  552     osal_mem_free( pRelayList );
        ; Setup parameters for call to function osal_mem_free
        MOV     R2,?V0
        MOV     R3,?V1
        LCALL   ??osal_mem_free?relay; Banked call to: osal_mem_free
        SJMP    ??MT_AfDataRequestSrcRtg_9
//  553   }
//  554   else
//  555   {
//  556     retValue = afStatus_MEM_FAIL;
??MT_AfDataRequestSrcRtg_3:
        MOV     DPL,?XSP + 0
        MOV     DPH,?XSP + 1
        MOV     A,#0x10
        MOVX    @DPTR,A
//  557   }
//  558 
//  559 
//  560   /* Build and send back the response */
//  561   MT_BuildAndSendZToolResponse(((uint8)MT_RPC_CMD_SRSP | (uint8)MT_RPC_SYS_AF), cmdId, 1, &retValue);
??MT_AfDataRequestSrcRtg_9:
        ; Setup parameters for call to function MT_BuildAndSendZToolResponse
        MOV     R4,?XSP + 0
        MOV     R5,?XSP + 1
        MOV     R3,#0x1
        MOV     R2,?V6
        MOV     R1,#0x64
        LCALL   ??MT_BuildAndSendZToolResponse?relay; Banked call to: MT_BuildAndSendZToolResponse
//  562 }
        MOV     A,#0xe
        LCALL   ?DEALLOC_XSTACK8
          CFI CFA_XSP16 add(XSP16, 20)
        MOV     R7,#0xc
        LJMP    ?BANKED_LEAVE_XDATA
          CFI EndBlock cfiBlock49

        RSEG BANKED_CODE:CODE:NOROOT(0)
?Subroutine31:
          CFI Block cfiCond50 Using cfiCommon0
          CFI Function MT_AfDataRequestSrcRtg
          CFI Conditional ??CrossCallReturnLabel_56
          CFI R6 load(1, XDATA, add(CFA_XSP16, literal(-20)))
          CFI VB load(1, XDATA, add(CFA_XSP16, literal(-19)))
          CFI V0 load(1, XDATA, add(CFA_XSP16, literal(-18)))
          CFI V1 load(1, XDATA, add(CFA_XSP16, literal(-17)))
          CFI V2 load(1, XDATA, add(CFA_XSP16, literal(-16)))
          CFI V3 load(1, XDATA, add(CFA_XSP16, literal(-15)))
          CFI V4 load(1, XDATA, add(CFA_XSP16, literal(-14)))
          CFI V5 load(1, XDATA, add(CFA_XSP16, literal(-13)))
          CFI V6 load(1, XDATA, add(CFA_XSP16, literal(-12)))
          CFI V7 load(1, XDATA, add(CFA_XSP16, literal(-11)))
          CFI V8 load(1, XDATA, add(CFA_XSP16, literal(-10)))
          CFI V9 load(1, XDATA, add(CFA_XSP16, literal(-9)))
          CFI V10 load(1, XDATA, add(CFA_XSP16, literal(-8)))
          CFI V11 load(1, XDATA, add(CFA_XSP16, literal(-7)))
          CFI R7 load(1, XDATA, add(CFA_XSP16, literal(-6)))
          CFI ?RET_LOW load(1, XDATA, add(CFA_XSP16, literal(-5)))
          CFI ?RET_HIGH load(1, XDATA, add(CFA_XSP16, literal(-4)))
          CFI ?BRET_EXT load(1, XDATA, add(CFA_XSP16, literal(-3)))
          CFI DPL0 load(1, XDATA, add(CFA_XSP16, literal(-2)))
          CFI DPH0 load(1, XDATA, add(CFA_XSP16, literal(-1)))
          CFI CFA_SP SP+-2
          CFI CFA_XSP16 add(XSP16, 34)
          CFI Block cfiCond51 Using cfiCommon0
          CFI (cfiCond51) Function MT_AfDataRequestSrcRtg
          CFI (cfiCond51) Conditional ??CrossCallReturnLabel_57
          CFI (cfiCond51) R6 load(1, XDATA, add(CFA_XSP16, literal(-20)))
          CFI (cfiCond51) VB load(1, XDATA, add(CFA_XSP16, literal(-19)))
          CFI (cfiCond51) V0 load(1, XDATA, add(CFA_XSP16, literal(-18)))
          CFI (cfiCond51) V1 load(1, XDATA, add(CFA_XSP16, literal(-17)))
          CFI (cfiCond51) V2 load(1, XDATA, add(CFA_XSP16, literal(-16)))
          CFI (cfiCond51) V3 load(1, XDATA, add(CFA_XSP16, literal(-15)))
          CFI (cfiCond51) V4 load(1, XDATA, add(CFA_XSP16, literal(-14)))
          CFI (cfiCond51) V5 load(1, XDATA, add(CFA_XSP16, literal(-13)))
          CFI (cfiCond51) V6 load(1, XDATA, add(CFA_XSP16, literal(-12)))
          CFI (cfiCond51) V7 load(1, XDATA, add(CFA_XSP16, literal(-11)))
          CFI (cfiCond51) V8 load(1, XDATA, add(CFA_XSP16, literal(-10)))
          CFI (cfiCond51) V9 load(1, XDATA, add(CFA_XSP16, literal(-9)))
          CFI (cfiCond51) V10 load(1, XDATA, add(CFA_XSP16, literal(-8)))
          CFI (cfiCond51) V11 load(1, XDATA, add(CFA_XSP16, literal(-7)))
          CFI (cfiCond51) R7 load(1, XDATA, add(CFA_XSP16, literal(-6)))
          CFI (cfiCond51) ?RET_LOW load(1, XDATA, add(CFA_XSP16, literal(-5)))
          CFI (cfiCond51) ?RET_HIGH load(1, XDATA, add(CFA_XSP16, literal(-4)))
          CFI (cfiCond51) ?BRET_EXT load(1, XDATA, add(CFA_XSP16, literal(-3)))
          CFI (cfiCond51) DPL0 load(1, XDATA, add(CFA_XSP16, literal(-2)))
          CFI (cfiCond51) DPH0 load(1, XDATA, add(CFA_XSP16, literal(-1)))
          CFI (cfiCond51) CFA_SP SP+-2
          CFI (cfiCond51) CFA_XSP16 add(XSP16, 34)
          CFI Block cfiCond52 Using cfiCommon0
          CFI (cfiCond52) Function MT_AfDataRequestSrcRtg
          CFI (cfiCond52) Conditional ??CrossCallReturnLabel_58
          CFI (cfiCond52) R6 load(1, XDATA, add(CFA_XSP16, literal(-20)))
          CFI (cfiCond52) VB load(1, XDATA, add(CFA_XSP16, literal(-19)))
          CFI (cfiCond52) V0 load(1, XDATA, add(CFA_XSP16, literal(-18)))
          CFI (cfiCond52) V1 load(1, XDATA, add(CFA_XSP16, literal(-17)))
          CFI (cfiCond52) V2 load(1, XDATA, add(CFA_XSP16, literal(-16)))
          CFI (cfiCond52) V3 load(1, XDATA, add(CFA_XSP16, literal(-15)))
          CFI (cfiCond52) V4 load(1, XDATA, add(CFA_XSP16, literal(-14)))
          CFI (cfiCond52) V5 load(1, XDATA, add(CFA_XSP16, literal(-13)))
          CFI (cfiCond52) V6 load(1, XDATA, add(CFA_XSP16, literal(-12)))
          CFI (cfiCond52) V7 load(1, XDATA, add(CFA_XSP16, literal(-11)))
          CFI (cfiCond52) V8 load(1, XDATA, add(CFA_XSP16, literal(-10)))
          CFI (cfiCond52) V9 load(1, XDATA, add(CFA_XSP16, literal(-9)))
          CFI (cfiCond52) V10 load(1, XDATA, add(CFA_XSP16, literal(-8)))
          CFI (cfiCond52) V11 load(1, XDATA, add(CFA_XSP16, literal(-7)))
          CFI (cfiCond52) R7 load(1, XDATA, add(CFA_XSP16, literal(-6)))
          CFI (cfiCond52) ?RET_LOW load(1, XDATA, add(CFA_XSP16, literal(-5)))
          CFI (cfiCond52) ?RET_HIGH load(1, XDATA, add(CFA_XSP16, literal(-4)))
          CFI (cfiCond52) ?BRET_EXT load(1, XDATA, add(CFA_XSP16, literal(-3)))
          CFI (cfiCond52) DPL0 load(1, XDATA, add(CFA_XSP16, literal(-2)))
          CFI (cfiCond52) DPH0 load(1, XDATA, add(CFA_XSP16, literal(-1)))
          CFI (cfiCond52) CFA_SP SP+-2
          CFI (cfiCond52) CFA_XSP16 add(XSP16, 34)
          CFI Block cfiPicker53 Using cfiCommon1
          CFI (cfiPicker53) NoFunction
          CFI (cfiPicker53) Picker
        MOVX    @DPTR,A
        MOV     DPL,R6
        MOV     DPH,R7
        INC     DPTR
        RET
          CFI EndBlock cfiCond50
          CFI EndBlock cfiCond51
          CFI EndBlock cfiCond52
          CFI EndBlock cfiPicker53

        RSEG BANKED_CODE:CODE:NOROOT(0)
?Subroutine27:
          CFI Block cfiCond54 Using cfiCommon0
          CFI Function MT_AfExec
          CFI Conditional ??CrossCallReturnLabel_40
          CFI R6 load(1, XDATA, add(CFA_XSP16, literal(-9)))
          CFI VB load(1, XDATA, add(CFA_XSP16, literal(-8)))
          CFI V0 load(1, XDATA, add(CFA_XSP16, literal(-7)))
          CFI R7 load(1, XDATA, add(CFA_XSP16, literal(-6)))
          CFI ?RET_LOW load(1, XDATA, add(CFA_XSP16, literal(-5)))
          CFI ?RET_HIGH load(1, XDATA, add(CFA_XSP16, literal(-4)))
          CFI ?BRET_EXT load(1, XDATA, add(CFA_XSP16, literal(-3)))
          CFI DPL0 load(1, XDATA, add(CFA_XSP16, literal(-2)))
          CFI DPH0 load(1, XDATA, add(CFA_XSP16, literal(-1)))
          CFI CFA_SP SP+-2
          CFI CFA_XSP16 add(XSP16, 9)
          CFI Block cfiCond55 Using cfiCommon0
          CFI (cfiCond55) Function MT_AfExec
          CFI (cfiCond55) Conditional ??CrossCallReturnLabel_41
          CFI (cfiCond55) R6 load(1, XDATA, add(CFA_XSP16, literal(-9)))
          CFI (cfiCond55) VB load(1, XDATA, add(CFA_XSP16, literal(-8)))
          CFI (cfiCond55) V0 load(1, XDATA, add(CFA_XSP16, literal(-7)))
          CFI (cfiCond55) R7 load(1, XDATA, add(CFA_XSP16, literal(-6)))
          CFI (cfiCond55) ?RET_LOW load(1, XDATA, add(CFA_XSP16, literal(-5)))
          CFI (cfiCond55) ?RET_HIGH load(1, XDATA, add(CFA_XSP16, literal(-4)))
          CFI (cfiCond55) ?BRET_EXT load(1, XDATA, add(CFA_XSP16, literal(-3)))
          CFI (cfiCond55) DPL0 load(1, XDATA, add(CFA_XSP16, literal(-2)))
          CFI (cfiCond55) DPH0 load(1, XDATA, add(CFA_XSP16, literal(-1)))
          CFI (cfiCond55) CFA_SP SP+-2
          CFI (cfiCond55) CFA_XSP16 add(XSP16, 9)
          CFI Block cfiCond56 Using cfiCommon0
          CFI (cfiCond56) Function MT_AfDataRequest
          CFI (cfiCond56) Conditional ??CrossCallReturnLabel_42
          CFI (cfiCond56) R6 load(1, XDATA, add(CFA_XSP16, literal(-22)))
          CFI (cfiCond56) VB load(1, XDATA, add(CFA_XSP16, literal(-21)))
          CFI (cfiCond56) V0 load(1, XDATA, add(CFA_XSP16, literal(-20)))
          CFI (cfiCond56) V1 load(1, XDATA, add(CFA_XSP16, literal(-19)))
          CFI (cfiCond56) V2 load(1, XDATA, add(CFA_XSP16, literal(-18)))
          CFI (cfiCond56) V3 load(1, XDATA, add(CFA_XSP16, literal(-17)))
          CFI (cfiCond56) V4 load(1, XDATA, add(CFA_XSP16, literal(-16)))
          CFI (cfiCond56) V5 load(1, XDATA, add(CFA_XSP16, literal(-15)))
          CFI (cfiCond56) V6 load(1, XDATA, add(CFA_XSP16, literal(-14)))
          CFI (cfiCond56) V7 load(1, XDATA, add(CFA_XSP16, literal(-13)))
          CFI (cfiCond56) V8 load(1, XDATA, add(CFA_XSP16, literal(-12)))
          CFI (cfiCond56) V9 load(1, XDATA, add(CFA_XSP16, literal(-11)))
          CFI (cfiCond56) V10 load(1, XDATA, add(CFA_XSP16, literal(-10)))
          CFI (cfiCond56) V11 load(1, XDATA, add(CFA_XSP16, literal(-9)))
          CFI (cfiCond56) V12 load(1, XDATA, add(CFA_XSP16, literal(-8)))
          CFI (cfiCond56) V13 load(1, XDATA, add(CFA_XSP16, literal(-7)))
          CFI (cfiCond56) R7 load(1, XDATA, add(CFA_XSP16, literal(-6)))
          CFI (cfiCond56) ?RET_LOW load(1, XDATA, add(CFA_XSP16, literal(-5)))
          CFI (cfiCond56) ?RET_HIGH load(1, XDATA, add(CFA_XSP16, literal(-4)))
          CFI (cfiCond56) ?BRET_EXT load(1, XDATA, add(CFA_XSP16, literal(-3)))
          CFI (cfiCond56) DPL0 load(1, XDATA, add(CFA_XSP16, literal(-2)))
          CFI (cfiCond56) DPH0 load(1, XDATA, add(CFA_XSP16, literal(-1)))
          CFI (cfiCond56) CFA_SP SP+-2
          CFI (cfiCond56) CFA_XSP16 add(XSP16, 36)
          CFI Block cfiCond57 Using cfiCommon0
          CFI (cfiCond57) Function MT_AfDataRequestSrcRtg
          CFI (cfiCond57) Conditional ??CrossCallReturnLabel_43
          CFI (cfiCond57) R6 load(1, XDATA, add(CFA_XSP16, literal(-20)))
          CFI (cfiCond57) VB load(1, XDATA, add(CFA_XSP16, literal(-19)))
          CFI (cfiCond57) V0 load(1, XDATA, add(CFA_XSP16, literal(-18)))
          CFI (cfiCond57) V1 load(1, XDATA, add(CFA_XSP16, literal(-17)))
          CFI (cfiCond57) V2 load(1, XDATA, add(CFA_XSP16, literal(-16)))
          CFI (cfiCond57) V3 load(1, XDATA, add(CFA_XSP16, literal(-15)))
          CFI (cfiCond57) V4 load(1, XDATA, add(CFA_XSP16, literal(-14)))
          CFI (cfiCond57) V5 load(1, XDATA, add(CFA_XSP16, literal(-13)))
          CFI (cfiCond57) V6 load(1, XDATA, add(CFA_XSP16, literal(-12)))
          CFI (cfiCond57) V7 load(1, XDATA, add(CFA_XSP16, literal(-11)))
          CFI (cfiCond57) V8 load(1, XDATA, add(CFA_XSP16, literal(-10)))
          CFI (cfiCond57) V9 load(1, XDATA, add(CFA_XSP16, literal(-9)))
          CFI (cfiCond57) V10 load(1, XDATA, add(CFA_XSP16, literal(-8)))
          CFI (cfiCond57) V11 load(1, XDATA, add(CFA_XSP16, literal(-7)))
          CFI (cfiCond57) R7 load(1, XDATA, add(CFA_XSP16, literal(-6)))
          CFI (cfiCond57) ?RET_LOW load(1, XDATA, add(CFA_XSP16, literal(-5)))
          CFI (cfiCond57) ?RET_HIGH load(1, XDATA, add(CFA_XSP16, literal(-4)))
          CFI (cfiCond57) ?BRET_EXT load(1, XDATA, add(CFA_XSP16, literal(-3)))
          CFI (cfiCond57) DPL0 load(1, XDATA, add(CFA_XSP16, literal(-2)))
          CFI (cfiCond57) DPH0 load(1, XDATA, add(CFA_XSP16, literal(-1)))
          CFI (cfiCond57) CFA_SP SP+-2
          CFI (cfiCond57) CFA_XSP16 add(XSP16, 34)
          CFI Block cfiCond58 Using cfiCommon0
          CFI (cfiCond58) Function MT_AfIncomingMsg
          CFI (cfiCond58) Conditional ??CrossCallReturnLabel_44
          CFI (cfiCond58) R6 load(1, XDATA, add(CFA_XSP16, literal(-23)))
          CFI (cfiCond58) VB load(1, XDATA, add(CFA_XSP16, literal(-22)))
          CFI (cfiCond58) V0 load(1, XDATA, add(CFA_XSP16, literal(-21)))
          CFI (cfiCond58) V1 load(1, XDATA, add(CFA_XSP16, literal(-20)))
          CFI (cfiCond58) V2 load(1, XDATA, add(CFA_XSP16, literal(-19)))
          CFI (cfiCond58) V3 load(1, XDATA, add(CFA_XSP16, literal(-18)))
          CFI (cfiCond58) V4 load(1, XDATA, add(CFA_XSP16, literal(-17)))
          CFI (cfiCond58) V5 load(1, XDATA, add(CFA_XSP16, literal(-16)))
          CFI (cfiCond58) V6 load(1, XDATA, add(CFA_XSP16, literal(-15)))
          CFI (cfiCond58) V7 load(1, XDATA, add(CFA_XSP16, literal(-14)))
          CFI (cfiCond58) V8 load(1, XDATA, add(CFA_XSP16, literal(-13)))
          CFI (cfiCond58) V9 load(1, XDATA, add(CFA_XSP16, literal(-12)))
          CFI (cfiCond58) V10 load(1, XDATA, add(CFA_XSP16, literal(-11)))
          CFI (cfiCond58) V11 load(1, XDATA, add(CFA_XSP16, literal(-10)))
          CFI (cfiCond58) V12 load(1, XDATA, add(CFA_XSP16, literal(-9)))
          CFI (cfiCond58) V13 load(1, XDATA, add(CFA_XSP16, literal(-8)))
          CFI (cfiCond58) V14 load(1, XDATA, add(CFA_XSP16, literal(-7)))
          CFI (cfiCond58) R7 load(1, XDATA, add(CFA_XSP16, literal(-6)))
          CFI (cfiCond58) ?RET_LOW load(1, XDATA, add(CFA_XSP16, literal(-5)))
          CFI (cfiCond58) ?RET_HIGH load(1, XDATA, add(CFA_XSP16, literal(-4)))
          CFI (cfiCond58) ?BRET_EXT load(1, XDATA, add(CFA_XSP16, literal(-3)))
          CFI (cfiCond58) DPL0 load(1, XDATA, add(CFA_XSP16, literal(-2)))
          CFI (cfiCond58) DPH0 load(1, XDATA, add(CFA_XSP16, literal(-1)))
          CFI (cfiCond58) CFA_SP SP+-2
          CFI (cfiCond58) CFA_XSP16 add(XSP16, 23)
          CFI Block cfiCond59 Using cfiCommon0
          CFI (cfiCond59) Function MT_AfIncomingMsg
          CFI (cfiCond59) Conditional ??CrossCallReturnLabel_45
          CFI (cfiCond59) R6 load(1, XDATA, add(CFA_XSP16, literal(-23)))
          CFI (cfiCond59) VB load(1, XDATA, add(CFA_XSP16, literal(-22)))
          CFI (cfiCond59) V0 load(1, XDATA, add(CFA_XSP16, literal(-21)))
          CFI (cfiCond59) V1 load(1, XDATA, add(CFA_XSP16, literal(-20)))
          CFI (cfiCond59) V2 load(1, XDATA, add(CFA_XSP16, literal(-19)))
          CFI (cfiCond59) V3 load(1, XDATA, add(CFA_XSP16, literal(-18)))
          CFI (cfiCond59) V4 load(1, XDATA, add(CFA_XSP16, literal(-17)))
          CFI (cfiCond59) V5 load(1, XDATA, add(CFA_XSP16, literal(-16)))
          CFI (cfiCond59) V6 load(1, XDATA, add(CFA_XSP16, literal(-15)))
          CFI (cfiCond59) V7 load(1, XDATA, add(CFA_XSP16, literal(-14)))
          CFI (cfiCond59) V8 load(1, XDATA, add(CFA_XSP16, literal(-13)))
          CFI (cfiCond59) V9 load(1, XDATA, add(CFA_XSP16, literal(-12)))
          CFI (cfiCond59) V10 load(1, XDATA, add(CFA_XSP16, literal(-11)))
          CFI (cfiCond59) V11 load(1, XDATA, add(CFA_XSP16, literal(-10)))
          CFI (cfiCond59) V12 load(1, XDATA, add(CFA_XSP16, literal(-9)))
          CFI (cfiCond59) V13 load(1, XDATA, add(CFA_XSP16, literal(-8)))
          CFI (cfiCond59) V14 load(1, XDATA, add(CFA_XSP16, literal(-7)))
          CFI (cfiCond59) R7 load(1, XDATA, add(CFA_XSP16, literal(-6)))
          CFI (cfiCond59) ?RET_LOW load(1, XDATA, add(CFA_XSP16, literal(-5)))
          CFI (cfiCond59) ?RET_HIGH load(1, XDATA, add(CFA_XSP16, literal(-4)))
          CFI (cfiCond59) ?BRET_EXT load(1, XDATA, add(CFA_XSP16, literal(-3)))
          CFI (cfiCond59) DPL0 load(1, XDATA, add(CFA_XSP16, literal(-2)))
          CFI (cfiCond59) DPH0 load(1, XDATA, add(CFA_XSP16, literal(-1)))
          CFI (cfiCond59) CFA_SP SP+-2
          CFI (cfiCond59) CFA_XSP16 add(XSP16, 23)
          CFI Block cfiCond60 Using cfiCommon0
          CFI (cfiCond60) Function MT_AfDataRetrieve
          CFI (cfiCond60) Conditional ??CrossCallReturnLabel_46
          CFI (cfiCond60) R6 load(1, XDATA, add(CFA_XSP16, literal(-21)))
          CFI (cfiCond60) VB load(1, XDATA, add(CFA_XSP16, literal(-20)))
          CFI (cfiCond60) V0 load(1, XDATA, add(CFA_XSP16, literal(-19)))
          CFI (cfiCond60) V1 load(1, XDATA, add(CFA_XSP16, literal(-18)))
          CFI (cfiCond60) V2 load(1, XDATA, add(CFA_XSP16, literal(-17)))
          CFI (cfiCond60) V3 load(1, XDATA, add(CFA_XSP16, literal(-16)))
          CFI (cfiCond60) V4 load(1, XDATA, add(CFA_XSP16, literal(-15)))
          CFI (cfiCond60) V5 load(1, XDATA, add(CFA_XSP16, literal(-14)))
          CFI (cfiCond60) V6 load(1, XDATA, add(CFA_XSP16, literal(-13)))
          CFI (cfiCond60) V7 load(1, XDATA, add(CFA_XSP16, literal(-12)))
          CFI (cfiCond60) V8 load(1, XDATA, add(CFA_XSP16, literal(-11)))
          CFI (cfiCond60) V9 load(1, XDATA, add(CFA_XSP16, literal(-10)))
          CFI (cfiCond60) V10 load(1, XDATA, add(CFA_XSP16, literal(-9)))
          CFI (cfiCond60) V11 load(1, XDATA, add(CFA_XSP16, literal(-8)))
          CFI (cfiCond60) V12 load(1, XDATA, add(CFA_XSP16, literal(-7)))
          CFI (cfiCond60) R7 load(1, XDATA, add(CFA_XSP16, literal(-6)))
          CFI (cfiCond60) ?RET_LOW load(1, XDATA, add(CFA_XSP16, literal(-5)))
          CFI (cfiCond60) ?RET_HIGH load(1, XDATA, add(CFA_XSP16, literal(-4)))
          CFI (cfiCond60) ?BRET_EXT load(1, XDATA, add(CFA_XSP16, literal(-3)))
          CFI (cfiCond60) DPL0 load(1, XDATA, add(CFA_XSP16, literal(-2)))
          CFI (cfiCond60) DPH0 load(1, XDATA, add(CFA_XSP16, literal(-1)))
          CFI (cfiCond60) CFA_SP SP+-2
          CFI (cfiCond60) CFA_XSP16 add(XSP16, 21)
          CFI Block cfiPicker61 Using cfiCommon1
          CFI (cfiPicker61) NoFunction
          CFI (cfiPicker61) Picker
        MOV     A,R0
        MOVX    @DPTR,A
        INC     DPTR
        MOV     A,R1
        MOVX    @DPTR,A
        RET
          CFI EndBlock cfiCond54
          CFI EndBlock cfiCond55
          CFI EndBlock cfiCond56
          CFI EndBlock cfiCond57
          CFI EndBlock cfiCond58
          CFI EndBlock cfiCond59
          CFI EndBlock cfiCond60
          CFI EndBlock cfiPicker61

        RSEG BANKED_CODE:CODE:NOROOT(0)
?Subroutine5:
          CFI Block cfiCond62 Using cfiCommon0
          CFI Function MT_AfDataRequest
          CFI Conditional ??CrossCallReturnLabel_2
          CFI R6 load(1, XDATA, add(CFA_XSP16, literal(-22)))
          CFI VB load(1, XDATA, add(CFA_XSP16, literal(-21)))
          CFI V0 load(1, XDATA, add(CFA_XSP16, literal(-20)))
          CFI V1 load(1, XDATA, add(CFA_XSP16, literal(-19)))
          CFI V2 load(1, XDATA, add(CFA_XSP16, literal(-18)))
          CFI V3 load(1, XDATA, add(CFA_XSP16, literal(-17)))
          CFI V4 load(1, XDATA, add(CFA_XSP16, literal(-16)))
          CFI V5 load(1, XDATA, add(CFA_XSP16, literal(-15)))
          CFI V6 load(1, XDATA, add(CFA_XSP16, literal(-14)))
          CFI V7 load(1, XDATA, add(CFA_XSP16, literal(-13)))
          CFI V8 load(1, XDATA, add(CFA_XSP16, literal(-12)))
          CFI V9 load(1, XDATA, add(CFA_XSP16, literal(-11)))
          CFI V10 load(1, XDATA, add(CFA_XSP16, literal(-10)))
          CFI V11 load(1, XDATA, add(CFA_XSP16, literal(-9)))
          CFI V12 load(1, XDATA, add(CFA_XSP16, literal(-8)))
          CFI V13 load(1, XDATA, add(CFA_XSP16, literal(-7)))
          CFI R7 load(1, XDATA, add(CFA_XSP16, literal(-6)))
          CFI ?RET_LOW load(1, XDATA, add(CFA_XSP16, literal(-5)))
          CFI ?RET_HIGH load(1, XDATA, add(CFA_XSP16, literal(-4)))
          CFI ?BRET_EXT load(1, XDATA, add(CFA_XSP16, literal(-3)))
          CFI DPL0 load(1, XDATA, add(CFA_XSP16, literal(-2)))
          CFI DPH0 load(1, XDATA, add(CFA_XSP16, literal(-1)))
          CFI CFA_SP SP+-2
          CFI CFA_XSP16 add(XSP16, 36)
          CFI Block cfiCond63 Using cfiCommon0
          CFI (cfiCond63) Function MT_AfDataRequest
          CFI (cfiCond63) Conditional ??CrossCallReturnLabel_3
          CFI (cfiCond63) R6 load(1, XDATA, add(CFA_XSP16, literal(-22)))
          CFI (cfiCond63) VB load(1, XDATA, add(CFA_XSP16, literal(-21)))
          CFI (cfiCond63) V0 load(1, XDATA, add(CFA_XSP16, literal(-20)))
          CFI (cfiCond63) V1 load(1, XDATA, add(CFA_XSP16, literal(-19)))
          CFI (cfiCond63) V2 load(1, XDATA, add(CFA_XSP16, literal(-18)))
          CFI (cfiCond63) V3 load(1, XDATA, add(CFA_XSP16, literal(-17)))
          CFI (cfiCond63) V4 load(1, XDATA, add(CFA_XSP16, literal(-16)))
          CFI (cfiCond63) V5 load(1, XDATA, add(CFA_XSP16, literal(-15)))
          CFI (cfiCond63) V6 load(1, XDATA, add(CFA_XSP16, literal(-14)))
          CFI (cfiCond63) V7 load(1, XDATA, add(CFA_XSP16, literal(-13)))
          CFI (cfiCond63) V8 load(1, XDATA, add(CFA_XSP16, literal(-12)))
          CFI (cfiCond63) V9 load(1, XDATA, add(CFA_XSP16, literal(-11)))
          CFI (cfiCond63) V10 load(1, XDATA, add(CFA_XSP16, literal(-10)))
          CFI (cfiCond63) V11 load(1, XDATA, add(CFA_XSP16, literal(-9)))
          CFI (cfiCond63) V12 load(1, XDATA, add(CFA_XSP16, literal(-8)))
          CFI (cfiCond63) V13 load(1, XDATA, add(CFA_XSP16, literal(-7)))
          CFI (cfiCond63) R7 load(1, XDATA, add(CFA_XSP16, literal(-6)))
          CFI (cfiCond63) ?RET_LOW load(1, XDATA, add(CFA_XSP16, literal(-5)))
          CFI (cfiCond63) ?RET_HIGH load(1, XDATA, add(CFA_XSP16, literal(-4)))
          CFI (cfiCond63) ?BRET_EXT load(1, XDATA, add(CFA_XSP16, literal(-3)))
          CFI (cfiCond63) DPL0 load(1, XDATA, add(CFA_XSP16, literal(-2)))
          CFI (cfiCond63) DPH0 load(1, XDATA, add(CFA_XSP16, literal(-1)))
          CFI (cfiCond63) CFA_SP SP+-2
          CFI (cfiCond63) CFA_XSP16 add(XSP16, 36)
          CFI Block cfiCond64 Using cfiCommon0
          CFI (cfiCond64) Function MT_AfDataRequestSrcRtg
          CFI (cfiCond64) Conditional ??CrossCallReturnLabel_4
          CFI (cfiCond64) R6 load(1, XDATA, add(CFA_XSP16, literal(-20)))
          CFI (cfiCond64) VB load(1, XDATA, add(CFA_XSP16, literal(-19)))
          CFI (cfiCond64) V0 load(1, XDATA, add(CFA_XSP16, literal(-18)))
          CFI (cfiCond64) V1 load(1, XDATA, add(CFA_XSP16, literal(-17)))
          CFI (cfiCond64) V2 load(1, XDATA, add(CFA_XSP16, literal(-16)))
          CFI (cfiCond64) V3 load(1, XDATA, add(CFA_XSP16, literal(-15)))
          CFI (cfiCond64) V4 load(1, XDATA, add(CFA_XSP16, literal(-14)))
          CFI (cfiCond64) V5 load(1, XDATA, add(CFA_XSP16, literal(-13)))
          CFI (cfiCond64) V6 load(1, XDATA, add(CFA_XSP16, literal(-12)))
          CFI (cfiCond64) V7 load(1, XDATA, add(CFA_XSP16, literal(-11)))
          CFI (cfiCond64) V8 load(1, XDATA, add(CFA_XSP16, literal(-10)))
          CFI (cfiCond64) V9 load(1, XDATA, add(CFA_XSP16, literal(-9)))
          CFI (cfiCond64) V10 load(1, XDATA, add(CFA_XSP16, literal(-8)))
          CFI (cfiCond64) V11 load(1, XDATA, add(CFA_XSP16, literal(-7)))
          CFI (cfiCond64) R7 load(1, XDATA, add(CFA_XSP16, literal(-6)))
          CFI (cfiCond64) ?RET_LOW load(1, XDATA, add(CFA_XSP16, literal(-5)))
          CFI (cfiCond64) ?RET_HIGH load(1, XDATA, add(CFA_XSP16, literal(-4)))
          CFI (cfiCond64) ?BRET_EXT load(1, XDATA, add(CFA_XSP16, literal(-3)))
          CFI (cfiCond64) DPL0 load(1, XDATA, add(CFA_XSP16, literal(-2)))
          CFI (cfiCond64) DPH0 load(1, XDATA, add(CFA_XSP16, literal(-1)))
          CFI (cfiCond64) CFA_SP SP+-2
          CFI (cfiCond64) CFA_XSP16 add(XSP16, 34)
          CFI Block cfiPicker65 Using cfiCommon1
          CFI (cfiPicker65) NoFunction
          CFI (cfiPicker65) Picker
        MOVX    A,@DPTR
        MOV     R2,A
        INC     DPTR
        MOVX    A,@DPTR
        MOV     R1,A
        MOV     A,R2
        MOV     R0,A
        MOV     A,#0x2
        RET
          CFI EndBlock cfiCond62
          CFI EndBlock cfiCond63
          CFI EndBlock cfiCond64
          CFI EndBlock cfiPicker65
//  563 #endif
//  564 
//  565 #if defined INTER_PAN
//  566 /***************************************************************************************************
//  567  * @fn      MT_AfInterPanCtl
//  568  *
//  569  * @brief   Process the AF Inter Pan control command.
//  570  *
//  571  * @param   pBuf - pointer to the received buffer
//  572  *
//  573  * @return  none
//  574  ***************************************************************************************************/
//  575 static void MT_AfInterPanCtl(uint8 *pBuf)
//  576 {
//  577   uint8 cmd, rtrn;
//  578   uint16 panId;
//  579   endPointDesc_t *pEP;
//  580 
//  581   cmd = pBuf[MT_RPC_POS_CMD1];
//  582   pBuf += MT_RPC_FRAME_HDR_SZ;
//  583 
//  584   switch (*pBuf++)  // Inter-pan request parameter.
//  585   {
//  586   case InterPanClr:
//  587     rtrn = StubAPS_SetIntraPanChannel();           // Switch channel back to the NIB channel.
//  588     break;
//  589 
//  590   case InterPanSet:
//  591     rtrn = StubAPS_SetInterPanChannel(*pBuf);      // Set channel for inter-pan communication.
//  592     break;
//  593 
//  594   case InterPanReg:
//  595     if ((pEP = afFindEndPointDesc(*pBuf)))
//  596     {
//  597       StubAPS_RegisterApp(pEP);
//  598       rtrn = SUCCESS;
//  599     }
//  600     else
//  601     {
//  602       rtrn = FAILURE;
//  603     }
//  604     break;
//  605 
//  606   case InterPanChk:
//  607     panId = BUILD_UINT16(pBuf[0], pBuf[1]);
//  608     rtrn = (StubAPS_InterPan(panId, pBuf[2])) ? ZSuccess : ZFailure;
//  609     break;
//  610 
//  611   default:
//  612     rtrn = afStatus_INVALID_PARAMETER;
//  613     break;
//  614   }
//  615 
//  616   MT_BuildAndSendZToolResponse(((uint8)MT_RPC_CMD_SRSP | (uint8)MT_RPC_SYS_AF), cmd, 1, &rtrn);
//  617 }
//  618 #endif
//  619 
//  620 /***************************************************************************************************
//  621  * @fn      MT_AfDataConfirm
//  622  *
//  623  * @brief   Process
//  624  *
//  625  * @param   pBuf - pointer to the received buffer
//  626  *
//  627  * @return  none
//  628  ***************************************************************************************************/

        RSEG BANKED_CODE:CODE:NOROOT(0)
//  629 void MT_AfDataConfirm(afDataConfirm_t *pMsg)
MT_AfDataConfirm:
          CFI Block cfiBlock66 Using cfiCommon0
          CFI Function MT_AfDataConfirm
        CODE
//  630 {
        FUNCALL MT_AfDataConfirm, MT_BuildAndSendZToolResponse
        LOCFRAME ISTACK, 2, STACK
        LOCFRAME PSTACK, 0, STACK
        LOCFRAME XSTACK, 3, STACK
        LOCFRAME IOVERLAY, 0, STATIC
        LOCFRAME DOVERLAY, 0, STATIC
        ARGFRAME ISTACK, 2, STACK
        ARGFRAME PSTACK, 0, STACK
        ARGFRAME XSTACK, 3, STACK
        ARGFRAME IOVERLAY, 0, STATIC
        ARGFRAME DOVERLAY, 0, STATIC
        PUSH    DPL
          CFI DPL0 Frame(CFA_SP, 4)
          CFI CFA_SP SP+-4
        PUSH    DPH
          CFI DPH0 Frame(CFA_SP, 5)
          CFI CFA_SP SP+-5
        ; Saved register size: 2
        ; Auto size: 3
        MOV     A,#-0x3
        LCALL   ?ALLOC_XSTACK8
          CFI CFA_XSP16 add(XSP16, 3)
//  631   uint8 retArray[3];
//  632 
//  633   retArray[0] = pMsg->hdr.status;
        LCALL   ?Subroutine6 & 0xFFFF
//  634   retArray[1] = pMsg->endpoint;
??CrossCallReturnLabel_5:
        PUSH    A
          CFI CFA_SP SP+-6
        MOV     A,#0x1
        LCALL   ?XSTACK_DISP0_8
        POP     A
          CFI CFA_SP SP+-5
        LCALL   ?Subroutine29 & 0xFFFF
//  635   retArray[2] = pMsg->transID;
??CrossCallReturnLabel_50:
        PUSH    A
          CFI CFA_SP SP+-6
        MOV     A,#0x2
        LCALL   ?XSTACK_DISP0_8
        POP     A
          CFI CFA_SP SP+-5
        LCALL   ?Subroutine30 & 0xFFFF
//  636 
//  637   /* Build and send back the response */
//  638   MT_BuildAndSendZToolResponse(((uint8)MT_RPC_CMD_AREQ | (uint8)MT_RPC_SYS_AF), MT_AF_DATA_CONFIRM, 3, retArray);
??CrossCallReturnLabel_53:
        MOV     R3,#0x3
        MOV     R2,#-0x80
        MOV     R1,#0x44
        LCALL   ??MT_BuildAndSendZToolResponse?relay; Banked call to: MT_BuildAndSendZToolResponse
//  639 }
        MOV     A,#0x3
          CFI EndBlock cfiBlock66
        REQUIRE ?Subroutine1
        ; // Fall through to label ?Subroutine1

        RSEG BANKED_CODE:CODE:NOROOT(0)
?Subroutine1:
          CFI Block cfiBlock67 Using cfiCommon0
          CFI NoFunction
          CFI CFA_SP SP+-5
          CFI CFA_XSP16 add(XSP16, 3)
          CFI DPL0 Frame(CFA_SP, 4)
          CFI DPH0 Frame(CFA_SP, 5)
          CFI Invalid
        LCALL   ?DEALLOC_XSTACK8
          CFI CFA_XSP16 XSP16+0
          CFI Valid
        POP     DPH
          CFI CFA_SP SP+-4
          CFI DPH0 SameValue
        POP     DPL
          CFI CFA_SP SP+-3
          CFI DPL0 SameValue
        LJMP    ?BRET
          CFI EndBlock cfiBlock67
//  640 
//  641 /***************************************************************************************************
//  642  * @fn      MT_AfReflectError
//  643  *
//  644  * @brief   Process
//  645  *
//  646  * @param   pBuf - pointer to the received buffer
//  647  *
//  648  * @return  none
//  649  ***************************************************************************************************/

        RSEG BANKED_CODE:CODE:NOROOT(0)
//  650 void MT_AfReflectError(afReflectError_t *pMsg)
MT_AfReflectError:
          CFI Block cfiBlock68 Using cfiCommon0
          CFI Function MT_AfReflectError
        CODE
//  651 {
        FUNCALL MT_AfReflectError, MT_BuildAndSendZToolResponse
        LOCFRAME ISTACK, 2, STACK
        LOCFRAME PSTACK, 0, STACK
        LOCFRAME XSTACK, 6, STACK
        LOCFRAME IOVERLAY, 0, STATIC
        LOCFRAME DOVERLAY, 0, STATIC
        ARGFRAME ISTACK, 2, STACK
        ARGFRAME PSTACK, 0, STACK
        ARGFRAME XSTACK, 6, STACK
        ARGFRAME IOVERLAY, 0, STATIC
        ARGFRAME DOVERLAY, 0, STATIC
        PUSH    DPL
          CFI DPL0 Frame(CFA_SP, 4)
          CFI CFA_SP SP+-4
        PUSH    DPH
          CFI DPH0 Frame(CFA_SP, 5)
          CFI CFA_SP SP+-5
        ; Saved register size: 2
        ; Auto size: 6
        MOV     A,#-0x6
        LCALL   ?ALLOC_XSTACK8
          CFI CFA_XSP16 add(XSP16, 6)
//  652   uint8 retArray[6];
//  653 
//  654   retArray[0] = pMsg->hdr.status;
        LCALL   ?Subroutine6 & 0xFFFF
//  655   retArray[1] = pMsg->endpoint;
??CrossCallReturnLabel_6:
        PUSH    A
          CFI CFA_SP SP+-6
        MOV     A,#0x1
        LCALL   ?XSTACK_DISP0_8
        POP     A
          CFI CFA_SP SP+-5
        LCALL   ?Subroutine29 & 0xFFFF
//  656   retArray[2] = pMsg->transID;
??CrossCallReturnLabel_51:
        PUSH    A
          CFI CFA_SP SP+-6
        MOV     A,#0x2
        LCALL   ?XSTACK_DISP0_8
        POP     A
          CFI CFA_SP SP+-5
        LCALL   ?Subroutine39 & 0xFFFF
//  657   retArray[3] = pMsg->dstAddrMode;
??CrossCallReturnLabel_78:
        INC     DPTR
        MOVX    A,@DPTR
        PUSH    A
          CFI CFA_SP SP+-6
        MOV     A,#0x3
        LCALL   ?XSTACK_DISP0_8
        POP     A
          CFI CFA_SP SP+-5
        MOVX    @DPTR,A
//  658   retArray[4] = LO_UINT16( pMsg->dstAddr );
        MOV     A,R2
        ADD     A,#0x5
        MOV     R0,A
        CLR     A
        ADDC    A,R3
        MOV     R1,A
        MOV     DPL,R0
        MOV     DPH,R1
        MOVX    A,@DPTR
        PUSH    A
          CFI CFA_SP SP+-6
        MOV     A,#0x4
        LCALL   ?XSTACK_DISP0_8
        POP     A
          CFI CFA_SP SP+-5
        LCALL   ?Subroutine28 & 0xFFFF
//  659   retArray[5] = HI_UINT16( pMsg->dstAddr );
??CrossCallReturnLabel_48:
        MOVX    A,@DPTR
        PUSH    A
          CFI CFA_SP SP+-6
        MOV     A,#0x5
        LCALL   ?XSTACK_DISP0_8
        POP     A
          CFI CFA_SP SP+-5
        LCALL   ?Subroutine30 & 0xFFFF
//  660 
//  661   /* Build and send back the response */
//  662   MT_BuildAndSendZToolResponse(((uint8)MT_RPC_CMD_AREQ | (uint8)MT_RPC_SYS_AF), MT_AF_REFLECT_ERROR, 6, retArray);
??CrossCallReturnLabel_54:
        MOV     R3,#0x6
        MOV     R2,#-0x7d
        MOV     R1,#0x44
        LCALL   ??MT_BuildAndSendZToolResponse?relay; Banked call to: MT_BuildAndSendZToolResponse
//  663 }
        MOV     A,#0x6
        SJMP    ?Subroutine1
          CFI EndBlock cfiBlock68

        RSEG BANKED_CODE:CODE:NOROOT(0)
?Subroutine30:
          CFI Block cfiCond69 Using cfiCommon0
          CFI Function MT_AfDelete
          CFI Conditional ??CrossCallReturnLabel_52
          CFI R6 load(1, XDATA, add(CFA_XSP16, literal(-9)))
          CFI VB load(1, XDATA, add(CFA_XSP16, literal(-8)))
          CFI V0 load(1, XDATA, add(CFA_XSP16, literal(-7)))
          CFI R7 load(1, XDATA, add(CFA_XSP16, literal(-6)))
          CFI ?RET_LOW load(1, XDATA, add(CFA_XSP16, literal(-5)))
          CFI ?RET_HIGH load(1, XDATA, add(CFA_XSP16, literal(-4)))
          CFI ?BRET_EXT load(1, XDATA, add(CFA_XSP16, literal(-3)))
          CFI DPL0 load(1, XDATA, add(CFA_XSP16, literal(-2)))
          CFI DPH0 load(1, XDATA, add(CFA_XSP16, literal(-1)))
          CFI CFA_SP SP+-2
          CFI CFA_XSP16 add(XSP16, 10)
          CFI Block cfiCond70 Using cfiCommon0
          CFI (cfiCond70) Function MT_AfDataConfirm
          CFI (cfiCond70) Conditional ??CrossCallReturnLabel_53
          CFI (cfiCond70) DPL0 Frame(CFA_SP, 4)
          CFI (cfiCond70) DPH0 Frame(CFA_SP, 5)
          CFI (cfiCond70) CFA_SP SP+-7
          CFI (cfiCond70) CFA_XSP16 add(XSP16, 3)
          CFI Block cfiCond71 Using cfiCommon0
          CFI (cfiCond71) Function MT_AfReflectError
          CFI (cfiCond71) Conditional ??CrossCallReturnLabel_54
          CFI (cfiCond71) DPL0 Frame(CFA_SP, 4)
          CFI (cfiCond71) DPH0 Frame(CFA_SP, 5)
          CFI (cfiCond71) CFA_SP SP+-7
          CFI (cfiCond71) CFA_XSP16 add(XSP16, 6)
          CFI Block cfiCond72 Using cfiCommon0
          CFI (cfiCond72) Function MT_AfDataStore
          CFI (cfiCond72) Conditional ??CrossCallReturnLabel_55
          CFI (cfiCond72) R6 load(1, XDATA, add(CFA_XSP16, literal(-11)))
          CFI (cfiCond72) VB load(1, XDATA, add(CFA_XSP16, literal(-10)))
          CFI (cfiCond72) V0 load(1, XDATA, add(CFA_XSP16, literal(-9)))
          CFI (cfiCond72) V1 load(1, XDATA, add(CFA_XSP16, literal(-8)))
          CFI (cfiCond72) V2 load(1, XDATA, add(CFA_XSP16, literal(-7)))
          CFI (cfiCond72) R7 load(1, XDATA, add(CFA_XSP16, literal(-6)))
          CFI (cfiCond72) ?RET_LOW load(1, XDATA, add(CFA_XSP16, literal(-5)))
          CFI (cfiCond72) ?RET_HIGH load(1, XDATA, add(CFA_XSP16, literal(-4)))
          CFI (cfiCond72) ?BRET_EXT load(1, XDATA, add(CFA_XSP16, literal(-3)))
          CFI (cfiCond72) DPL0 load(1, XDATA, add(CFA_XSP16, literal(-2)))
          CFI (cfiCond72) DPH0 load(1, XDATA, add(CFA_XSP16, literal(-1)))
          CFI (cfiCond72) CFA_SP SP+-2
          CFI (cfiCond72) CFA_XSP16 add(XSP16, 12)
          CFI Block cfiPicker73 Using cfiCommon1
          CFI (cfiPicker73) NoFunction
          CFI (cfiPicker73) Picker
        MOVX    @DPTR,A
        ; Setup parameters for call to function MT_BuildAndSendZToolResponse
        ; Setup parameters for call to function MT_BuildAndSendZToolResponse
        ; Setup parameters for call to function MT_BuildAndSendZToolResponse
        ; Setup parameters for call to function MT_BuildAndSendZToolResponse
        MOV     R4,?XSP + 0
        MOV     R5,?XSP + 1
        RET
          CFI EndBlock cfiCond69
          CFI EndBlock cfiCond70
          CFI EndBlock cfiCond71
          CFI EndBlock cfiCond72
          CFI EndBlock cfiPicker73

        RSEG BANKED_CODE:CODE:NOROOT(0)
?Subroutine29:
          CFI Block cfiCond74 Using cfiCommon0
          CFI Function MT_AfDataConfirm
          CFI Conditional ??CrossCallReturnLabel_50
          CFI DPL0 Frame(CFA_SP, 4)
          CFI DPH0 Frame(CFA_SP, 5)
          CFI CFA_SP SP+-7
          CFI CFA_XSP16 add(XSP16, 3)
          CFI Block cfiCond75 Using cfiCommon0
          CFI (cfiCond75) Function MT_AfReflectError
          CFI (cfiCond75) Conditional ??CrossCallReturnLabel_51
          CFI (cfiCond75) DPL0 Frame(CFA_SP, 4)
          CFI (cfiCond75) DPH0 Frame(CFA_SP, 5)
          CFI (cfiCond75) CFA_SP SP+-7
          CFI (cfiCond75) CFA_XSP16 add(XSP16, 6)
          CFI Block cfiPicker76 Using cfiCommon1
          CFI (cfiPicker76) NoFunction
          CFI (cfiPicker76) Picker
        LCALL   ?Subroutine39 & 0xFFFF
??CrossCallReturnLabel_79:
        MOVX    A,@DPTR
        RET
          CFI EndBlock cfiCond74
          CFI EndBlock cfiCond75
          CFI EndBlock cfiPicker76

        RSEG BANKED_CODE:CODE:NOROOT(0)
?Subroutine39:
          CFI Block cfiCond77 Using cfiCommon0
          CFI Function MT_AfReflectError
          CFI Conditional ??CrossCallReturnLabel_78
          CFI DPL0 Frame(CFA_SP, 4)
          CFI DPH0 Frame(CFA_SP, 5)
          CFI CFA_SP SP+-7
          CFI CFA_XSP16 add(XSP16, 6)
          CFI Block cfiCond78 Using cfiCommon0
          CFI (cfiCond78) Function MT_AfDataConfirm
          CFI (cfiCond78) Conditional ??CrossCallReturnLabel_79, ??CrossCallReturnLabel_50
          CFI (cfiCond78) DPL0 Frame(CFA_SP, 4)
          CFI (cfiCond78) DPH0 Frame(CFA_SP, 5)
          CFI (cfiCond78) CFA_SP SP+-9
          CFI (cfiCond78) CFA_XSP16 add(XSP16, 3)
          CFI Block cfiCond79 Using cfiCommon0
          CFI (cfiCond79) Function MT_AfReflectError
          CFI (cfiCond79) Conditional ??CrossCallReturnLabel_79, ??CrossCallReturnLabel_51
          CFI (cfiCond79) DPL0 Frame(CFA_SP, 4)
          CFI (cfiCond79) DPH0 Frame(CFA_SP, 5)
          CFI (cfiCond79) CFA_SP SP+-9
          CFI (cfiCond79) CFA_XSP16 add(XSP16, 6)
          CFI Block cfiPicker80 Using cfiCommon1
          CFI (cfiPicker80) NoFunction
          CFI (cfiPicker80) Picker
        LCALL   ?Subroutine44 & 0xFFFF
??CrossCallReturnLabel_88:
        INC     DPTR
        INC     DPTR
        RET
          CFI EndBlock cfiCond77
          CFI EndBlock cfiCond78
          CFI EndBlock cfiCond79
          CFI EndBlock cfiPicker80

        RSEG BANKED_CODE:CODE:NOROOT(0)
?Subroutine44:
          CFI Block cfiCond81 Using cfiCommon0
          CFI Function MT_AfDataRequest
          CFI Conditional ??CrossCallReturnLabel_87
          CFI R6 load(1, XDATA, add(CFA_XSP16, literal(-22)))
          CFI VB load(1, XDATA, add(CFA_XSP16, literal(-21)))
          CFI V0 load(1, XDATA, add(CFA_XSP16, literal(-20)))
          CFI V1 load(1, XDATA, add(CFA_XSP16, literal(-19)))
          CFI V2 load(1, XDATA, add(CFA_XSP16, literal(-18)))
          CFI V3 load(1, XDATA, add(CFA_XSP16, literal(-17)))
          CFI V4 load(1, XDATA, add(CFA_XSP16, literal(-16)))
          CFI V5 load(1, XDATA, add(CFA_XSP16, literal(-15)))
          CFI V6 load(1, XDATA, add(CFA_XSP16, literal(-14)))
          CFI V7 load(1, XDATA, add(CFA_XSP16, literal(-13)))
          CFI V8 load(1, XDATA, add(CFA_XSP16, literal(-12)))
          CFI V9 load(1, XDATA, add(CFA_XSP16, literal(-11)))
          CFI V10 load(1, XDATA, add(CFA_XSP16, literal(-10)))
          CFI V11 load(1, XDATA, add(CFA_XSP16, literal(-9)))
          CFI V12 load(1, XDATA, add(CFA_XSP16, literal(-8)))
          CFI V13 load(1, XDATA, add(CFA_XSP16, literal(-7)))
          CFI R7 load(1, XDATA, add(CFA_XSP16, literal(-6)))
          CFI ?RET_LOW load(1, XDATA, add(CFA_XSP16, literal(-5)))
          CFI ?RET_HIGH load(1, XDATA, add(CFA_XSP16, literal(-4)))
          CFI ?BRET_EXT load(1, XDATA, add(CFA_XSP16, literal(-3)))
          CFI DPL0 load(1, XDATA, add(CFA_XSP16, literal(-2)))
          CFI DPH0 load(1, XDATA, add(CFA_XSP16, literal(-1)))
          CFI CFA_SP SP+-2
          CFI CFA_XSP16 add(XSP16, 36)
          CFI Block cfiCond82 Using cfiCommon0
          CFI (cfiCond82) Function MT_AfReflectError
          CFI (cfiCond82) Conditional ??CrossCallReturnLabel_88, ??CrossCallReturnLabel_78
          CFI (cfiCond82) DPL0 Frame(CFA_SP, 4)
          CFI (cfiCond82) DPH0 Frame(CFA_SP, 5)
          CFI (cfiCond82) CFA_SP SP+-9
          CFI (cfiCond82) CFA_XSP16 add(XSP16, 6)
          CFI Block cfiCond83 Using cfiCommon0
          CFI (cfiCond83) Function MT_AfDataConfirm
          CFI (cfiCond83) Conditional ??CrossCallReturnLabel_88, ??CrossCallReturnLabel_79, ??CrossCallReturnLabel_50
          CFI (cfiCond83) DPL0 Frame(CFA_SP, 4)
          CFI (cfiCond83) DPH0 Frame(CFA_SP, 5)
          CFI (cfiCond83) CFA_SP SP+-11
          CFI (cfiCond83) CFA_XSP16 add(XSP16, 3)
          CFI Block cfiCond84 Using cfiCommon0
          CFI (cfiCond84) Function MT_AfReflectError
          CFI (cfiCond84) Conditional ??CrossCallReturnLabel_88, ??CrossCallReturnLabel_79, ??CrossCallReturnLabel_51
          CFI (cfiCond84) DPL0 Frame(CFA_SP, 4)
          CFI (cfiCond84) DPH0 Frame(CFA_SP, 5)
          CFI (cfiCond84) CFA_SP SP+-11
          CFI (cfiCond84) CFA_XSP16 add(XSP16, 6)
          CFI Block cfiCond85 Using cfiCommon0
          CFI (cfiCond85) Function MT_AfRegister
          CFI (cfiCond85) Conditional ??CrossCallReturnLabel_89, ??CrossCallReturnLabel_76, ??CrossCallReturnLabel_59
          CFI (cfiCond85) R6 load(1, XDATA, add(CFA_XSP16, literal(-14)))
          CFI (cfiCond85) VB load(1, XDATA, add(CFA_XSP16, literal(-13)))
          CFI (cfiCond85) V0 load(1, XDATA, add(CFA_XSP16, literal(-12)))
          CFI (cfiCond85) V1 load(1, XDATA, add(CFA_XSP16, literal(-11)))
          CFI (cfiCond85) V2 load(1, XDATA, add(CFA_XSP16, literal(-10)))
          CFI (cfiCond85) V3 load(1, XDATA, add(CFA_XSP16, literal(-9)))
          CFI (cfiCond85) V4 load(1, XDATA, add(CFA_XSP16, literal(-8)))
          CFI (cfiCond85) V5 load(1, XDATA, add(CFA_XSP16, literal(-7)))
          CFI (cfiCond85) R7 load(1, XDATA, add(CFA_XSP16, literal(-6)))
          CFI (cfiCond85) ?RET_LOW load(1, XDATA, add(CFA_XSP16, literal(-5)))
          CFI (cfiCond85) ?RET_HIGH load(1, XDATA, add(CFA_XSP16, literal(-4)))
          CFI (cfiCond85) ?BRET_EXT load(1, XDATA, add(CFA_XSP16, literal(-3)))
          CFI (cfiCond85) DPL0 load(1, XDATA, add(CFA_XSP16, literal(-2)))
          CFI (cfiCond85) DPH0 load(1, XDATA, add(CFA_XSP16, literal(-1)))
          CFI (cfiCond85) CFA_SP SP+-6
          CFI (cfiCond85) CFA_XSP16 add(XSP16, 15)
          CFI Block cfiCond86 Using cfiCommon0
          CFI (cfiCond86) Function MT_AfDelete
          CFI (cfiCond86) Conditional ??CrossCallReturnLabel_89, ??CrossCallReturnLabel_76, ??CrossCallReturnLabel_60
          CFI (cfiCond86) R6 load(1, XDATA, add(CFA_XSP16, literal(-9)))
          CFI (cfiCond86) VB load(1, XDATA, add(CFA_XSP16, literal(-8)))
          CFI (cfiCond86) V0 load(1, XDATA, add(CFA_XSP16, literal(-7)))
          CFI (cfiCond86) R7 load(1, XDATA, add(CFA_XSP16, literal(-6)))
          CFI (cfiCond86) ?RET_LOW load(1, XDATA, add(CFA_XSP16, literal(-5)))
          CFI (cfiCond86) ?RET_HIGH load(1, XDATA, add(CFA_XSP16, literal(-4)))
          CFI (cfiCond86) ?BRET_EXT load(1, XDATA, add(CFA_XSP16, literal(-3)))
          CFI (cfiCond86) DPL0 load(1, XDATA, add(CFA_XSP16, literal(-2)))
          CFI (cfiCond86) DPH0 load(1, XDATA, add(CFA_XSP16, literal(-1)))
          CFI (cfiCond86) CFA_SP SP+-6
          CFI (cfiCond86) CFA_XSP16 add(XSP16, 10)
          CFI Block cfiCond87 Using cfiCommon0
          CFI (cfiCond87) Function MT_AfDataConfirm
          CFI (cfiCond87) Conditional ??CrossCallReturnLabel_89, ??CrossCallReturnLabel_77, ??CrossCallReturnLabel_5
          CFI (cfiCond87) DPL0 Frame(CFA_SP, 4)
          CFI (cfiCond87) DPH0 Frame(CFA_SP, 5)
          CFI (cfiCond87) CFA_SP SP+-11
          CFI (cfiCond87) CFA_XSP16 add(XSP16, 3)
          CFI Block cfiCond88 Using cfiCommon0
          CFI (cfiCond88) Function MT_AfReflectError
          CFI (cfiCond88) Conditional ??CrossCallReturnLabel_89, ??CrossCallReturnLabel_77, ??CrossCallReturnLabel_6
          CFI (cfiCond88) DPL0 Frame(CFA_SP, 4)
          CFI (cfiCond88) DPH0 Frame(CFA_SP, 5)
          CFI (cfiCond88) CFA_SP SP+-11
          CFI (cfiCond88) CFA_XSP16 add(XSP16, 6)
          CFI Block cfiPicker89 Using cfiCommon1
          CFI (cfiPicker89) NoFunction
          CFI (cfiPicker89) Picker
        MOVX    @DPTR,A
        MOV     DPL,R2
        MOV     DPH,R3
        INC     DPTR
        RET
          CFI EndBlock cfiCond81
          CFI EndBlock cfiCond82
          CFI EndBlock cfiCond83
          CFI EndBlock cfiCond84
          CFI EndBlock cfiCond85
          CFI EndBlock cfiCond86
          CFI EndBlock cfiCond87
          CFI EndBlock cfiCond88
          CFI EndBlock cfiPicker89

        RSEG BANKED_CODE:CODE:NOROOT(0)
?Subroutine28:
          CFI Block cfiCond90 Using cfiCommon0
          CFI Function MT_AfCommandProcessing
          CFI Conditional ??CrossCallReturnLabel_47
          CFI R6 load(1, XDATA, add(CFA_XSP16, literal(-9)))
          CFI VB load(1, XDATA, add(CFA_XSP16, literal(-8)))
          CFI V0 load(1, XDATA, add(CFA_XSP16, literal(-7)))
          CFI R7 load(1, XDATA, add(CFA_XSP16, literal(-6)))
          CFI ?RET_LOW load(1, XDATA, add(CFA_XSP16, literal(-5)))
          CFI ?RET_HIGH load(1, XDATA, add(CFA_XSP16, literal(-4)))
          CFI ?BRET_EXT load(1, XDATA, add(CFA_XSP16, literal(-3)))
          CFI DPL0 load(1, XDATA, add(CFA_XSP16, literal(-2)))
          CFI DPH0 load(1, XDATA, add(CFA_XSP16, literal(-1)))
          CFI CFA_SP SP+-2
          CFI CFA_XSP16 add(XSP16, 14)
          CFI Block cfiCond91 Using cfiCommon0
          CFI (cfiCond91) Function MT_AfReflectError
          CFI (cfiCond91) Conditional ??CrossCallReturnLabel_48
          CFI (cfiCond91) DPL0 Frame(CFA_SP, 4)
          CFI (cfiCond91) DPH0 Frame(CFA_SP, 5)
          CFI (cfiCond91) CFA_SP SP+-7
          CFI (cfiCond91) CFA_XSP16 add(XSP16, 6)
          CFI Block cfiCond92 Using cfiCommon0
          CFI (cfiCond92) Function MT_AfIncomingMsg
          CFI (cfiCond92) Conditional ??CrossCallReturnLabel_49
          CFI (cfiCond92) R6 load(1, XDATA, add(CFA_XSP16, literal(-23)))
          CFI (cfiCond92) VB load(1, XDATA, add(CFA_XSP16, literal(-22)))
          CFI (cfiCond92) V0 load(1, XDATA, add(CFA_XSP16, literal(-21)))
          CFI (cfiCond92) V1 load(1, XDATA, add(CFA_XSP16, literal(-20)))
          CFI (cfiCond92) V2 load(1, XDATA, add(CFA_XSP16, literal(-19)))
          CFI (cfiCond92) V3 load(1, XDATA, add(CFA_XSP16, literal(-18)))
          CFI (cfiCond92) V4 load(1, XDATA, add(CFA_XSP16, literal(-17)))
          CFI (cfiCond92) V5 load(1, XDATA, add(CFA_XSP16, literal(-16)))
          CFI (cfiCond92) V6 load(1, XDATA, add(CFA_XSP16, literal(-15)))
          CFI (cfiCond92) V7 load(1, XDATA, add(CFA_XSP16, literal(-14)))
          CFI (cfiCond92) V8 load(1, XDATA, add(CFA_XSP16, literal(-13)))
          CFI (cfiCond92) V9 load(1, XDATA, add(CFA_XSP16, literal(-12)))
          CFI (cfiCond92) V10 load(1, XDATA, add(CFA_XSP16, literal(-11)))
          CFI (cfiCond92) V11 load(1, XDATA, add(CFA_XSP16, literal(-10)))
          CFI (cfiCond92) V12 load(1, XDATA, add(CFA_XSP16, literal(-9)))
          CFI (cfiCond92) V13 load(1, XDATA, add(CFA_XSP16, literal(-8)))
          CFI (cfiCond92) V14 load(1, XDATA, add(CFA_XSP16, literal(-7)))
          CFI (cfiCond92) R7 load(1, XDATA, add(CFA_XSP16, literal(-6)))
          CFI (cfiCond92) ?RET_LOW load(1, XDATA, add(CFA_XSP16, literal(-5)))
          CFI (cfiCond92) ?RET_HIGH load(1, XDATA, add(CFA_XSP16, literal(-4)))
          CFI (cfiCond92) ?BRET_EXT load(1, XDATA, add(CFA_XSP16, literal(-3)))
          CFI (cfiCond92) DPL0 load(1, XDATA, add(CFA_XSP16, literal(-2)))
          CFI (cfiCond92) DPH0 load(1, XDATA, add(CFA_XSP16, literal(-1)))
          CFI (cfiCond92) CFA_SP SP+-2
          CFI (cfiCond92) CFA_XSP16 add(XSP16, 23)
          CFI Block cfiPicker93 Using cfiCommon1
          CFI (cfiPicker93) NoFunction
          CFI (cfiPicker93) Picker
        MOVX    @DPTR,A
        MOV     DPL,R0
        MOV     DPH,R1
        INC     DPTR
        RET
          CFI EndBlock cfiCond90
          CFI EndBlock cfiCond91
          CFI EndBlock cfiCond92
          CFI EndBlock cfiPicker93

        RSEG BANKED_CODE:CODE:NOROOT(0)
?Subroutine6:
          CFI Block cfiCond94 Using cfiCommon0
          CFI Function MT_AfDataConfirm
          CFI Conditional ??CrossCallReturnLabel_5
          CFI DPL0 Frame(CFA_SP, 4)
          CFI DPH0 Frame(CFA_SP, 5)
          CFI CFA_SP SP+-7
          CFI CFA_XSP16 add(XSP16, 3)
          CFI Block cfiCond95 Using cfiCommon0
          CFI (cfiCond95) Function MT_AfReflectError
          CFI (cfiCond95) Conditional ??CrossCallReturnLabel_6
          CFI (cfiCond95) DPL0 Frame(CFA_SP, 4)
          CFI (cfiCond95) DPH0 Frame(CFA_SP, 5)
          CFI (cfiCond95) CFA_SP SP+-7
          CFI (cfiCond95) CFA_XSP16 add(XSP16, 6)
          CFI Block cfiPicker96 Using cfiCommon1
          CFI (cfiPicker96) NoFunction
          CFI (cfiPicker96) Picker
        MOV     DPL,R2
        MOV     DPH,R3
        INC     DPTR
        MOVX    A,@DPTR
        MOV     DPL,?XSP + 0
        MOV     DPH,?XSP + 1
        LCALL   ?Subroutine38 & 0xFFFF
??CrossCallReturnLabel_77:
        RET
          CFI EndBlock cfiCond94
          CFI EndBlock cfiCond95
          CFI EndBlock cfiPicker96

        RSEG BANKED_CODE:CODE:NOROOT(0)
?Subroutine38:
          CFI Block cfiCond97 Using cfiCommon0
          CFI Function MT_AfRegister
          CFI Conditional ??CrossCallReturnLabel_76, ??CrossCallReturnLabel_59
          CFI R6 load(1, XDATA, add(CFA_XSP16, literal(-14)))
          CFI VB load(1, XDATA, add(CFA_XSP16, literal(-13)))
          CFI V0 load(1, XDATA, add(CFA_XSP16, literal(-12)))
          CFI V1 load(1, XDATA, add(CFA_XSP16, literal(-11)))
          CFI V2 load(1, XDATA, add(CFA_XSP16, literal(-10)))
          CFI V3 load(1, XDATA, add(CFA_XSP16, literal(-9)))
          CFI V4 load(1, XDATA, add(CFA_XSP16, literal(-8)))
          CFI V5 load(1, XDATA, add(CFA_XSP16, literal(-7)))
          CFI R7 load(1, XDATA, add(CFA_XSP16, literal(-6)))
          CFI ?RET_LOW load(1, XDATA, add(CFA_XSP16, literal(-5)))
          CFI ?RET_HIGH load(1, XDATA, add(CFA_XSP16, literal(-4)))
          CFI ?BRET_EXT load(1, XDATA, add(CFA_XSP16, literal(-3)))
          CFI DPL0 load(1, XDATA, add(CFA_XSP16, literal(-2)))
          CFI DPH0 load(1, XDATA, add(CFA_XSP16, literal(-1)))
          CFI CFA_SP SP+-4
          CFI CFA_XSP16 add(XSP16, 15)
          CFI Block cfiCond98 Using cfiCommon0
          CFI (cfiCond98) Function MT_AfDelete
          CFI (cfiCond98) Conditional ??CrossCallReturnLabel_76, ??CrossCallReturnLabel_60
          CFI (cfiCond98) R6 load(1, XDATA, add(CFA_XSP16, literal(-9)))
          CFI (cfiCond98) VB load(1, XDATA, add(CFA_XSP16, literal(-8)))
          CFI (cfiCond98) V0 load(1, XDATA, add(CFA_XSP16, literal(-7)))
          CFI (cfiCond98) R7 load(1, XDATA, add(CFA_XSP16, literal(-6)))
          CFI (cfiCond98) ?RET_LOW load(1, XDATA, add(CFA_XSP16, literal(-5)))
          CFI (cfiCond98) ?RET_HIGH load(1, XDATA, add(CFA_XSP16, literal(-4)))
          CFI (cfiCond98) ?BRET_EXT load(1, XDATA, add(CFA_XSP16, literal(-3)))
          CFI (cfiCond98) DPL0 load(1, XDATA, add(CFA_XSP16, literal(-2)))
          CFI (cfiCond98) DPH0 load(1, XDATA, add(CFA_XSP16, literal(-1)))
          CFI (cfiCond98) CFA_SP SP+-4
          CFI (cfiCond98) CFA_XSP16 add(XSP16, 10)
          CFI Block cfiCond99 Using cfiCommon0
          CFI (cfiCond99) Function MT_AfDataConfirm
          CFI (cfiCond99) Conditional ??CrossCallReturnLabel_77, ??CrossCallReturnLabel_5
          CFI (cfiCond99) DPL0 Frame(CFA_SP, 4)
          CFI (cfiCond99) DPH0 Frame(CFA_SP, 5)
          CFI (cfiCond99) CFA_SP SP+-9
          CFI (cfiCond99) CFA_XSP16 add(XSP16, 3)
          CFI Block cfiCond100 Using cfiCommon0
          CFI (cfiCond100) Function MT_AfReflectError
          CFI (cfiCond100) Conditional ??CrossCallReturnLabel_77, ??CrossCallReturnLabel_6
          CFI (cfiCond100) DPL0 Frame(CFA_SP, 4)
          CFI (cfiCond100) DPH0 Frame(CFA_SP, 5)
          CFI (cfiCond100) CFA_SP SP+-9
          CFI (cfiCond100) CFA_XSP16 add(XSP16, 6)
          CFI Block cfiPicker101 Using cfiCommon1
          CFI (cfiPicker101) NoFunction
          CFI (cfiPicker101) Picker
        LCALL   ?Subroutine44 & 0xFFFF
??CrossCallReturnLabel_89:
        INC     DPTR
        MOVX    A,@DPTR
        RET
          CFI EndBlock cfiCond97
          CFI EndBlock cfiCond98
          CFI EndBlock cfiCond99
          CFI EndBlock cfiCond100
          CFI EndBlock cfiPicker101
//  664 
//  665 /***************************************************************************************************
//  666  * @fn          MT_AfIncomingMsg
//  667  *
//  668  * @brief       Process the callback subscription for AF Incoming data.
//  669  *
//  670  * @param       pkt - Incoming AF data.
//  671  *
//  672  * @return      none
//  673  ***************************************************************************************************/

        RSEG BANKED_CODE:CODE:NOROOT(0)
//  674 void MT_AfIncomingMsg(afIncomingMSGPacket_t *pMsg)
MT_AfIncomingMsg:
          CFI Block cfiBlock102 Using cfiCommon0
          CFI Function MT_AfIncomingMsg
        CODE
//  675 {
        FUNCALL MT_AfIncomingMsg, osal_mem_alloc
        LOCFRAME ISTACK, 0, STACK
        LOCFRAME PSTACK, 0, STACK
        LOCFRAME XSTACK, 23, STACK
        LOCFRAME IOVERLAY, 0, STATIC
        LOCFRAME DOVERLAY, 0, STATIC
        ARGFRAME ISTACK, 0, STACK
        ARGFRAME PSTACK, 0, STACK
        ARGFRAME XSTACK, 23, STACK
        ARGFRAME IOVERLAY, 0, STATIC
        ARGFRAME DOVERLAY, 0, STATIC
        FUNCALL MT_AfIncomingMsg, osal_mem_alloc
        LOCFRAME ISTACK, 0, STACK
        LOCFRAME PSTACK, 0, STACK
        LOCFRAME XSTACK, 23, STACK
        LOCFRAME IOVERLAY, 0, STATIC
        LOCFRAME DOVERLAY, 0, STATIC
        ARGFRAME ISTACK, 0, STACK
        ARGFRAME PSTACK, 0, STACK
        ARGFRAME XSTACK, 23, STACK
        ARGFRAME IOVERLAY, 0, STATIC
        ARGFRAME DOVERLAY, 0, STATIC
        FUNCALL MT_AfIncomingMsg, osal_mem_free
        LOCFRAME ISTACK, 0, STACK
        LOCFRAME PSTACK, 0, STACK
        LOCFRAME XSTACK, 23, STACK
        LOCFRAME IOVERLAY, 0, STATIC
        LOCFRAME DOVERLAY, 0, STATIC
        ARGFRAME ISTACK, 0, STACK
        ARGFRAME PSTACK, 0, STACK
        ARGFRAME XSTACK, 23, STACK
        ARGFRAME IOVERLAY, 0, STATIC
        ARGFRAME DOVERLAY, 0, STATIC
        FUNCALL MT_AfIncomingMsg, osal_memcpy
        LOCFRAME ISTACK, 0, STACK
        LOCFRAME PSTACK, 0, STACK
        LOCFRAME XSTACK, 26, STACK
        LOCFRAME IOVERLAY, 0, STATIC
        LOCFRAME DOVERLAY, 0, STATIC
        ARGFRAME ISTACK, 0, STACK
        ARGFRAME PSTACK, 0, STACK
        ARGFRAME XSTACK, 26, STACK
        ARGFRAME IOVERLAY, 0, STATIC
        ARGFRAME DOVERLAY, 0, STATIC
        FUNCALL MT_AfIncomingMsg, osal_start_timerEx
        LOCFRAME ISTACK, 0, STACK
        LOCFRAME PSTACK, 0, STACK
        LOCFRAME XSTACK, 27, STACK
        LOCFRAME IOVERLAY, 0, STATIC
        LOCFRAME DOVERLAY, 0, STATIC
        ARGFRAME ISTACK, 0, STACK
        ARGFRAME PSTACK, 0, STACK
        ARGFRAME XSTACK, 27, STACK
        ARGFRAME IOVERLAY, 0, STATIC
        ARGFRAME DOVERLAY, 0, STATIC
        FUNCALL MT_AfIncomingMsg, osal_set_event
        LOCFRAME ISTACK, 0, STACK
        LOCFRAME PSTACK, 0, STACK
        LOCFRAME XSTACK, 23, STACK
        LOCFRAME IOVERLAY, 0, STATIC
        LOCFRAME DOVERLAY, 0, STATIC
        ARGFRAME ISTACK, 0, STACK
        ARGFRAME PSTACK, 0, STACK
        ARGFRAME XSTACK, 23, STACK
        ARGFRAME IOVERLAY, 0, STATIC
        ARGFRAME DOVERLAY, 0, STATIC
        FUNCALL MT_AfIncomingMsg, osal_memcpy
        LOCFRAME ISTACK, 0, STACK
        LOCFRAME PSTACK, 0, STACK
        LOCFRAME XSTACK, 26, STACK
        LOCFRAME IOVERLAY, 0, STATIC
        LOCFRAME DOVERLAY, 0, STATIC
        ARGFRAME ISTACK, 0, STACK
        ARGFRAME PSTACK, 0, STACK
        ARGFRAME XSTACK, 26, STACK
        ARGFRAME IOVERLAY, 0, STATIC
        ARGFRAME DOVERLAY, 0, STATIC
        FUNCALL MT_AfIncomingMsg, osal_memcpy
        LOCFRAME ISTACK, 0, STACK
        LOCFRAME PSTACK, 0, STACK
        LOCFRAME XSTACK, 26, STACK
        LOCFRAME IOVERLAY, 0, STATIC
        LOCFRAME DOVERLAY, 0, STATIC
        ARGFRAME ISTACK, 0, STACK
        ARGFRAME PSTACK, 0, STACK
        ARGFRAME XSTACK, 26, STACK
        ARGFRAME IOVERLAY, 0, STATIC
        ARGFRAME DOVERLAY, 0, STATIC
        FUNCALL MT_AfIncomingMsg, MT_BuildAndSendZToolResponse
        LOCFRAME ISTACK, 0, STACK
        LOCFRAME PSTACK, 0, STACK
        LOCFRAME XSTACK, 23, STACK
        LOCFRAME IOVERLAY, 0, STATIC
        LOCFRAME DOVERLAY, 0, STATIC
        ARGFRAME ISTACK, 0, STACK
        ARGFRAME PSTACK, 0, STACK
        ARGFRAME XSTACK, 23, STACK
        ARGFRAME IOVERLAY, 0, STATIC
        ARGFRAME DOVERLAY, 0, STATIC
        FUNCALL MT_AfIncomingMsg, osal_mem_free
        LOCFRAME ISTACK, 0, STACK
        LOCFRAME PSTACK, 0, STACK
        LOCFRAME XSTACK, 23, STACK
        LOCFRAME IOVERLAY, 0, STATIC
        LOCFRAME DOVERLAY, 0, STATIC
        ARGFRAME ISTACK, 0, STACK
        ARGFRAME PSTACK, 0, STACK
        ARGFRAME XSTACK, 23, STACK
        ARGFRAME IOVERLAY, 0, STATIC
        ARGFRAME DOVERLAY, 0, STATIC
        REQUIRE ?V0
        REQUIRE ?V1
        REQUIRE ?V2
        REQUIRE ?V3
        REQUIRE ?V4
        REQUIRE ?V5
        REQUIRE ?V6
        REQUIRE ?V7
        REQUIRE ?V8
        REQUIRE ?V9
        REQUIRE ?V10
        REQUIRE ?V11
        REQUIRE ?V12
        REQUIRE ?V13
        REQUIRE ?V14
        MOV     A,#-0x17
        LCALL   ?BANKED_ENTER_XDATA
          CFI DPH0 load(1, XDATA, add(CFA_XSP16, literal(-1)))
          CFI DPL0 load(1, XDATA, add(CFA_XSP16, literal(-2)))
          CFI ?BRET_EXT load(1, XDATA, add(CFA_XSP16, literal(-3)))
          CFI ?RET_HIGH load(1, XDATA, add(CFA_XSP16, literal(-4)))
          CFI ?RET_LOW load(1, XDATA, add(CFA_XSP16, literal(-5)))
          CFI R7 load(1, XDATA, add(CFA_XSP16, literal(-6)))
          CFI V14 load(1, XDATA, add(CFA_XSP16, literal(-7)))
          CFI V13 load(1, XDATA, add(CFA_XSP16, literal(-8)))
          CFI V12 load(1, XDATA, add(CFA_XSP16, literal(-9)))
          CFI V11 load(1, XDATA, add(CFA_XSP16, literal(-10)))
          CFI V10 load(1, XDATA, add(CFA_XSP16, literal(-11)))
          CFI V9 load(1, XDATA, add(CFA_XSP16, literal(-12)))
          CFI V8 load(1, XDATA, add(CFA_XSP16, literal(-13)))
          CFI V7 load(1, XDATA, add(CFA_XSP16, literal(-14)))
          CFI V6 load(1, XDATA, add(CFA_XSP16, literal(-15)))
          CFI V5 load(1, XDATA, add(CFA_XSP16, literal(-16)))
          CFI V4 load(1, XDATA, add(CFA_XSP16, literal(-17)))
          CFI V3 load(1, XDATA, add(CFA_XSP16, literal(-18)))
          CFI V2 load(1, XDATA, add(CFA_XSP16, literal(-19)))
          CFI V1 load(1, XDATA, add(CFA_XSP16, literal(-20)))
          CFI V0 load(1, XDATA, add(CFA_XSP16, literal(-21)))
          CFI VB load(1, XDATA, add(CFA_XSP16, literal(-22)))
          CFI R6 load(1, XDATA, add(CFA_XSP16, literal(-23)))
          CFI CFA_SP SP+0
          CFI CFA_XSP16 add(XSP16, 23)
        ; Saved register size: 23
        ; Auto size: 0
        MOV     ?V8,R2
        MOV     ?V9,R3
//  676   #define MT_AF_INC_MSG_LEN  20
//  677   #define MT_AF_INC_MSG_EXT  10
//  678 
//  679   uint16 dataLen = pMsg->cmd.DataLength;  // Length of the data section in the response packet.
        MOV     A,R2
        ADD     A,#0x20
        LCALL   ?Subroutine34 & 0xFFFF
??CrossCallReturnLabel_63:
        LCALL   ?Subroutine15 & 0xFFFF
//  680   uint16 respLen = MT_AF_INC_MSG_LEN + dataLen;
??CrossCallReturnLabel_22:
        MOV     A,?V2
        ADD     A,#0x14
        MOV     ?V0,A
        CLR     A
        ADDC    A,?V3
        MOV     ?V1,A
//  681   uint8 cmd = MT_AF_INCOMING_MSG;
        MOV     ?V14,#-0x7f
//  682   uint8 *pRsp, *pTmp;
//  683   mtAfInMsgList_t *pItem = NULL;
        MOV     ?V10,#0x0
        MOV     ?V11,#0x0
//  684 
//  685 #if defined INTER_PAN
//  686   if (StubAPS_InterPan(pMsg->srcAddr.panId, pMsg->srcAddr.endPoint))
//  687   {
//  688     cmd = MT_AF_INCOMING_MSG_EXT;
//  689   }
//  690   else
//  691 #endif
//  692   if ((pMsg->srcAddr.addrMode == afAddr64Bit) ||
//  693       (respLen > (uint16)(MT_RPC_DATA_MAX - MT_AF_INC_MSG_EXT)))
        MOV     A,R2
        ADD     A,#0xe
        LCALL   ?Subroutine34 & 0xFFFF
??CrossCallReturnLabel_64:
        MOVX    A,@DPTR
        XRL     A,#0x3
        JZ      ??MT_AfIncomingMsg_0
        CLR     C
        MOV     A,?V0
        SUBB    A,#-0xf
        MOV     A,?V1
        SUBB    A,#0x0
        JC      ??MT_AfIncomingMsg_1
//  694   {
//  695     cmd = MT_AF_INCOMING_MSG_EXT;
??MT_AfIncomingMsg_0:
        MOV     ?V14,#-0x7e
//  696   }
//  697 
//  698   if (cmd == MT_AF_INCOMING_MSG_EXT)
//  699   {
//  700     respLen += MT_AF_INC_MSG_EXT;
        MOV     A,?V0
        ADD     A,#0xa
        MOV     ?V0,A
        CLR     A
        ADDC    A,?V1
        MOV     ?V1,A
//  701   }
//  702 
//  703   if (respLen > (uint16)MT_RPC_DATA_MAX)
??MT_AfIncomingMsg_1:
        CLR     C
        MOV     A,?V0
        SUBB    A,#-0x5
        MOV     A,?V1
        SUBB    A,#0x0
        JC      ??MT_AfIncomingMsg_2
//  704   {
//  705     if ((pItem = (mtAfInMsgList_t *)osal_mem_alloc(sizeof(mtAfInMsgList_t) + dataLen)) == NULL)
        ; Setup parameters for call to function osal_mem_alloc
        MOV     A,?V2
        ADD     A,#0x9
        MOV     R2,A
        CLR     A
        ADDC    A,?V3
        MOV     R3,A
        LCALL   ??osal_mem_alloc?relay; Banked call to: osal_mem_alloc
        MOV     ?V10,R2
        MOV     ?V11,R3
        MOV     A,R2
        ORL     A,?V11
        JNZ     $+5
        LJMP    ??MT_AfIncomingMsg_3 & 0xFFFF
//  706     {
//  707       return;  // If cannot hold a huge message, cannot give indication at all.
//  708     }
//  709 
//  710     pItem->data = (uint8 *)(pItem+1);
        MOV     A,R2
        ADD     A,#0x9
        MOV     R0,A
        CLR     A
        ADDC    A,?V11
        MOV     R1,A
        MOV     DPL,R2
        MOV     DPH,R3
        INC     DPTR
        INC     DPTR
        LCALL   ?Subroutine27 & 0xFFFF
//  711     respLen -= dataLen;  // Zero data bytes are sent with an over-sized incoming indication.
??CrossCallReturnLabel_44:
        CLR     C
        MOV     A,?V0
        SUBB    A,?V2
        MOV     ?V0,A
        MOV     A,?V1
        SUBB    A,?V3
        MOV     ?V1,A
//  712   }
//  713 
//  714   // Attempt to allocate memory for the response packet.
//  715   if ((pRsp = osal_mem_alloc(respLen)) == NULL)
??MT_AfIncomingMsg_2:
        ; Setup parameters for call to function osal_mem_alloc
        MOV     R2,?V0
        MOV     R3,?V1
        LCALL   ??osal_mem_alloc?relay; Banked call to: osal_mem_alloc
        MOV     ?V12,R2
        MOV     ?V13,R3
        MOV     A,R2
        ORL     A,?V13
        JNZ     ??MT_AfIncomingMsg_4
//  716   {
//  717     if (pItem != NULL)
        MOV     A,?V10
        ORL     A,?V11
        JZ      ??MT_AfIncomingMsg_5
//  718     {
//  719       (void)osal_mem_free(pItem);
        ; Setup parameters for call to function osal_mem_free
        MOV     R2,?V10
        MOV     R3,?V11
        LCALL   ??osal_mem_free?relay; Banked call to: osal_mem_free
//  720     }
//  721     return;
??MT_AfIncomingMsg_5:
        LJMP    ??MT_AfIncomingMsg_3 & 0xFFFF
//  722   }
//  723   pTmp = pRsp;
??MT_AfIncomingMsg_4:
        MOV     R6,?V12
        MOV     R7,?V13
//  724 
//  725   /* Group ID */
//  726   *pTmp++ = LO_UINT16(pMsg->groupId);
        MOV     A,?V8
        ADD     A,#0x2
        LCALL   ?Subroutine2 & 0xFFFF
//  727   *pTmp++ = HI_UINT16(pMsg->groupId);
//  728 
//  729   /* Cluster ID */
//  730   *pTmp++ = LO_UINT16(pMsg->clusterId);
??CrossCallReturnLabel_113:
        ADD     A,#0x4
        LCALL   ?Subroutine7 & 0xFFFF
//  731   *pTmp++ = HI_UINT16(pMsg->clusterId);
??CrossCallReturnLabel_7:
        INC     DPTR
        LCALL   ?Subroutine22 & 0xFFFF
??CrossCallReturnLabel_33:
        MOV     R7,DPH
//  732 
//  733   if (cmd == MT_AF_INCOMING_MSG_EXT)
        MOV     A,#-0x7e
        XRL     A,?V14
        JNZ     ??MT_AfIncomingMsg_6
//  734   {
//  735     *pTmp++ = pMsg->srcAddr.addrMode;
        MOV     A,?V8
        ADD     A,#0xe
        LCALL   ?Subroutine7 & 0xFFFF
//  736 
//  737     if (pMsg->srcAddr.addrMode == afAddr64Bit)
??CrossCallReturnLabel_8:
        MOVX    A,@DPTR
        XRL     A,#0x3
        JNZ     ??MT_AfIncomingMsg_7
//  738     {
//  739       (void)osal_memcpy(pTmp, pMsg->srcAddr.addr.extAddr, Z_EXTADDR_LEN);
        ; Setup parameters for call to function osal_memcpy
        MOV     A,?V8
        ADD     A,#0x6
        MOV     ?V4,A
        CLR     A
        ADDC    A,?V9
        MOV     ?V5,A
        MOV     ?V6,#0x0
        MOV     R0,#?V4
        LCALL   ?PUSH_XSTACK_I_THREE
          CFI CFA_XSP16 add(XSP16, 26)
        MOV     R4,#0x8
        MOV     R5,#0x0
        MOV     A,R6
        MOV     R2,A
        MOV     A,R7
        MOV     R3,A
        LCALL   ??osal_memcpy?relay  ; Banked call to: osal_memcpy
        MOV     A,#0x3
        LCALL   ?DEALLOC_XSTACK8
          CFI CFA_XSP16 add(XSP16, 23)
        SJMP    ??MT_AfIncomingMsg_8
//  740     }
//  741     else
//  742     {
//  743       pTmp[0] = LO_UINT16(pMsg->srcAddr.addr.shortAddr);
??MT_AfIncomingMsg_7:
        LCALL   ?Subroutine33 & 0xFFFF
//  744       pTmp[1] = HI_UINT16(pMsg->srcAddr.addr.shortAddr);
//  745     }
??CrossCallReturnLabel_61:
        MOVX    A,@DPTR
        MOV     DPL,R6
        MOV     DPH,R7
        LCALL   ?Subroutine28 & 0xFFFF
??CrossCallReturnLabel_49:
        MOVX    A,@DPTR
        MOV     DPL,R6
        MOV     DPH,R7
        INC     DPTR
        MOVX    @DPTR,A
//  746     pTmp += Z_EXTADDR_LEN;
??MT_AfIncomingMsg_8:
        MOV     A,R6
        ADD     A,#0x8
        MOV     R6,A
        JNC     ??MT_AfIncomingMsg_9
        INC     R7
//  747 
//  748     *pTmp++ = pMsg->srcAddr.endPoint;
??MT_AfIncomingMsg_9:
        MOV     A,?V8
        LCALL   ?Subroutine23 & 0xFFFF
//  749 #if defined INTER_PAN
//  750     *pTmp++ = LO_UINT16(pMsg->srcAddr.panId);
//  751     *pTmp++ = HI_UINT16(pMsg->srcAddr.panId);
//  752 #else
//  753     *pTmp++ = 0;
??CrossCallReturnLabel_104:
        CLR     A
        MOVX    @DPTR,A
        INC     DPTR
//  754     *pTmp++ = 0;
        MOVX    @DPTR,A
        INC     DPTR
        INC     R6
        INC     R6
        SJMP    ??CrossCallReturnLabel_105
//  755 #endif
//  756   }
//  757   else
//  758   {
//  759     /* Source Address */
//  760     *pTmp++ = LO_UINT16(pMsg->srcAddr.addr.shortAddr);
??MT_AfIncomingMsg_6:
        LCALL   ?Subroutine33 & 0xFFFF
//  761     *pTmp++ = HI_UINT16(pMsg->srcAddr.addr.shortAddr);
//  762 
//  763     /* Source EP */
//  764     *pTmp++ = pMsg->srcAddr.endPoint;
//  765   }
??CrossCallReturnLabel_62:
        LCALL   ?Subroutine22 & 0xFFFF
??CrossCallReturnLabel_34:
        LCALL   ??Subroutine51_0 & 0xFFFF
??CrossCallReturnLabel_115:
        LCALL   ?Subroutine23 & 0xFFFF
??CrossCallReturnLabel_105:
        INC     R6
        MOV     R7,DPH
//  766 
//  767   /* Destination EP */
//  768   *pTmp++ = pMsg->endPoint;
        MOV     A,?V8
        ADD     A,#0x14
        LCALL   ??Subroutine49_0 & 0xFFFF
??CrossCallReturnLabel_102:
        MOV     R6,DPL
        MOV     R7,DPH
//  769 
//  770   /* WasBroadCast */
//  771   *pTmp++ = pMsg->wasBroadcast;
        MOV     A,?V8
        ADD     A,#0x15
        LCALL   ?Subroutine34 & 0xFFFF
??CrossCallReturnLabel_65:
        LCALL   ??Subroutine52_0 & 0xFFFF
//  772 
//  773   /* LinkQuality */
//  774   *pTmp++ = pMsg->LinkQuality;
??CrossCallReturnLabel_116:
        ADD     A,#0x16
        LCALL   ?Subroutine34 & 0xFFFF
??CrossCallReturnLabel_66:
        LCALL   ??Subroutine52_0 & 0xFFFF
//  775 
//  776   /* SecurityUse */
//  777   *pTmp++ = pMsg->SecurityUse;
??CrossCallReturnLabel_117:
        ADD     A,#0x19
        LCALL   ?Subroutine34 & 0xFFFF
??CrossCallReturnLabel_67:
        LCALL   ??Subroutine52_0 & 0xFFFF
//  778 
//  779   /* Timestamp */
//  780   *pTmp++ = BREAK_UINT32(pMsg->timestamp, 0);
??CrossCallReturnLabel_118:
        ADD     A,#0x1a
        MOV     R2,A
        CLR     A
        ADDC    A,?V9
        MOV     R3,A
        MOV     DPL,R2
        MOV     DPH,R3
        MOV     R0,#?V4
        LCALL   ?L_MOV_X
        LCALL   ?Subroutine25 & 0xFFFF
//  781   *pTmp++ = BREAK_UINT32(pMsg->timestamp, 1);
??CrossCallReturnLabel_99:
        LCALL   ?L_MOV_X
        MOV     A,?V5
        MOV     DPL,R6
        MOV     DPH,R7
        LCALL   ??Subroutine48_0 & 0xFFFF
//  782   *pTmp++ = BREAK_UINT32(pMsg->timestamp, 2);
??CrossCallReturnLabel_101:
        LCALL   ?L_MOV_X
        MOV     A,#0x10
        MOV     R0,#?V4
        LCALL   ?UL_SHR
        LCALL   ?Subroutine25 & 0xFFFF
//  783   *pTmp++ = BREAK_UINT32(pMsg->timestamp, 3);
??CrossCallReturnLabel_100:
        LCALL   ?L_MOV_X
        MOV     A,#0x18
        MOV     R0,#?V4
        LCALL   ?UL_SHR
        MOV     DPL,R6
        MOV     DPH,R7
        MOV     A,?V4
        MOVX    @DPTR,A
        INC     DPTR
        INC     R6
        MOV     R7,DPH
//  784 
//  785 
//  786   /* Data Length */
//  787   if (cmd == MT_AF_INCOMING_MSG_EXT)
        MOV     A,#-0x7e
        XRL     A,?V14
        JNZ     ??MT_AfIncomingMsg_10
//  788   {
//  789     /* Z-Tool apparently takes the last Byte before the data buffer as the dynamic length and
//  790      * ignores the bigger UInt16 length of an EXT incoming message. But no data bytes will be sent
//  791      * with a huge message, so it's necessary to work-around and fake-out Z-Tool with a zero here.
//  792      */
//  793     *pTmp++ = 0;  // TODO - workaround Z-Tool shortcoming; should be: = pMsg->cmd.TransSeqNumber;
        CLR     A
        MOVX    @DPTR,A
        INC     DPTR
//  794     *pTmp++ = LO_UINT16(dataLen);
        MOV     A,?V2
        MOVX    @DPTR,A
        INC     DPTR
//  795     *pTmp++ = HI_UINT16(dataLen);
        MOV     A,?V3
        MOVX    @DPTR,A
        INC     DPTR
        INC     R6
        SJMP    ??MT_AfIncomingMsg_11
//  796   }
//  797   else
//  798   {
//  799     *pTmp++ = pMsg->cmd.TransSeqNumber;
??MT_AfIncomingMsg_10:
        MOV     A,?V8
        ADD     A,#0x1f
        LCALL   ??Subroutine49_0 & 0xFFFF
//  800     *pTmp++ = dataLen;
??CrossCallReturnLabel_103:
        MOV     A,?V2
        MOVX    @DPTR,A
        INC     DPTR
??MT_AfIncomingMsg_11:
        INC     R6
        INC     R6
        MOV     R7,DPH
//  801   }
//  802 
//  803   /* Data */
//  804   if (pItem != NULL)
        MOV     A,?V10
        ORL     A,?V11
        JNZ     $+5
        LJMP    ??MT_AfIncomingMsg_12 & 0xFFFF
//  805   {
//  806     // Enqueue the new huge incoming item.
//  807     pItem->next = pMtAfInMsgList;
        LCALL   ?Subroutine21 & 0xFFFF
??CrossCallReturnLabel_127:
        MOV     DPL,?V10
        MOV     DPH,?V11
        LCALL   ?Subroutine27 & 0xFFFF
//  808     pMtAfInMsgList = pItem;
??CrossCallReturnLabel_45:
        MOV     DPTR,#pMtAfInMsgList
        MOV     A,?V10
        MOVX    @DPTR,A
        INC     DPTR
        MOV     A,?V11
        MOVX    @DPTR,A
//  809 
//  810     // Setup to time-out the huge incoming item if host does not MT_AF_DATA_RETRIEVE it.
//  811     pItem->tick = MT_AF_EXEC_CNT;
        MOV     DPL,?V10
        MOV     DPH,A
        INC     DPTR
        INC     DPTR
        INC     DPTR
        INC     DPTR
        INC     DPTR
        INC     DPTR
        INC     DPTR
        INC     DPTR
        MOV     A,#0xf
        MOVX    @DPTR,A
//  812     if (ZSuccess != osal_start_timerEx(MT_TaskID, MT_AF_EXEC_EVT, MT_AF_EXEC_DLY))
        ; Setup parameters for call to function osal_start_timerEx
        MOV     DPTR,#__Constant_3e8
        LCALL   ?PUSH_XSTACK8_X_FOUR
          CFI CFA_XSP16 add(XSP16, 27)
        MOV     R2,#0x8
        MOV     R3,#0x0
        MOV     DPTR,#MT_TaskID
        MOVX    A,@DPTR
        MOV     R1,A
        LCALL   ??osal_start_timerEx?relay; Banked call to: osal_start_timerEx
        MOV     A,#0x4
        LCALL   ?DEALLOC_XSTACK8
          CFI CFA_XSP16 add(XSP16, 23)
        MOV     A,R1
        JZ      ??MT_AfIncomingMsg_13
//  813     {
//  814       (void)osal_set_event(MT_TaskID, MT_AF_EXEC_EVT);
        ; Setup parameters for call to function osal_set_event
        MOV     R2,#0x8
        MOV     R3,#0x0
        MOV     DPTR,#MT_TaskID
        MOVX    A,@DPTR
        MOV     R1,A
        LCALL   ??osal_set_event?relay; Banked call to: osal_set_event
//  815     }
//  816 
//  817     pItem->timestamp = pMsg->timestamp;
??MT_AfIncomingMsg_13:
        MOV     A,?V8
        ADD     A,#0x1a
        LCALL   ?Subroutine34 & 0xFFFF
??CrossCallReturnLabel_68:
        LCALL   ?XLOAD_R0123
        MOV     DPL,?V10
        MOV     DPH,?V11
        INC     DPTR
        INC     DPTR
        INC     DPTR
        INC     DPTR
        LCALL   ?XSTORE_R0123
//  818     (void)osal_memcpy(pItem->data, pMsg->cmd.Data, dataLen);
        ; Setup parameters for call to function osal_memcpy
        LCALL   ?Subroutine19 & 0xFFFF
//  819   }
??CrossCallReturnLabel_29:
        LCALL   ?PUSH_XSTACK_I_THREE
          CFI CFA_XSP16 add(XSP16, 26)
        MOV     R4,?V2
        MOV     R5,?V3
        MOV     DPL,?V10
        MOV     DPH,?V11
        INC     DPTR
        INC     DPTR
        LCALL   ??Subroutine50_0 & 0xFFFF
??CrossCallReturnLabel_110:
        LCALL   ??osal_memcpy?relay  ; Banked call to: osal_memcpy
        MOV     A,#0x3
        LCALL   ?DEALLOC_XSTACK8
          CFI CFA_XSP16 add(XSP16, 23)
        SJMP    ??MT_AfIncomingMsg_14
//  820   else
//  821   {
//  822     (void)osal_memcpy(pTmp, pMsg->cmd.Data, dataLen);
??MT_AfIncomingMsg_12:
        ; Setup parameters for call to function osal_memcpy
        LCALL   ?Subroutine19 & 0xFFFF
??CrossCallReturnLabel_30:
        LCALL   ?PUSH_XSTACK_I_THREE
          CFI CFA_XSP16 add(XSP16, 26)
        MOV     R4,?V2
        MOV     R5,?V3
        MOV     A,R6
        MOV     R2,A
        MOV     A,R7
        MOV     R3,A
        LCALL   ??osal_memcpy?relay  ; Banked call to: osal_memcpy
        MOV     A,#0x3
        LCALL   ?DEALLOC_XSTACK8
          CFI CFA_XSP16 add(XSP16, 23)
//  823     pTmp += dataLen;
        MOV     A,R6
        ADD     A,?V2
        MOV     R6,A
        MOV     A,R7
        ADDC    A,?V3
        MOV     R7,A
//  824   }
//  825 
//  826   // MAC Source address
//  827   *pTmp++ = LO_UINT16(pMsg->macSrcAddr);
??MT_AfIncomingMsg_14:
        MOV     A,?V8
        ADD     A,#0x24
        LCALL   ?Subroutine2 & 0xFFFF
//  828   *pTmp++ = HI_UINT16(pMsg->macSrcAddr);
//  829 
//  830   // messages result radius
//  831   *pTmp = pMsg->radius;
??CrossCallReturnLabel_114:
        ADD     A,#0x26
        LCALL   ?Subroutine34 & 0xFFFF
??CrossCallReturnLabel_69:
        LCALL   ?Subroutine43 & 0xFFFF
//  832 
//  833   /* Build and send back the response */
//  834   MT_BuildAndSendZToolResponse(((uint8)MT_RPC_CMD_AREQ|(uint8)MT_RPC_SYS_AF), cmd, respLen, pRsp);
??CrossCallReturnLabel_121:
        ; Setup parameters for call to function MT_BuildAndSendZToolResponse
        MOV     R4,?V12
        MOV     R5,?V13
        MOV     R3,?V0
        MOV     R2,?V14
        MOV     R1,#0x44
        LCALL   ??MT_BuildAndSendZToolResponse?relay; Banked call to: MT_BuildAndSendZToolResponse
//  835 
//  836   (void)osal_mem_free(pRsp);
        ; Setup parameters for call to function osal_mem_free
        MOV     R2,?V12
        MOV     R3,?V13
        LCALL   ??osal_mem_free?relay; Banked call to: osal_mem_free
//  837 }
??MT_AfIncomingMsg_3:
        MOV     R7,#0xf
        LJMP    ?BANKED_LEAVE_XDATA
          CFI EndBlock cfiBlock102

        RSEG BANKED_CODE:CODE:NOROOT(0)
?Subroutine34:
          CFI Block cfiCond103 Using cfiCommon0
          CFI Function MT_AfIncomingMsg
          CFI Conditional ??CrossCallReturnLabel_63
          CFI R6 load(1, XDATA, add(CFA_XSP16, literal(-23)))
          CFI VB load(1, XDATA, add(CFA_XSP16, literal(-22)))
          CFI V0 load(1, XDATA, add(CFA_XSP16, literal(-21)))
          CFI V1 load(1, XDATA, add(CFA_XSP16, literal(-20)))
          CFI V2 load(1, XDATA, add(CFA_XSP16, literal(-19)))
          CFI V3 load(1, XDATA, add(CFA_XSP16, literal(-18)))
          CFI V4 load(1, XDATA, add(CFA_XSP16, literal(-17)))
          CFI V5 load(1, XDATA, add(CFA_XSP16, literal(-16)))
          CFI V6 load(1, XDATA, add(CFA_XSP16, literal(-15)))
          CFI V7 load(1, XDATA, add(CFA_XSP16, literal(-14)))
          CFI V8 load(1, XDATA, add(CFA_XSP16, literal(-13)))
          CFI V9 load(1, XDATA, add(CFA_XSP16, literal(-12)))
          CFI V10 load(1, XDATA, add(CFA_XSP16, literal(-11)))
          CFI V11 load(1, XDATA, add(CFA_XSP16, literal(-10)))
          CFI V12 load(1, XDATA, add(CFA_XSP16, literal(-9)))
          CFI V13 load(1, XDATA, add(CFA_XSP16, literal(-8)))
          CFI V14 load(1, XDATA, add(CFA_XSP16, literal(-7)))
          CFI R7 load(1, XDATA, add(CFA_XSP16, literal(-6)))
          CFI ?RET_LOW load(1, XDATA, add(CFA_XSP16, literal(-5)))
          CFI ?RET_HIGH load(1, XDATA, add(CFA_XSP16, literal(-4)))
          CFI ?BRET_EXT load(1, XDATA, add(CFA_XSP16, literal(-3)))
          CFI DPL0 load(1, XDATA, add(CFA_XSP16, literal(-2)))
          CFI DPH0 load(1, XDATA, add(CFA_XSP16, literal(-1)))
          CFI CFA_SP SP+-2
          CFI CFA_XSP16 add(XSP16, 23)
          CFI Block cfiCond104 Using cfiCommon0
          CFI (cfiCond104) Function MT_AfIncomingMsg
          CFI (cfiCond104) Conditional ??CrossCallReturnLabel_64
          CFI (cfiCond104) R6 load(1, XDATA, add(CFA_XSP16, literal(-23)))
          CFI (cfiCond104) VB load(1, XDATA, add(CFA_XSP16, literal(-22)))
          CFI (cfiCond104) V0 load(1, XDATA, add(CFA_XSP16, literal(-21)))
          CFI (cfiCond104) V1 load(1, XDATA, add(CFA_XSP16, literal(-20)))
          CFI (cfiCond104) V2 load(1, XDATA, add(CFA_XSP16, literal(-19)))
          CFI (cfiCond104) V3 load(1, XDATA, add(CFA_XSP16, literal(-18)))
          CFI (cfiCond104) V4 load(1, XDATA, add(CFA_XSP16, literal(-17)))
          CFI (cfiCond104) V5 load(1, XDATA, add(CFA_XSP16, literal(-16)))
          CFI (cfiCond104) V6 load(1, XDATA, add(CFA_XSP16, literal(-15)))
          CFI (cfiCond104) V7 load(1, XDATA, add(CFA_XSP16, literal(-14)))
          CFI (cfiCond104) V8 load(1, XDATA, add(CFA_XSP16, literal(-13)))
          CFI (cfiCond104) V9 load(1, XDATA, add(CFA_XSP16, literal(-12)))
          CFI (cfiCond104) V10 load(1, XDATA, add(CFA_XSP16, literal(-11)))
          CFI (cfiCond104) V11 load(1, XDATA, add(CFA_XSP16, literal(-10)))
          CFI (cfiCond104) V12 load(1, XDATA, add(CFA_XSP16, literal(-9)))
          CFI (cfiCond104) V13 load(1, XDATA, add(CFA_XSP16, literal(-8)))
          CFI (cfiCond104) V14 load(1, XDATA, add(CFA_XSP16, literal(-7)))
          CFI (cfiCond104) R7 load(1, XDATA, add(CFA_XSP16, literal(-6)))
          CFI (cfiCond104) ?RET_LOW load(1, XDATA, add(CFA_XSP16, literal(-5)))
          CFI (cfiCond104) ?RET_HIGH load(1, XDATA, add(CFA_XSP16, literal(-4)))
          CFI (cfiCond104) ?BRET_EXT load(1, XDATA, add(CFA_XSP16, literal(-3)))
          CFI (cfiCond104) DPL0 load(1, XDATA, add(CFA_XSP16, literal(-2)))
          CFI (cfiCond104) DPH0 load(1, XDATA, add(CFA_XSP16, literal(-1)))
          CFI (cfiCond104) CFA_SP SP+-2
          CFI (cfiCond104) CFA_XSP16 add(XSP16, 23)
          CFI Block cfiCond105 Using cfiCommon0
          CFI (cfiCond105) Function MT_AfIncomingMsg
          CFI (cfiCond105) Conditional ??CrossCallReturnLabel_65
          CFI (cfiCond105) R6 load(1, XDATA, add(CFA_XSP16, literal(-23)))
          CFI (cfiCond105) VB load(1, XDATA, add(CFA_XSP16, literal(-22)))
          CFI (cfiCond105) V0 load(1, XDATA, add(CFA_XSP16, literal(-21)))
          CFI (cfiCond105) V1 load(1, XDATA, add(CFA_XSP16, literal(-20)))
          CFI (cfiCond105) V2 load(1, XDATA, add(CFA_XSP16, literal(-19)))
          CFI (cfiCond105) V3 load(1, XDATA, add(CFA_XSP16, literal(-18)))
          CFI (cfiCond105) V4 load(1, XDATA, add(CFA_XSP16, literal(-17)))
          CFI (cfiCond105) V5 load(1, XDATA, add(CFA_XSP16, literal(-16)))
          CFI (cfiCond105) V6 load(1, XDATA, add(CFA_XSP16, literal(-15)))
          CFI (cfiCond105) V7 load(1, XDATA, add(CFA_XSP16, literal(-14)))
          CFI (cfiCond105) V8 load(1, XDATA, add(CFA_XSP16, literal(-13)))
          CFI (cfiCond105) V9 load(1, XDATA, add(CFA_XSP16, literal(-12)))
          CFI (cfiCond105) V10 load(1, XDATA, add(CFA_XSP16, literal(-11)))
          CFI (cfiCond105) V11 load(1, XDATA, add(CFA_XSP16, literal(-10)))
          CFI (cfiCond105) V12 load(1, XDATA, add(CFA_XSP16, literal(-9)))
          CFI (cfiCond105) V13 load(1, XDATA, add(CFA_XSP16, literal(-8)))
          CFI (cfiCond105) V14 load(1, XDATA, add(CFA_XSP16, literal(-7)))
          CFI (cfiCond105) R7 load(1, XDATA, add(CFA_XSP16, literal(-6)))
          CFI (cfiCond105) ?RET_LOW load(1, XDATA, add(CFA_XSP16, literal(-5)))
          CFI (cfiCond105) ?RET_HIGH load(1, XDATA, add(CFA_XSP16, literal(-4)))
          CFI (cfiCond105) ?BRET_EXT load(1, XDATA, add(CFA_XSP16, literal(-3)))
          CFI (cfiCond105) DPL0 load(1, XDATA, add(CFA_XSP16, literal(-2)))
          CFI (cfiCond105) DPH0 load(1, XDATA, add(CFA_XSP16, literal(-1)))
          CFI (cfiCond105) CFA_SP SP+-2
          CFI (cfiCond105) CFA_XSP16 add(XSP16, 23)
          CFI Block cfiCond106 Using cfiCommon0
          CFI (cfiCond106) Function MT_AfIncomingMsg
          CFI (cfiCond106) Conditional ??CrossCallReturnLabel_66
          CFI (cfiCond106) R6 load(1, XDATA, add(CFA_XSP16, literal(-23)))
          CFI (cfiCond106) VB load(1, XDATA, add(CFA_XSP16, literal(-22)))
          CFI (cfiCond106) V0 load(1, XDATA, add(CFA_XSP16, literal(-21)))
          CFI (cfiCond106) V1 load(1, XDATA, add(CFA_XSP16, literal(-20)))
          CFI (cfiCond106) V2 load(1, XDATA, add(CFA_XSP16, literal(-19)))
          CFI (cfiCond106) V3 load(1, XDATA, add(CFA_XSP16, literal(-18)))
          CFI (cfiCond106) V4 load(1, XDATA, add(CFA_XSP16, literal(-17)))
          CFI (cfiCond106) V5 load(1, XDATA, add(CFA_XSP16, literal(-16)))
          CFI (cfiCond106) V6 load(1, XDATA, add(CFA_XSP16, literal(-15)))
          CFI (cfiCond106) V7 load(1, XDATA, add(CFA_XSP16, literal(-14)))
          CFI (cfiCond106) V8 load(1, XDATA, add(CFA_XSP16, literal(-13)))
          CFI (cfiCond106) V9 load(1, XDATA, add(CFA_XSP16, literal(-12)))
          CFI (cfiCond106) V10 load(1, XDATA, add(CFA_XSP16, literal(-11)))
          CFI (cfiCond106) V11 load(1, XDATA, add(CFA_XSP16, literal(-10)))
          CFI (cfiCond106) V12 load(1, XDATA, add(CFA_XSP16, literal(-9)))
          CFI (cfiCond106) V13 load(1, XDATA, add(CFA_XSP16, literal(-8)))
          CFI (cfiCond106) V14 load(1, XDATA, add(CFA_XSP16, literal(-7)))
          CFI (cfiCond106) R7 load(1, XDATA, add(CFA_XSP16, literal(-6)))
          CFI (cfiCond106) ?RET_LOW load(1, XDATA, add(CFA_XSP16, literal(-5)))
          CFI (cfiCond106) ?RET_HIGH load(1, XDATA, add(CFA_XSP16, literal(-4)))
          CFI (cfiCond106) ?BRET_EXT load(1, XDATA, add(CFA_XSP16, literal(-3)))
          CFI (cfiCond106) DPL0 load(1, XDATA, add(CFA_XSP16, literal(-2)))
          CFI (cfiCond106) DPH0 load(1, XDATA, add(CFA_XSP16, literal(-1)))
          CFI (cfiCond106) CFA_SP SP+-2
          CFI (cfiCond106) CFA_XSP16 add(XSP16, 23)
          CFI Block cfiCond107 Using cfiCommon0
          CFI (cfiCond107) Function MT_AfIncomingMsg
          CFI (cfiCond107) Conditional ??CrossCallReturnLabel_67
          CFI (cfiCond107) R6 load(1, XDATA, add(CFA_XSP16, literal(-23)))
          CFI (cfiCond107) VB load(1, XDATA, add(CFA_XSP16, literal(-22)))
          CFI (cfiCond107) V0 load(1, XDATA, add(CFA_XSP16, literal(-21)))
          CFI (cfiCond107) V1 load(1, XDATA, add(CFA_XSP16, literal(-20)))
          CFI (cfiCond107) V2 load(1, XDATA, add(CFA_XSP16, literal(-19)))
          CFI (cfiCond107) V3 load(1, XDATA, add(CFA_XSP16, literal(-18)))
          CFI (cfiCond107) V4 load(1, XDATA, add(CFA_XSP16, literal(-17)))
          CFI (cfiCond107) V5 load(1, XDATA, add(CFA_XSP16, literal(-16)))
          CFI (cfiCond107) V6 load(1, XDATA, add(CFA_XSP16, literal(-15)))
          CFI (cfiCond107) V7 load(1, XDATA, add(CFA_XSP16, literal(-14)))
          CFI (cfiCond107) V8 load(1, XDATA, add(CFA_XSP16, literal(-13)))
          CFI (cfiCond107) V9 load(1, XDATA, add(CFA_XSP16, literal(-12)))
          CFI (cfiCond107) V10 load(1, XDATA, add(CFA_XSP16, literal(-11)))
          CFI (cfiCond107) V11 load(1, XDATA, add(CFA_XSP16, literal(-10)))
          CFI (cfiCond107) V12 load(1, XDATA, add(CFA_XSP16, literal(-9)))
          CFI (cfiCond107) V13 load(1, XDATA, add(CFA_XSP16, literal(-8)))
          CFI (cfiCond107) V14 load(1, XDATA, add(CFA_XSP16, literal(-7)))
          CFI (cfiCond107) R7 load(1, XDATA, add(CFA_XSP16, literal(-6)))
          CFI (cfiCond107) ?RET_LOW load(1, XDATA, add(CFA_XSP16, literal(-5)))
          CFI (cfiCond107) ?RET_HIGH load(1, XDATA, add(CFA_XSP16, literal(-4)))
          CFI (cfiCond107) ?BRET_EXT load(1, XDATA, add(CFA_XSP16, literal(-3)))
          CFI (cfiCond107) DPL0 load(1, XDATA, add(CFA_XSP16, literal(-2)))
          CFI (cfiCond107) DPH0 load(1, XDATA, add(CFA_XSP16, literal(-1)))
          CFI (cfiCond107) CFA_SP SP+-2
          CFI (cfiCond107) CFA_XSP16 add(XSP16, 23)
          CFI Block cfiCond108 Using cfiCommon0
          CFI (cfiCond108) Function MT_AfIncomingMsg
          CFI (cfiCond108) Conditional ??CrossCallReturnLabel_68
          CFI (cfiCond108) R6 load(1, XDATA, add(CFA_XSP16, literal(-23)))
          CFI (cfiCond108) VB load(1, XDATA, add(CFA_XSP16, literal(-22)))
          CFI (cfiCond108) V0 load(1, XDATA, add(CFA_XSP16, literal(-21)))
          CFI (cfiCond108) V1 load(1, XDATA, add(CFA_XSP16, literal(-20)))
          CFI (cfiCond108) V2 load(1, XDATA, add(CFA_XSP16, literal(-19)))
          CFI (cfiCond108) V3 load(1, XDATA, add(CFA_XSP16, literal(-18)))
          CFI (cfiCond108) V4 load(1, XDATA, add(CFA_XSP16, literal(-17)))
          CFI (cfiCond108) V5 load(1, XDATA, add(CFA_XSP16, literal(-16)))
          CFI (cfiCond108) V6 load(1, XDATA, add(CFA_XSP16, literal(-15)))
          CFI (cfiCond108) V7 load(1, XDATA, add(CFA_XSP16, literal(-14)))
          CFI (cfiCond108) V8 load(1, XDATA, add(CFA_XSP16, literal(-13)))
          CFI (cfiCond108) V9 load(1, XDATA, add(CFA_XSP16, literal(-12)))
          CFI (cfiCond108) V10 load(1, XDATA, add(CFA_XSP16, literal(-11)))
          CFI (cfiCond108) V11 load(1, XDATA, add(CFA_XSP16, literal(-10)))
          CFI (cfiCond108) V12 load(1, XDATA, add(CFA_XSP16, literal(-9)))
          CFI (cfiCond108) V13 load(1, XDATA, add(CFA_XSP16, literal(-8)))
          CFI (cfiCond108) V14 load(1, XDATA, add(CFA_XSP16, literal(-7)))
          CFI (cfiCond108) R7 load(1, XDATA, add(CFA_XSP16, literal(-6)))
          CFI (cfiCond108) ?RET_LOW load(1, XDATA, add(CFA_XSP16, literal(-5)))
          CFI (cfiCond108) ?RET_HIGH load(1, XDATA, add(CFA_XSP16, literal(-4)))
          CFI (cfiCond108) ?BRET_EXT load(1, XDATA, add(CFA_XSP16, literal(-3)))
          CFI (cfiCond108) DPL0 load(1, XDATA, add(CFA_XSP16, literal(-2)))
          CFI (cfiCond108) DPH0 load(1, XDATA, add(CFA_XSP16, literal(-1)))
          CFI (cfiCond108) CFA_SP SP+-2
          CFI (cfiCond108) CFA_XSP16 add(XSP16, 23)
          CFI Block cfiCond109 Using cfiCommon0
          CFI (cfiCond109) Function MT_AfIncomingMsg
          CFI (cfiCond109) Conditional ??CrossCallReturnLabel_69
          CFI (cfiCond109) R6 load(1, XDATA, add(CFA_XSP16, literal(-23)))
          CFI (cfiCond109) VB load(1, XDATA, add(CFA_XSP16, literal(-22)))
          CFI (cfiCond109) V0 load(1, XDATA, add(CFA_XSP16, literal(-21)))
          CFI (cfiCond109) V1 load(1, XDATA, add(CFA_XSP16, literal(-20)))
          CFI (cfiCond109) V2 load(1, XDATA, add(CFA_XSP16, literal(-19)))
          CFI (cfiCond109) V3 load(1, XDATA, add(CFA_XSP16, literal(-18)))
          CFI (cfiCond109) V4 load(1, XDATA, add(CFA_XSP16, literal(-17)))
          CFI (cfiCond109) V5 load(1, XDATA, add(CFA_XSP16, literal(-16)))
          CFI (cfiCond109) V6 load(1, XDATA, add(CFA_XSP16, literal(-15)))
          CFI (cfiCond109) V7 load(1, XDATA, add(CFA_XSP16, literal(-14)))
          CFI (cfiCond109) V8 load(1, XDATA, add(CFA_XSP16, literal(-13)))
          CFI (cfiCond109) V9 load(1, XDATA, add(CFA_XSP16, literal(-12)))
          CFI (cfiCond109) V10 load(1, XDATA, add(CFA_XSP16, literal(-11)))
          CFI (cfiCond109) V11 load(1, XDATA, add(CFA_XSP16, literal(-10)))
          CFI (cfiCond109) V12 load(1, XDATA, add(CFA_XSP16, literal(-9)))
          CFI (cfiCond109) V13 load(1, XDATA, add(CFA_XSP16, literal(-8)))
          CFI (cfiCond109) V14 load(1, XDATA, add(CFA_XSP16, literal(-7)))
          CFI (cfiCond109) R7 load(1, XDATA, add(CFA_XSP16, literal(-6)))
          CFI (cfiCond109) ?RET_LOW load(1, XDATA, add(CFA_XSP16, literal(-5)))
          CFI (cfiCond109) ?RET_HIGH load(1, XDATA, add(CFA_XSP16, literal(-4)))
          CFI (cfiCond109) ?BRET_EXT load(1, XDATA, add(CFA_XSP16, literal(-3)))
          CFI (cfiCond109) DPL0 load(1, XDATA, add(CFA_XSP16, literal(-2)))
          CFI (cfiCond109) DPH0 load(1, XDATA, add(CFA_XSP16, literal(-1)))
          CFI (cfiCond109) CFA_SP SP+-2
          CFI (cfiCond109) CFA_XSP16 add(XSP16, 23)
          CFI Block cfiPicker110 Using cfiCommon1
          CFI (cfiPicker110) NoFunction
          CFI (cfiPicker110) Picker
        MOV     DPL,A
        CLR     A
        ADDC    A,?V9
        MOV     DPH,A
        RET
          CFI EndBlock cfiCond103
          CFI EndBlock cfiCond104
          CFI EndBlock cfiCond105
          CFI EndBlock cfiCond106
          CFI EndBlock cfiCond107
          CFI EndBlock cfiCond108
          CFI EndBlock cfiCond109
          CFI EndBlock cfiPicker110

        RSEG BANKED_CODE:CODE:NOROOT(0)
?Subroutine33:
          CFI Block cfiCond111 Using cfiCommon0
          CFI Function MT_AfIncomingMsg
          CFI Conditional ??CrossCallReturnLabel_61
          CFI R6 load(1, XDATA, add(CFA_XSP16, literal(-23)))
          CFI VB load(1, XDATA, add(CFA_XSP16, literal(-22)))
          CFI V0 load(1, XDATA, add(CFA_XSP16, literal(-21)))
          CFI V1 load(1, XDATA, add(CFA_XSP16, literal(-20)))
          CFI V2 load(1, XDATA, add(CFA_XSP16, literal(-19)))
          CFI V3 load(1, XDATA, add(CFA_XSP16, literal(-18)))
          CFI V4 load(1, XDATA, add(CFA_XSP16, literal(-17)))
          CFI V5 load(1, XDATA, add(CFA_XSP16, literal(-16)))
          CFI V6 load(1, XDATA, add(CFA_XSP16, literal(-15)))
          CFI V7 load(1, XDATA, add(CFA_XSP16, literal(-14)))
          CFI V8 load(1, XDATA, add(CFA_XSP16, literal(-13)))
          CFI V9 load(1, XDATA, add(CFA_XSP16, literal(-12)))
          CFI V10 load(1, XDATA, add(CFA_XSP16, literal(-11)))
          CFI V11 load(1, XDATA, add(CFA_XSP16, literal(-10)))
          CFI V12 load(1, XDATA, add(CFA_XSP16, literal(-9)))
          CFI V13 load(1, XDATA, add(CFA_XSP16, literal(-8)))
          CFI V14 load(1, XDATA, add(CFA_XSP16, literal(-7)))
          CFI R7 load(1, XDATA, add(CFA_XSP16, literal(-6)))
          CFI ?RET_LOW load(1, XDATA, add(CFA_XSP16, literal(-5)))
          CFI ?RET_HIGH load(1, XDATA, add(CFA_XSP16, literal(-4)))
          CFI ?BRET_EXT load(1, XDATA, add(CFA_XSP16, literal(-3)))
          CFI DPL0 load(1, XDATA, add(CFA_XSP16, literal(-2)))
          CFI DPH0 load(1, XDATA, add(CFA_XSP16, literal(-1)))
          CFI CFA_SP SP+-2
          CFI CFA_XSP16 add(XSP16, 23)
          CFI Block cfiCond112 Using cfiCommon0
          CFI (cfiCond112) Function MT_AfIncomingMsg
          CFI (cfiCond112) Conditional ??CrossCallReturnLabel_62
          CFI (cfiCond112) R6 load(1, XDATA, add(CFA_XSP16, literal(-23)))
          CFI (cfiCond112) VB load(1, XDATA, add(CFA_XSP16, literal(-22)))
          CFI (cfiCond112) V0 load(1, XDATA, add(CFA_XSP16, literal(-21)))
          CFI (cfiCond112) V1 load(1, XDATA, add(CFA_XSP16, literal(-20)))
          CFI (cfiCond112) V2 load(1, XDATA, add(CFA_XSP16, literal(-19)))
          CFI (cfiCond112) V3 load(1, XDATA, add(CFA_XSP16, literal(-18)))
          CFI (cfiCond112) V4 load(1, XDATA, add(CFA_XSP16, literal(-17)))
          CFI (cfiCond112) V5 load(1, XDATA, add(CFA_XSP16, literal(-16)))
          CFI (cfiCond112) V6 load(1, XDATA, add(CFA_XSP16, literal(-15)))
          CFI (cfiCond112) V7 load(1, XDATA, add(CFA_XSP16, literal(-14)))
          CFI (cfiCond112) V8 load(1, XDATA, add(CFA_XSP16, literal(-13)))
          CFI (cfiCond112) V9 load(1, XDATA, add(CFA_XSP16, literal(-12)))
          CFI (cfiCond112) V10 load(1, XDATA, add(CFA_XSP16, literal(-11)))
          CFI (cfiCond112) V11 load(1, XDATA, add(CFA_XSP16, literal(-10)))
          CFI (cfiCond112) V12 load(1, XDATA, add(CFA_XSP16, literal(-9)))
          CFI (cfiCond112) V13 load(1, XDATA, add(CFA_XSP16, literal(-8)))
          CFI (cfiCond112) V14 load(1, XDATA, add(CFA_XSP16, literal(-7)))
          CFI (cfiCond112) R7 load(1, XDATA, add(CFA_XSP16, literal(-6)))
          CFI (cfiCond112) ?RET_LOW load(1, XDATA, add(CFA_XSP16, literal(-5)))
          CFI (cfiCond112) ?RET_HIGH load(1, XDATA, add(CFA_XSP16, literal(-4)))
          CFI (cfiCond112) ?BRET_EXT load(1, XDATA, add(CFA_XSP16, literal(-3)))
          CFI (cfiCond112) DPL0 load(1, XDATA, add(CFA_XSP16, literal(-2)))
          CFI (cfiCond112) DPH0 load(1, XDATA, add(CFA_XSP16, literal(-1)))
          CFI (cfiCond112) CFA_SP SP+-2
          CFI (cfiCond112) CFA_XSP16 add(XSP16, 23)
          CFI Block cfiPicker113 Using cfiCommon1
          CFI (cfiPicker113) NoFunction
          CFI (cfiPicker113) Picker
        MOV     A,?V8
        ADD     A,#0x6
        LCALL   ?Subroutine42 & 0xFFFF
??CrossCallReturnLabel_86:
        RET
          CFI EndBlock cfiCond111
          CFI EndBlock cfiCond112
          CFI EndBlock cfiPicker113

        RSEG BANKED_CODE:CODE:NOROOT(0)
?Subroutine42:
          CFI Block cfiCond114 Using cfiCommon0
          CFI Function MT_AfIncomingMsg
          CFI Conditional ??CrossCallReturnLabel_86, ??CrossCallReturnLabel_61
          CFI R6 load(1, XDATA, add(CFA_XSP16, literal(-23)))
          CFI VB load(1, XDATA, add(CFA_XSP16, literal(-22)))
          CFI V0 load(1, XDATA, add(CFA_XSP16, literal(-21)))
          CFI V1 load(1, XDATA, add(CFA_XSP16, literal(-20)))
          CFI V2 load(1, XDATA, add(CFA_XSP16, literal(-19)))
          CFI V3 load(1, XDATA, add(CFA_XSP16, literal(-18)))
          CFI V4 load(1, XDATA, add(CFA_XSP16, literal(-17)))
          CFI V5 load(1, XDATA, add(CFA_XSP16, literal(-16)))
          CFI V6 load(1, XDATA, add(CFA_XSP16, literal(-15)))
          CFI V7 load(1, XDATA, add(CFA_XSP16, literal(-14)))
          CFI V8 load(1, XDATA, add(CFA_XSP16, literal(-13)))
          CFI V9 load(1, XDATA, add(CFA_XSP16, literal(-12)))
          CFI V10 load(1, XDATA, add(CFA_XSP16, literal(-11)))
          CFI V11 load(1, XDATA, add(CFA_XSP16, literal(-10)))
          CFI V12 load(1, XDATA, add(CFA_XSP16, literal(-9)))
          CFI V13 load(1, XDATA, add(CFA_XSP16, literal(-8)))
          CFI V14 load(1, XDATA, add(CFA_XSP16, literal(-7)))
          CFI R7 load(1, XDATA, add(CFA_XSP16, literal(-6)))
          CFI ?RET_LOW load(1, XDATA, add(CFA_XSP16, literal(-5)))
          CFI ?RET_HIGH load(1, XDATA, add(CFA_XSP16, literal(-4)))
          CFI ?BRET_EXT load(1, XDATA, add(CFA_XSP16, literal(-3)))
          CFI DPL0 load(1, XDATA, add(CFA_XSP16, literal(-2)))
          CFI DPH0 load(1, XDATA, add(CFA_XSP16, literal(-1)))
          CFI CFA_SP SP+-4
          CFI CFA_XSP16 add(XSP16, 23)
          CFI Block cfiCond115 Using cfiCommon0
          CFI (cfiCond115) Function MT_AfIncomingMsg
          CFI (cfiCond115) Conditional ??CrossCallReturnLabel_86, ??CrossCallReturnLabel_62
          CFI (cfiCond115) R6 load(1, XDATA, add(CFA_XSP16, literal(-23)))
          CFI (cfiCond115) VB load(1, XDATA, add(CFA_XSP16, literal(-22)))
          CFI (cfiCond115) V0 load(1, XDATA, add(CFA_XSP16, literal(-21)))
          CFI (cfiCond115) V1 load(1, XDATA, add(CFA_XSP16, literal(-20)))
          CFI (cfiCond115) V2 load(1, XDATA, add(CFA_XSP16, literal(-19)))
          CFI (cfiCond115) V3 load(1, XDATA, add(CFA_XSP16, literal(-18)))
          CFI (cfiCond115) V4 load(1, XDATA, add(CFA_XSP16, literal(-17)))
          CFI (cfiCond115) V5 load(1, XDATA, add(CFA_XSP16, literal(-16)))
          CFI (cfiCond115) V6 load(1, XDATA, add(CFA_XSP16, literal(-15)))
          CFI (cfiCond115) V7 load(1, XDATA, add(CFA_XSP16, literal(-14)))
          CFI (cfiCond115) V8 load(1, XDATA, add(CFA_XSP16, literal(-13)))
          CFI (cfiCond115) V9 load(1, XDATA, add(CFA_XSP16, literal(-12)))
          CFI (cfiCond115) V10 load(1, XDATA, add(CFA_XSP16, literal(-11)))
          CFI (cfiCond115) V11 load(1, XDATA, add(CFA_XSP16, literal(-10)))
          CFI (cfiCond115) V12 load(1, XDATA, add(CFA_XSP16, literal(-9)))
          CFI (cfiCond115) V13 load(1, XDATA, add(CFA_XSP16, literal(-8)))
          CFI (cfiCond115) V14 load(1, XDATA, add(CFA_XSP16, literal(-7)))
          CFI (cfiCond115) R7 load(1, XDATA, add(CFA_XSP16, literal(-6)))
          CFI (cfiCond115) ?RET_LOW load(1, XDATA, add(CFA_XSP16, literal(-5)))
          CFI (cfiCond115) ?RET_HIGH load(1, XDATA, add(CFA_XSP16, literal(-4)))
          CFI (cfiCond115) ?BRET_EXT load(1, XDATA, add(CFA_XSP16, literal(-3)))
          CFI (cfiCond115) DPL0 load(1, XDATA, add(CFA_XSP16, literal(-2)))
          CFI (cfiCond115) DPH0 load(1, XDATA, add(CFA_XSP16, literal(-1)))
          CFI (cfiCond115) CFA_SP SP+-4
          CFI (cfiCond115) CFA_XSP16 add(XSP16, 23)
          CFI Block cfiCond116 Using cfiCommon0
          CFI (cfiCond116) Function MT_AfIncomingMsg
          CFI (cfiCond116) Conditional ??CrossCallReturnLabel_85, ??CrossCallReturnLabel_7
          CFI (cfiCond116) R6 load(1, XDATA, add(CFA_XSP16, literal(-23)))
          CFI (cfiCond116) VB load(1, XDATA, add(CFA_XSP16, literal(-22)))
          CFI (cfiCond116) V0 load(1, XDATA, add(CFA_XSP16, literal(-21)))
          CFI (cfiCond116) V1 load(1, XDATA, add(CFA_XSP16, literal(-20)))
          CFI (cfiCond116) V2 load(1, XDATA, add(CFA_XSP16, literal(-19)))
          CFI (cfiCond116) V3 load(1, XDATA, add(CFA_XSP16, literal(-18)))
          CFI (cfiCond116) V4 load(1, XDATA, add(CFA_XSP16, literal(-17)))
          CFI (cfiCond116) V5 load(1, XDATA, add(CFA_XSP16, literal(-16)))
          CFI (cfiCond116) V6 load(1, XDATA, add(CFA_XSP16, literal(-15)))
          CFI (cfiCond116) V7 load(1, XDATA, add(CFA_XSP16, literal(-14)))
          CFI (cfiCond116) V8 load(1, XDATA, add(CFA_XSP16, literal(-13)))
          CFI (cfiCond116) V9 load(1, XDATA, add(CFA_XSP16, literal(-12)))
          CFI (cfiCond116) V10 load(1, XDATA, add(CFA_XSP16, literal(-11)))
          CFI (cfiCond116) V11 load(1, XDATA, add(CFA_XSP16, literal(-10)))
          CFI (cfiCond116) V12 load(1, XDATA, add(CFA_XSP16, literal(-9)))
          CFI (cfiCond116) V13 load(1, XDATA, add(CFA_XSP16, literal(-8)))
          CFI (cfiCond116) V14 load(1, XDATA, add(CFA_XSP16, literal(-7)))
          CFI (cfiCond116) R7 load(1, XDATA, add(CFA_XSP16, literal(-6)))
          CFI (cfiCond116) ?RET_LOW load(1, XDATA, add(CFA_XSP16, literal(-5)))
          CFI (cfiCond116) ?RET_HIGH load(1, XDATA, add(CFA_XSP16, literal(-4)))
          CFI (cfiCond116) ?BRET_EXT load(1, XDATA, add(CFA_XSP16, literal(-3)))
          CFI (cfiCond116) DPL0 load(1, XDATA, add(CFA_XSP16, literal(-2)))
          CFI (cfiCond116) DPH0 load(1, XDATA, add(CFA_XSP16, literal(-1)))
          CFI (cfiCond116) CFA_SP SP+-4
          CFI (cfiCond116) CFA_XSP16 add(XSP16, 23)
          CFI Block cfiCond117 Using cfiCommon0
          CFI (cfiCond117) Function MT_AfIncomingMsg
          CFI (cfiCond117) Conditional ??CrossCallReturnLabel_85, ??CrossCallReturnLabel_8
          CFI (cfiCond117) R6 load(1, XDATA, add(CFA_XSP16, literal(-23)))
          CFI (cfiCond117) VB load(1, XDATA, add(CFA_XSP16, literal(-22)))
          CFI (cfiCond117) V0 load(1, XDATA, add(CFA_XSP16, literal(-21)))
          CFI (cfiCond117) V1 load(1, XDATA, add(CFA_XSP16, literal(-20)))
          CFI (cfiCond117) V2 load(1, XDATA, add(CFA_XSP16, literal(-19)))
          CFI (cfiCond117) V3 load(1, XDATA, add(CFA_XSP16, literal(-18)))
          CFI (cfiCond117) V4 load(1, XDATA, add(CFA_XSP16, literal(-17)))
          CFI (cfiCond117) V5 load(1, XDATA, add(CFA_XSP16, literal(-16)))
          CFI (cfiCond117) V6 load(1, XDATA, add(CFA_XSP16, literal(-15)))
          CFI (cfiCond117) V7 load(1, XDATA, add(CFA_XSP16, literal(-14)))
          CFI (cfiCond117) V8 load(1, XDATA, add(CFA_XSP16, literal(-13)))
          CFI (cfiCond117) V9 load(1, XDATA, add(CFA_XSP16, literal(-12)))
          CFI (cfiCond117) V10 load(1, XDATA, add(CFA_XSP16, literal(-11)))
          CFI (cfiCond117) V11 load(1, XDATA, add(CFA_XSP16, literal(-10)))
          CFI (cfiCond117) V12 load(1, XDATA, add(CFA_XSP16, literal(-9)))
          CFI (cfiCond117) V13 load(1, XDATA, add(CFA_XSP16, literal(-8)))
          CFI (cfiCond117) V14 load(1, XDATA, add(CFA_XSP16, literal(-7)))
          CFI (cfiCond117) R7 load(1, XDATA, add(CFA_XSP16, literal(-6)))
          CFI (cfiCond117) ?RET_LOW load(1, XDATA, add(CFA_XSP16, literal(-5)))
          CFI (cfiCond117) ?RET_HIGH load(1, XDATA, add(CFA_XSP16, literal(-4)))
          CFI (cfiCond117) ?BRET_EXT load(1, XDATA, add(CFA_XSP16, literal(-3)))
          CFI (cfiCond117) DPL0 load(1, XDATA, add(CFA_XSP16, literal(-2)))
          CFI (cfiCond117) DPH0 load(1, XDATA, add(CFA_XSP16, literal(-1)))
          CFI (cfiCond117) CFA_SP SP+-4
          CFI (cfiCond117) CFA_XSP16 add(XSP16, 23)
          CFI Block cfiCond118 Using cfiCommon0
          CFI (cfiCond118) Function MT_AfIncomingMsg
          CFI (cfiCond118) Conditional ??CrossCallReturnLabel_84, ??CrossCallReturnLabel_113
          CFI (cfiCond118) R6 load(1, XDATA, add(CFA_XSP16, literal(-23)))
          CFI (cfiCond118) VB load(1, XDATA, add(CFA_XSP16, literal(-22)))
          CFI (cfiCond118) V0 load(1, XDATA, add(CFA_XSP16, literal(-21)))
          CFI (cfiCond118) V1 load(1, XDATA, add(CFA_XSP16, literal(-20)))
          CFI (cfiCond118) V2 load(1, XDATA, add(CFA_XSP16, literal(-19)))
          CFI (cfiCond118) V3 load(1, XDATA, add(CFA_XSP16, literal(-18)))
          CFI (cfiCond118) V4 load(1, XDATA, add(CFA_XSP16, literal(-17)))
          CFI (cfiCond118) V5 load(1, XDATA, add(CFA_XSP16, literal(-16)))
          CFI (cfiCond118) V6 load(1, XDATA, add(CFA_XSP16, literal(-15)))
          CFI (cfiCond118) V7 load(1, XDATA, add(CFA_XSP16, literal(-14)))
          CFI (cfiCond118) V8 load(1, XDATA, add(CFA_XSP16, literal(-13)))
          CFI (cfiCond118) V9 load(1, XDATA, add(CFA_XSP16, literal(-12)))
          CFI (cfiCond118) V10 load(1, XDATA, add(CFA_XSP16, literal(-11)))
          CFI (cfiCond118) V11 load(1, XDATA, add(CFA_XSP16, literal(-10)))
          CFI (cfiCond118) V12 load(1, XDATA, add(CFA_XSP16, literal(-9)))
          CFI (cfiCond118) V13 load(1, XDATA, add(CFA_XSP16, literal(-8)))
          CFI (cfiCond118) V14 load(1, XDATA, add(CFA_XSP16, literal(-7)))
          CFI (cfiCond118) R7 load(1, XDATA, add(CFA_XSP16, literal(-6)))
          CFI (cfiCond118) ?RET_LOW load(1, XDATA, add(CFA_XSP16, literal(-5)))
          CFI (cfiCond118) ?RET_HIGH load(1, XDATA, add(CFA_XSP16, literal(-4)))
          CFI (cfiCond118) ?BRET_EXT load(1, XDATA, add(CFA_XSP16, literal(-3)))
          CFI (cfiCond118) DPL0 load(1, XDATA, add(CFA_XSP16, literal(-2)))
          CFI (cfiCond118) DPH0 load(1, XDATA, add(CFA_XSP16, literal(-1)))
          CFI (cfiCond118) CFA_SP SP+-4
          CFI (cfiCond118) CFA_XSP16 add(XSP16, 23)
          CFI Block cfiCond119 Using cfiCommon0
          CFI (cfiCond119) Function MT_AfIncomingMsg
          CFI (cfiCond119) Conditional ??CrossCallReturnLabel_84, ??CrossCallReturnLabel_114
          CFI (cfiCond119) R6 load(1, XDATA, add(CFA_XSP16, literal(-23)))
          CFI (cfiCond119) VB load(1, XDATA, add(CFA_XSP16, literal(-22)))
          CFI (cfiCond119) V0 load(1, XDATA, add(CFA_XSP16, literal(-21)))
          CFI (cfiCond119) V1 load(1, XDATA, add(CFA_XSP16, literal(-20)))
          CFI (cfiCond119) V2 load(1, XDATA, add(CFA_XSP16, literal(-19)))
          CFI (cfiCond119) V3 load(1, XDATA, add(CFA_XSP16, literal(-18)))
          CFI (cfiCond119) V4 load(1, XDATA, add(CFA_XSP16, literal(-17)))
          CFI (cfiCond119) V5 load(1, XDATA, add(CFA_XSP16, literal(-16)))
          CFI (cfiCond119) V6 load(1, XDATA, add(CFA_XSP16, literal(-15)))
          CFI (cfiCond119) V7 load(1, XDATA, add(CFA_XSP16, literal(-14)))
          CFI (cfiCond119) V8 load(1, XDATA, add(CFA_XSP16, literal(-13)))
          CFI (cfiCond119) V9 load(1, XDATA, add(CFA_XSP16, literal(-12)))
          CFI (cfiCond119) V10 load(1, XDATA, add(CFA_XSP16, literal(-11)))
          CFI (cfiCond119) V11 load(1, XDATA, add(CFA_XSP16, literal(-10)))
          CFI (cfiCond119) V12 load(1, XDATA, add(CFA_XSP16, literal(-9)))
          CFI (cfiCond119) V13 load(1, XDATA, add(CFA_XSP16, literal(-8)))
          CFI (cfiCond119) V14 load(1, XDATA, add(CFA_XSP16, literal(-7)))
          CFI (cfiCond119) R7 load(1, XDATA, add(CFA_XSP16, literal(-6)))
          CFI (cfiCond119) ?RET_LOW load(1, XDATA, add(CFA_XSP16, literal(-5)))
          CFI (cfiCond119) ?RET_HIGH load(1, XDATA, add(CFA_XSP16, literal(-4)))
          CFI (cfiCond119) ?BRET_EXT load(1, XDATA, add(CFA_XSP16, literal(-3)))
          CFI (cfiCond119) DPL0 load(1, XDATA, add(CFA_XSP16, literal(-2)))
          CFI (cfiCond119) DPH0 load(1, XDATA, add(CFA_XSP16, literal(-1)))
          CFI (cfiCond119) CFA_SP SP+-4
          CFI (cfiCond119) CFA_XSP16 add(XSP16, 23)
          CFI Block cfiPicker120 Using cfiCommon1
          CFI (cfiPicker120) NoFunction
          CFI (cfiPicker120) Picker
        MOV     R0,A
        CLR     A
        ADDC    A,?V9
        MOV     R1,A
        MOV     DPL,R0
        MOV     DPH,R1
        RET
          CFI EndBlock cfiCond114
          CFI EndBlock cfiCond115
          CFI EndBlock cfiCond116
          CFI EndBlock cfiCond117
          CFI EndBlock cfiCond118
          CFI EndBlock cfiCond119
          CFI EndBlock cfiPicker120

        RSEG BANKED_CODE:CODE:NOROOT(0)
?Subroutine25:
          CFI Block cfiCond121 Using cfiCommon0
          CFI Function MT_AfIncomingMsg
          CFI Conditional ??CrossCallReturnLabel_99
          CFI R6 load(1, XDATA, add(CFA_XSP16, literal(-23)))
          CFI VB load(1, XDATA, add(CFA_XSP16, literal(-22)))
          CFI V0 load(1, XDATA, add(CFA_XSP16, literal(-21)))
          CFI V1 load(1, XDATA, add(CFA_XSP16, literal(-20)))
          CFI V2 load(1, XDATA, add(CFA_XSP16, literal(-19)))
          CFI V3 load(1, XDATA, add(CFA_XSP16, literal(-18)))
          CFI V4 load(1, XDATA, add(CFA_XSP16, literal(-17)))
          CFI V5 load(1, XDATA, add(CFA_XSP16, literal(-16)))
          CFI V6 load(1, XDATA, add(CFA_XSP16, literal(-15)))
          CFI V7 load(1, XDATA, add(CFA_XSP16, literal(-14)))
          CFI V8 load(1, XDATA, add(CFA_XSP16, literal(-13)))
          CFI V9 load(1, XDATA, add(CFA_XSP16, literal(-12)))
          CFI V10 load(1, XDATA, add(CFA_XSP16, literal(-11)))
          CFI V11 load(1, XDATA, add(CFA_XSP16, literal(-10)))
          CFI V12 load(1, XDATA, add(CFA_XSP16, literal(-9)))
          CFI V13 load(1, XDATA, add(CFA_XSP16, literal(-8)))
          CFI V14 load(1, XDATA, add(CFA_XSP16, literal(-7)))
          CFI R7 load(1, XDATA, add(CFA_XSP16, literal(-6)))
          CFI ?RET_LOW load(1, XDATA, add(CFA_XSP16, literal(-5)))
          CFI ?RET_HIGH load(1, XDATA, add(CFA_XSP16, literal(-4)))
          CFI ?BRET_EXT load(1, XDATA, add(CFA_XSP16, literal(-3)))
          CFI DPL0 load(1, XDATA, add(CFA_XSP16, literal(-2)))
          CFI DPH0 load(1, XDATA, add(CFA_XSP16, literal(-1)))
          CFI CFA_SP SP+-2
          CFI CFA_XSP16 add(XSP16, 23)
          CFI Block cfiCond122 Using cfiCommon0
          CFI (cfiCond122) Function MT_AfIncomingMsg
          CFI (cfiCond122) Conditional ??CrossCallReturnLabel_100
          CFI (cfiCond122) R6 load(1, XDATA, add(CFA_XSP16, literal(-23)))
          CFI (cfiCond122) VB load(1, XDATA, add(CFA_XSP16, literal(-22)))
          CFI (cfiCond122) V0 load(1, XDATA, add(CFA_XSP16, literal(-21)))
          CFI (cfiCond122) V1 load(1, XDATA, add(CFA_XSP16, literal(-20)))
          CFI (cfiCond122) V2 load(1, XDATA, add(CFA_XSP16, literal(-19)))
          CFI (cfiCond122) V3 load(1, XDATA, add(CFA_XSP16, literal(-18)))
          CFI (cfiCond122) V4 load(1, XDATA, add(CFA_XSP16, literal(-17)))
          CFI (cfiCond122) V5 load(1, XDATA, add(CFA_XSP16, literal(-16)))
          CFI (cfiCond122) V6 load(1, XDATA, add(CFA_XSP16, literal(-15)))
          CFI (cfiCond122) V7 load(1, XDATA, add(CFA_XSP16, literal(-14)))
          CFI (cfiCond122) V8 load(1, XDATA, add(CFA_XSP16, literal(-13)))
          CFI (cfiCond122) V9 load(1, XDATA, add(CFA_XSP16, literal(-12)))
          CFI (cfiCond122) V10 load(1, XDATA, add(CFA_XSP16, literal(-11)))
          CFI (cfiCond122) V11 load(1, XDATA, add(CFA_XSP16, literal(-10)))
          CFI (cfiCond122) V12 load(1, XDATA, add(CFA_XSP16, literal(-9)))
          CFI (cfiCond122) V13 load(1, XDATA, add(CFA_XSP16, literal(-8)))
          CFI (cfiCond122) V14 load(1, XDATA, add(CFA_XSP16, literal(-7)))
          CFI (cfiCond122) R7 load(1, XDATA, add(CFA_XSP16, literal(-6)))
          CFI (cfiCond122) ?RET_LOW load(1, XDATA, add(CFA_XSP16, literal(-5)))
          CFI (cfiCond122) ?RET_HIGH load(1, XDATA, add(CFA_XSP16, literal(-4)))
          CFI (cfiCond122) ?BRET_EXT load(1, XDATA, add(CFA_XSP16, literal(-3)))
          CFI (cfiCond122) DPL0 load(1, XDATA, add(CFA_XSP16, literal(-2)))
          CFI (cfiCond122) DPH0 load(1, XDATA, add(CFA_XSP16, literal(-1)))
          CFI (cfiCond122) CFA_SP SP+-2
          CFI (cfiCond122) CFA_XSP16 add(XSP16, 23)
          CFI Block cfiPicker123 Using cfiCommon1
          CFI (cfiPicker123) NoFunction
          CFI (cfiPicker123) Picker
        MOV     DPL,R6
        MOV     DPH,R7
        MOV     A,?V4
          CFI EndBlock cfiCond121
          CFI EndBlock cfiCond122
          CFI EndBlock cfiPicker123
        REQUIRE ??Subroutine48_0
        ; // Fall through to label ??Subroutine48_0

        RSEG BANKED_CODE:CODE:NOROOT(0)
??Subroutine48_0:
          CFI Block cfiCond124 Using cfiCommon0
          CFI Function MT_AfIncomingMsg
          CFI Conditional ??CrossCallReturnLabel_101
          CFI R6 load(1, XDATA, add(CFA_XSP16, literal(-23)))
          CFI VB load(1, XDATA, add(CFA_XSP16, literal(-22)))
          CFI V0 load(1, XDATA, add(CFA_XSP16, literal(-21)))
          CFI V1 load(1, XDATA, add(CFA_XSP16, literal(-20)))
          CFI V2 load(1, XDATA, add(CFA_XSP16, literal(-19)))
          CFI V3 load(1, XDATA, add(CFA_XSP16, literal(-18)))
          CFI V4 load(1, XDATA, add(CFA_XSP16, literal(-17)))
          CFI V5 load(1, XDATA, add(CFA_XSP16, literal(-16)))
          CFI V6 load(1, XDATA, add(CFA_XSP16, literal(-15)))
          CFI V7 load(1, XDATA, add(CFA_XSP16, literal(-14)))
          CFI V8 load(1, XDATA, add(CFA_XSP16, literal(-13)))
          CFI V9 load(1, XDATA, add(CFA_XSP16, literal(-12)))
          CFI V10 load(1, XDATA, add(CFA_XSP16, literal(-11)))
          CFI V11 load(1, XDATA, add(CFA_XSP16, literal(-10)))
          CFI V12 load(1, XDATA, add(CFA_XSP16, literal(-9)))
          CFI V13 load(1, XDATA, add(CFA_XSP16, literal(-8)))
          CFI V14 load(1, XDATA, add(CFA_XSP16, literal(-7)))
          CFI R7 load(1, XDATA, add(CFA_XSP16, literal(-6)))
          CFI ?RET_LOW load(1, XDATA, add(CFA_XSP16, literal(-5)))
          CFI ?RET_HIGH load(1, XDATA, add(CFA_XSP16, literal(-4)))
          CFI ?BRET_EXT load(1, XDATA, add(CFA_XSP16, literal(-3)))
          CFI DPL0 load(1, XDATA, add(CFA_XSP16, literal(-2)))
          CFI DPH0 load(1, XDATA, add(CFA_XSP16, literal(-1)))
          CFI CFA_SP SP+-2
          CFI CFA_XSP16 add(XSP16, 23)
          CFI Block cfiCond125 Using cfiCommon0
          CFI (cfiCond125) Function MT_AfIncomingMsg
          CFI (cfiCond125) Conditional ??CrossCallReturnLabel_99
          CFI (cfiCond125) R6 load(1, XDATA, add(CFA_XSP16, literal(-23)))
          CFI (cfiCond125) VB load(1, XDATA, add(CFA_XSP16, literal(-22)))
          CFI (cfiCond125) V0 load(1, XDATA, add(CFA_XSP16, literal(-21)))
          CFI (cfiCond125) V1 load(1, XDATA, add(CFA_XSP16, literal(-20)))
          CFI (cfiCond125) V2 load(1, XDATA, add(CFA_XSP16, literal(-19)))
          CFI (cfiCond125) V3 load(1, XDATA, add(CFA_XSP16, literal(-18)))
          CFI (cfiCond125) V4 load(1, XDATA, add(CFA_XSP16, literal(-17)))
          CFI (cfiCond125) V5 load(1, XDATA, add(CFA_XSP16, literal(-16)))
          CFI (cfiCond125) V6 load(1, XDATA, add(CFA_XSP16, literal(-15)))
          CFI (cfiCond125) V7 load(1, XDATA, add(CFA_XSP16, literal(-14)))
          CFI (cfiCond125) V8 load(1, XDATA, add(CFA_XSP16, literal(-13)))
          CFI (cfiCond125) V9 load(1, XDATA, add(CFA_XSP16, literal(-12)))
          CFI (cfiCond125) V10 load(1, XDATA, add(CFA_XSP16, literal(-11)))
          CFI (cfiCond125) V11 load(1, XDATA, add(CFA_XSP16, literal(-10)))
          CFI (cfiCond125) V12 load(1, XDATA, add(CFA_XSP16, literal(-9)))
          CFI (cfiCond125) V13 load(1, XDATA, add(CFA_XSP16, literal(-8)))
          CFI (cfiCond125) V14 load(1, XDATA, add(CFA_XSP16, literal(-7)))
          CFI (cfiCond125) R7 load(1, XDATA, add(CFA_XSP16, literal(-6)))
          CFI (cfiCond125) ?RET_LOW load(1, XDATA, add(CFA_XSP16, literal(-5)))
          CFI (cfiCond125) ?RET_HIGH load(1, XDATA, add(CFA_XSP16, literal(-4)))
          CFI (cfiCond125) ?BRET_EXT load(1, XDATA, add(CFA_XSP16, literal(-3)))
          CFI (cfiCond125) DPL0 load(1, XDATA, add(CFA_XSP16, literal(-2)))
          CFI (cfiCond125) DPH0 load(1, XDATA, add(CFA_XSP16, literal(-1)))
          CFI (cfiCond125) CFA_SP SP+-2
          CFI (cfiCond125) CFA_XSP16 add(XSP16, 23)
          CFI Block cfiCond126 Using cfiCommon0
          CFI (cfiCond126) Function MT_AfIncomingMsg
          CFI (cfiCond126) Conditional ??CrossCallReturnLabel_100
          CFI (cfiCond126) R6 load(1, XDATA, add(CFA_XSP16, literal(-23)))
          CFI (cfiCond126) VB load(1, XDATA, add(CFA_XSP16, literal(-22)))
          CFI (cfiCond126) V0 load(1, XDATA, add(CFA_XSP16, literal(-21)))
          CFI (cfiCond126) V1 load(1, XDATA, add(CFA_XSP16, literal(-20)))
          CFI (cfiCond126) V2 load(1, XDATA, add(CFA_XSP16, literal(-19)))
          CFI (cfiCond126) V3 load(1, XDATA, add(CFA_XSP16, literal(-18)))
          CFI (cfiCond126) V4 load(1, XDATA, add(CFA_XSP16, literal(-17)))
          CFI (cfiCond126) V5 load(1, XDATA, add(CFA_XSP16, literal(-16)))
          CFI (cfiCond126) V6 load(1, XDATA, add(CFA_XSP16, literal(-15)))
          CFI (cfiCond126) V7 load(1, XDATA, add(CFA_XSP16, literal(-14)))
          CFI (cfiCond126) V8 load(1, XDATA, add(CFA_XSP16, literal(-13)))
          CFI (cfiCond126) V9 load(1, XDATA, add(CFA_XSP16, literal(-12)))
          CFI (cfiCond126) V10 load(1, XDATA, add(CFA_XSP16, literal(-11)))
          CFI (cfiCond126) V11 load(1, XDATA, add(CFA_XSP16, literal(-10)))
          CFI (cfiCond126) V12 load(1, XDATA, add(CFA_XSP16, literal(-9)))
          CFI (cfiCond126) V13 load(1, XDATA, add(CFA_XSP16, literal(-8)))
          CFI (cfiCond126) V14 load(1, XDATA, add(CFA_XSP16, literal(-7)))
          CFI (cfiCond126) R7 load(1, XDATA, add(CFA_XSP16, literal(-6)))
          CFI (cfiCond126) ?RET_LOW load(1, XDATA, add(CFA_XSP16, literal(-5)))
          CFI (cfiCond126) ?RET_HIGH load(1, XDATA, add(CFA_XSP16, literal(-4)))
          CFI (cfiCond126) ?BRET_EXT load(1, XDATA, add(CFA_XSP16, literal(-3)))
          CFI (cfiCond126) DPL0 load(1, XDATA, add(CFA_XSP16, literal(-2)))
          CFI (cfiCond126) DPH0 load(1, XDATA, add(CFA_XSP16, literal(-1)))
          CFI (cfiCond126) CFA_SP SP+-2
          CFI (cfiCond126) CFA_XSP16 add(XSP16, 23)
          CFI Block cfiPicker127 Using cfiCommon1
          CFI (cfiPicker127) NoFunction
          CFI (cfiPicker127) Picker
        MOVX    @DPTR,A
        INC     DPTR
        INC     R6
        MOV     R7,DPH
        MOV     DPL,R2
        MOV     DPH,R3
        MOV     R0,#?V4
        RET
          CFI EndBlock cfiCond124
          CFI EndBlock cfiCond125
          CFI EndBlock cfiCond126
          CFI EndBlock cfiPicker127

        RSEG BANKED_CODE:CODE:NOROOT(0)
?Subroutine23:
          CFI Block cfiCond128 Using cfiCommon0
          CFI Function MT_AfIncomingMsg
          CFI Conditional ??CrossCallReturnLabel_104
          CFI R6 load(1, XDATA, add(CFA_XSP16, literal(-23)))
          CFI VB load(1, XDATA, add(CFA_XSP16, literal(-22)))
          CFI V0 load(1, XDATA, add(CFA_XSP16, literal(-21)))
          CFI V1 load(1, XDATA, add(CFA_XSP16, literal(-20)))
          CFI V2 load(1, XDATA, add(CFA_XSP16, literal(-19)))
          CFI V3 load(1, XDATA, add(CFA_XSP16, literal(-18)))
          CFI V4 load(1, XDATA, add(CFA_XSP16, literal(-17)))
          CFI V5 load(1, XDATA, add(CFA_XSP16, literal(-16)))
          CFI V6 load(1, XDATA, add(CFA_XSP16, literal(-15)))
          CFI V7 load(1, XDATA, add(CFA_XSP16, literal(-14)))
          CFI V8 load(1, XDATA, add(CFA_XSP16, literal(-13)))
          CFI V9 load(1, XDATA, add(CFA_XSP16, literal(-12)))
          CFI V10 load(1, XDATA, add(CFA_XSP16, literal(-11)))
          CFI V11 load(1, XDATA, add(CFA_XSP16, literal(-10)))
          CFI V12 load(1, XDATA, add(CFA_XSP16, literal(-9)))
          CFI V13 load(1, XDATA, add(CFA_XSP16, literal(-8)))
          CFI V14 load(1, XDATA, add(CFA_XSP16, literal(-7)))
          CFI R7 load(1, XDATA, add(CFA_XSP16, literal(-6)))
          CFI ?RET_LOW load(1, XDATA, add(CFA_XSP16, literal(-5)))
          CFI ?RET_HIGH load(1, XDATA, add(CFA_XSP16, literal(-4)))
          CFI ?BRET_EXT load(1, XDATA, add(CFA_XSP16, literal(-3)))
          CFI DPL0 load(1, XDATA, add(CFA_XSP16, literal(-2)))
          CFI DPH0 load(1, XDATA, add(CFA_XSP16, literal(-1)))
          CFI CFA_SP SP+-2
          CFI CFA_XSP16 add(XSP16, 23)
          CFI Block cfiCond129 Using cfiCommon0
          CFI (cfiCond129) Function MT_AfIncomingMsg
          CFI (cfiCond129) Conditional ??CrossCallReturnLabel_105
          CFI (cfiCond129) R6 load(1, XDATA, add(CFA_XSP16, literal(-23)))
          CFI (cfiCond129) VB load(1, XDATA, add(CFA_XSP16, literal(-22)))
          CFI (cfiCond129) V0 load(1, XDATA, add(CFA_XSP16, literal(-21)))
          CFI (cfiCond129) V1 load(1, XDATA, add(CFA_XSP16, literal(-20)))
          CFI (cfiCond129) V2 load(1, XDATA, add(CFA_XSP16, literal(-19)))
          CFI (cfiCond129) V3 load(1, XDATA, add(CFA_XSP16, literal(-18)))
          CFI (cfiCond129) V4 load(1, XDATA, add(CFA_XSP16, literal(-17)))
          CFI (cfiCond129) V5 load(1, XDATA, add(CFA_XSP16, literal(-16)))
          CFI (cfiCond129) V6 load(1, XDATA, add(CFA_XSP16, literal(-15)))
          CFI (cfiCond129) V7 load(1, XDATA, add(CFA_XSP16, literal(-14)))
          CFI (cfiCond129) V8 load(1, XDATA, add(CFA_XSP16, literal(-13)))
          CFI (cfiCond129) V9 load(1, XDATA, add(CFA_XSP16, literal(-12)))
          CFI (cfiCond129) V10 load(1, XDATA, add(CFA_XSP16, literal(-11)))
          CFI (cfiCond129) V11 load(1, XDATA, add(CFA_XSP16, literal(-10)))
          CFI (cfiCond129) V12 load(1, XDATA, add(CFA_XSP16, literal(-9)))
          CFI (cfiCond129) V13 load(1, XDATA, add(CFA_XSP16, literal(-8)))
          CFI (cfiCond129) V14 load(1, XDATA, add(CFA_XSP16, literal(-7)))
          CFI (cfiCond129) R7 load(1, XDATA, add(CFA_XSP16, literal(-6)))
          CFI (cfiCond129) ?RET_LOW load(1, XDATA, add(CFA_XSP16, literal(-5)))
          CFI (cfiCond129) ?RET_HIGH load(1, XDATA, add(CFA_XSP16, literal(-4)))
          CFI (cfiCond129) ?BRET_EXT load(1, XDATA, add(CFA_XSP16, literal(-3)))
          CFI (cfiCond129) DPL0 load(1, XDATA, add(CFA_XSP16, literal(-2)))
          CFI (cfiCond129) DPH0 load(1, XDATA, add(CFA_XSP16, literal(-1)))
          CFI (cfiCond129) CFA_SP SP+-2
          CFI (cfiCond129) CFA_XSP16 add(XSP16, 23)
          CFI Block cfiPicker130 Using cfiCommon1
          CFI (cfiPicker130) NoFunction
          CFI (cfiPicker130) Picker
        ADD     A,#0xf
          CFI EndBlock cfiCond128
          CFI EndBlock cfiCond129
          CFI EndBlock cfiPicker130
        REQUIRE ??Subroutine49_0
        ; // Fall through to label ??Subroutine49_0

        RSEG BANKED_CODE:CODE:NOROOT(0)
??Subroutine49_0:
          CFI Block cfiCond131 Using cfiCommon0
          CFI Function MT_AfIncomingMsg
          CFI Conditional ??CrossCallReturnLabel_102
          CFI R6 load(1, XDATA, add(CFA_XSP16, literal(-23)))
          CFI VB load(1, XDATA, add(CFA_XSP16, literal(-22)))
          CFI V0 load(1, XDATA, add(CFA_XSP16, literal(-21)))
          CFI V1 load(1, XDATA, add(CFA_XSP16, literal(-20)))
          CFI V2 load(1, XDATA, add(CFA_XSP16, literal(-19)))
          CFI V3 load(1, XDATA, add(CFA_XSP16, literal(-18)))
          CFI V4 load(1, XDATA, add(CFA_XSP16, literal(-17)))
          CFI V5 load(1, XDATA, add(CFA_XSP16, literal(-16)))
          CFI V6 load(1, XDATA, add(CFA_XSP16, literal(-15)))
          CFI V7 load(1, XDATA, add(CFA_XSP16, literal(-14)))
          CFI V8 load(1, XDATA, add(CFA_XSP16, literal(-13)))
          CFI V9 load(1, XDATA, add(CFA_XSP16, literal(-12)))
          CFI V10 load(1, XDATA, add(CFA_XSP16, literal(-11)))
          CFI V11 load(1, XDATA, add(CFA_XSP16, literal(-10)))
          CFI V12 load(1, XDATA, add(CFA_XSP16, literal(-9)))
          CFI V13 load(1, XDATA, add(CFA_XSP16, literal(-8)))
          CFI V14 load(1, XDATA, add(CFA_XSP16, literal(-7)))
          CFI R7 load(1, XDATA, add(CFA_XSP16, literal(-6)))
          CFI ?RET_LOW load(1, XDATA, add(CFA_XSP16, literal(-5)))
          CFI ?RET_HIGH load(1, XDATA, add(CFA_XSP16, literal(-4)))
          CFI ?BRET_EXT load(1, XDATA, add(CFA_XSP16, literal(-3)))
          CFI DPL0 load(1, XDATA, add(CFA_XSP16, literal(-2)))
          CFI DPH0 load(1, XDATA, add(CFA_XSP16, literal(-1)))
          CFI CFA_SP SP+-2
          CFI CFA_XSP16 add(XSP16, 23)
          CFI Block cfiCond132 Using cfiCommon0
          CFI (cfiCond132) Function MT_AfIncomingMsg
          CFI (cfiCond132) Conditional ??CrossCallReturnLabel_103
          CFI (cfiCond132) R6 load(1, XDATA, add(CFA_XSP16, literal(-23)))
          CFI (cfiCond132) VB load(1, XDATA, add(CFA_XSP16, literal(-22)))
          CFI (cfiCond132) V0 load(1, XDATA, add(CFA_XSP16, literal(-21)))
          CFI (cfiCond132) V1 load(1, XDATA, add(CFA_XSP16, literal(-20)))
          CFI (cfiCond132) V2 load(1, XDATA, add(CFA_XSP16, literal(-19)))
          CFI (cfiCond132) V3 load(1, XDATA, add(CFA_XSP16, literal(-18)))
          CFI (cfiCond132) V4 load(1, XDATA, add(CFA_XSP16, literal(-17)))
          CFI (cfiCond132) V5 load(1, XDATA, add(CFA_XSP16, literal(-16)))
          CFI (cfiCond132) V6 load(1, XDATA, add(CFA_XSP16, literal(-15)))
          CFI (cfiCond132) V7 load(1, XDATA, add(CFA_XSP16, literal(-14)))
          CFI (cfiCond132) V8 load(1, XDATA, add(CFA_XSP16, literal(-13)))
          CFI (cfiCond132) V9 load(1, XDATA, add(CFA_XSP16, literal(-12)))
          CFI (cfiCond132) V10 load(1, XDATA, add(CFA_XSP16, literal(-11)))
          CFI (cfiCond132) V11 load(1, XDATA, add(CFA_XSP16, literal(-10)))
          CFI (cfiCond132) V12 load(1, XDATA, add(CFA_XSP16, literal(-9)))
          CFI (cfiCond132) V13 load(1, XDATA, add(CFA_XSP16, literal(-8)))
          CFI (cfiCond132) V14 load(1, XDATA, add(CFA_XSP16, literal(-7)))
          CFI (cfiCond132) R7 load(1, XDATA, add(CFA_XSP16, literal(-6)))
          CFI (cfiCond132) ?RET_LOW load(1, XDATA, add(CFA_XSP16, literal(-5)))
          CFI (cfiCond132) ?RET_HIGH load(1, XDATA, add(CFA_XSP16, literal(-4)))
          CFI (cfiCond132) ?BRET_EXT load(1, XDATA, add(CFA_XSP16, literal(-3)))
          CFI (cfiCond132) DPL0 load(1, XDATA, add(CFA_XSP16, literal(-2)))
          CFI (cfiCond132) DPH0 load(1, XDATA, add(CFA_XSP16, literal(-1)))
          CFI (cfiCond132) CFA_SP SP+-2
          CFI (cfiCond132) CFA_XSP16 add(XSP16, 23)
          CFI Block cfiCond133 Using cfiCommon0
          CFI (cfiCond133) Function MT_AfIncomingMsg
          CFI (cfiCond133) Conditional ??CrossCallReturnLabel_104
          CFI (cfiCond133) R6 load(1, XDATA, add(CFA_XSP16, literal(-23)))
          CFI (cfiCond133) VB load(1, XDATA, add(CFA_XSP16, literal(-22)))
          CFI (cfiCond133) V0 load(1, XDATA, add(CFA_XSP16, literal(-21)))
          CFI (cfiCond133) V1 load(1, XDATA, add(CFA_XSP16, literal(-20)))
          CFI (cfiCond133) V2 load(1, XDATA, add(CFA_XSP16, literal(-19)))
          CFI (cfiCond133) V3 load(1, XDATA, add(CFA_XSP16, literal(-18)))
          CFI (cfiCond133) V4 load(1, XDATA, add(CFA_XSP16, literal(-17)))
          CFI (cfiCond133) V5 load(1, XDATA, add(CFA_XSP16, literal(-16)))
          CFI (cfiCond133) V6 load(1, XDATA, add(CFA_XSP16, literal(-15)))
          CFI (cfiCond133) V7 load(1, XDATA, add(CFA_XSP16, literal(-14)))
          CFI (cfiCond133) V8 load(1, XDATA, add(CFA_XSP16, literal(-13)))
          CFI (cfiCond133) V9 load(1, XDATA, add(CFA_XSP16, literal(-12)))
          CFI (cfiCond133) V10 load(1, XDATA, add(CFA_XSP16, literal(-11)))
          CFI (cfiCond133) V11 load(1, XDATA, add(CFA_XSP16, literal(-10)))
          CFI (cfiCond133) V12 load(1, XDATA, add(CFA_XSP16, literal(-9)))
          CFI (cfiCond133) V13 load(1, XDATA, add(CFA_XSP16, literal(-8)))
          CFI (cfiCond133) V14 load(1, XDATA, add(CFA_XSP16, literal(-7)))
          CFI (cfiCond133) R7 load(1, XDATA, add(CFA_XSP16, literal(-6)))
          CFI (cfiCond133) ?RET_LOW load(1, XDATA, add(CFA_XSP16, literal(-5)))
          CFI (cfiCond133) ?RET_HIGH load(1, XDATA, add(CFA_XSP16, literal(-4)))
          CFI (cfiCond133) ?BRET_EXT load(1, XDATA, add(CFA_XSP16, literal(-3)))
          CFI (cfiCond133) DPL0 load(1, XDATA, add(CFA_XSP16, literal(-2)))
          CFI (cfiCond133) DPH0 load(1, XDATA, add(CFA_XSP16, literal(-1)))
          CFI (cfiCond133) CFA_SP SP+-2
          CFI (cfiCond133) CFA_XSP16 add(XSP16, 23)
          CFI Block cfiCond134 Using cfiCommon0
          CFI (cfiCond134) Function MT_AfIncomingMsg
          CFI (cfiCond134) Conditional ??CrossCallReturnLabel_105
          CFI (cfiCond134) R6 load(1, XDATA, add(CFA_XSP16, literal(-23)))
          CFI (cfiCond134) VB load(1, XDATA, add(CFA_XSP16, literal(-22)))
          CFI (cfiCond134) V0 load(1, XDATA, add(CFA_XSP16, literal(-21)))
          CFI (cfiCond134) V1 load(1, XDATA, add(CFA_XSP16, literal(-20)))
          CFI (cfiCond134) V2 load(1, XDATA, add(CFA_XSP16, literal(-19)))
          CFI (cfiCond134) V3 load(1, XDATA, add(CFA_XSP16, literal(-18)))
          CFI (cfiCond134) V4 load(1, XDATA, add(CFA_XSP16, literal(-17)))
          CFI (cfiCond134) V5 load(1, XDATA, add(CFA_XSP16, literal(-16)))
          CFI (cfiCond134) V6 load(1, XDATA, add(CFA_XSP16, literal(-15)))
          CFI (cfiCond134) V7 load(1, XDATA, add(CFA_XSP16, literal(-14)))
          CFI (cfiCond134) V8 load(1, XDATA, add(CFA_XSP16, literal(-13)))
          CFI (cfiCond134) V9 load(1, XDATA, add(CFA_XSP16, literal(-12)))
          CFI (cfiCond134) V10 load(1, XDATA, add(CFA_XSP16, literal(-11)))
          CFI (cfiCond134) V11 load(1, XDATA, add(CFA_XSP16, literal(-10)))
          CFI (cfiCond134) V12 load(1, XDATA, add(CFA_XSP16, literal(-9)))
          CFI (cfiCond134) V13 load(1, XDATA, add(CFA_XSP16, literal(-8)))
          CFI (cfiCond134) V14 load(1, XDATA, add(CFA_XSP16, literal(-7)))
          CFI (cfiCond134) R7 load(1, XDATA, add(CFA_XSP16, literal(-6)))
          CFI (cfiCond134) ?RET_LOW load(1, XDATA, add(CFA_XSP16, literal(-5)))
          CFI (cfiCond134) ?RET_HIGH load(1, XDATA, add(CFA_XSP16, literal(-4)))
          CFI (cfiCond134) ?BRET_EXT load(1, XDATA, add(CFA_XSP16, literal(-3)))
          CFI (cfiCond134) DPL0 load(1, XDATA, add(CFA_XSP16, literal(-2)))
          CFI (cfiCond134) DPH0 load(1, XDATA, add(CFA_XSP16, literal(-1)))
          CFI (cfiCond134) CFA_SP SP+-2
          CFI (cfiCond134) CFA_XSP16 add(XSP16, 23)
          CFI Block cfiPicker135 Using cfiCommon1
          CFI (cfiPicker135) NoFunction
          CFI (cfiPicker135) Picker
        MOV     DPL,A
        CLR     A
        ADDC    A,?V9
        MOV     DPH,A
        LCALL   ?Subroutine37 & 0xFFFF
??CrossCallReturnLabel_108:
        RET
          CFI EndBlock cfiCond131
          CFI EndBlock cfiCond132
          CFI EndBlock cfiCond133
          CFI EndBlock cfiCond134
          CFI EndBlock cfiPicker135

        RSEG BANKED_CODE:CODE:NOROOT(0)
?Subroutine37:
          CFI Block cfiCond136 Using cfiCommon0
          CFI Function MT_AfIncomingMsg
          CFI Conditional ??CrossCallReturnLabel_108, ??CrossCallReturnLabel_104
          CFI R6 load(1, XDATA, add(CFA_XSP16, literal(-23)))
          CFI VB load(1, XDATA, add(CFA_XSP16, literal(-22)))
          CFI V0 load(1, XDATA, add(CFA_XSP16, literal(-21)))
          CFI V1 load(1, XDATA, add(CFA_XSP16, literal(-20)))
          CFI V2 load(1, XDATA, add(CFA_XSP16, literal(-19)))
          CFI V3 load(1, XDATA, add(CFA_XSP16, literal(-18)))
          CFI V4 load(1, XDATA, add(CFA_XSP16, literal(-17)))
          CFI V5 load(1, XDATA, add(CFA_XSP16, literal(-16)))
          CFI V6 load(1, XDATA, add(CFA_XSP16, literal(-15)))
          CFI V7 load(1, XDATA, add(CFA_XSP16, literal(-14)))
          CFI V8 load(1, XDATA, add(CFA_XSP16, literal(-13)))
          CFI V9 load(1, XDATA, add(CFA_XSP16, literal(-12)))
          CFI V10 load(1, XDATA, add(CFA_XSP16, literal(-11)))
          CFI V11 load(1, XDATA, add(CFA_XSP16, literal(-10)))
          CFI V12 load(1, XDATA, add(CFA_XSP16, literal(-9)))
          CFI V13 load(1, XDATA, add(CFA_XSP16, literal(-8)))
          CFI V14 load(1, XDATA, add(CFA_XSP16, literal(-7)))
          CFI R7 load(1, XDATA, add(CFA_XSP16, literal(-6)))
          CFI ?RET_LOW load(1, XDATA, add(CFA_XSP16, literal(-5)))
          CFI ?RET_HIGH load(1, XDATA, add(CFA_XSP16, literal(-4)))
          CFI ?BRET_EXT load(1, XDATA, add(CFA_XSP16, literal(-3)))
          CFI DPL0 load(1, XDATA, add(CFA_XSP16, literal(-2)))
          CFI DPH0 load(1, XDATA, add(CFA_XSP16, literal(-1)))
          CFI CFA_SP SP+-4
          CFI CFA_XSP16 add(XSP16, 23)
          CFI Block cfiCond137 Using cfiCommon0
          CFI (cfiCond137) Function MT_AfIncomingMsg
          CFI (cfiCond137) Conditional ??CrossCallReturnLabel_108, ??CrossCallReturnLabel_105
          CFI (cfiCond137) R6 load(1, XDATA, add(CFA_XSP16, literal(-23)))
          CFI (cfiCond137) VB load(1, XDATA, add(CFA_XSP16, literal(-22)))
          CFI (cfiCond137) V0 load(1, XDATA, add(CFA_XSP16, literal(-21)))
          CFI (cfiCond137) V1 load(1, XDATA, add(CFA_XSP16, literal(-20)))
          CFI (cfiCond137) V2 load(1, XDATA, add(CFA_XSP16, literal(-19)))
          CFI (cfiCond137) V3 load(1, XDATA, add(CFA_XSP16, literal(-18)))
          CFI (cfiCond137) V4 load(1, XDATA, add(CFA_XSP16, literal(-17)))
          CFI (cfiCond137) V5 load(1, XDATA, add(CFA_XSP16, literal(-16)))
          CFI (cfiCond137) V6 load(1, XDATA, add(CFA_XSP16, literal(-15)))
          CFI (cfiCond137) V7 load(1, XDATA, add(CFA_XSP16, literal(-14)))
          CFI (cfiCond137) V8 load(1, XDATA, add(CFA_XSP16, literal(-13)))
          CFI (cfiCond137) V9 load(1, XDATA, add(CFA_XSP16, literal(-12)))
          CFI (cfiCond137) V10 load(1, XDATA, add(CFA_XSP16, literal(-11)))
          CFI (cfiCond137) V11 load(1, XDATA, add(CFA_XSP16, literal(-10)))
          CFI (cfiCond137) V12 load(1, XDATA, add(CFA_XSP16, literal(-9)))
          CFI (cfiCond137) V13 load(1, XDATA, add(CFA_XSP16, literal(-8)))
          CFI (cfiCond137) V14 load(1, XDATA, add(CFA_XSP16, literal(-7)))
          CFI (cfiCond137) R7 load(1, XDATA, add(CFA_XSP16, literal(-6)))
          CFI (cfiCond137) ?RET_LOW load(1, XDATA, add(CFA_XSP16, literal(-5)))
          CFI (cfiCond137) ?RET_HIGH load(1, XDATA, add(CFA_XSP16, literal(-4)))
          CFI (cfiCond137) ?BRET_EXT load(1, XDATA, add(CFA_XSP16, literal(-3)))
          CFI (cfiCond137) DPL0 load(1, XDATA, add(CFA_XSP16, literal(-2)))
          CFI (cfiCond137) DPH0 load(1, XDATA, add(CFA_XSP16, literal(-1)))
          CFI (cfiCond137) CFA_SP SP+-4
          CFI (cfiCond137) CFA_XSP16 add(XSP16, 23)
          CFI Block cfiCond138 Using cfiCommon0
          CFI (cfiCond138) Function MT_AfIncomingMsg
          CFI (cfiCond138) Conditional ??CrossCallReturnLabel_108, ??CrossCallReturnLabel_102
          CFI (cfiCond138) R6 load(1, XDATA, add(CFA_XSP16, literal(-23)))
          CFI (cfiCond138) VB load(1, XDATA, add(CFA_XSP16, literal(-22)))
          CFI (cfiCond138) V0 load(1, XDATA, add(CFA_XSP16, literal(-21)))
          CFI (cfiCond138) V1 load(1, XDATA, add(CFA_XSP16, literal(-20)))
          CFI (cfiCond138) V2 load(1, XDATA, add(CFA_XSP16, literal(-19)))
          CFI (cfiCond138) V3 load(1, XDATA, add(CFA_XSP16, literal(-18)))
          CFI (cfiCond138) V4 load(1, XDATA, add(CFA_XSP16, literal(-17)))
          CFI (cfiCond138) V5 load(1, XDATA, add(CFA_XSP16, literal(-16)))
          CFI (cfiCond138) V6 load(1, XDATA, add(CFA_XSP16, literal(-15)))
          CFI (cfiCond138) V7 load(1, XDATA, add(CFA_XSP16, literal(-14)))
          CFI (cfiCond138) V8 load(1, XDATA, add(CFA_XSP16, literal(-13)))
          CFI (cfiCond138) V9 load(1, XDATA, add(CFA_XSP16, literal(-12)))
          CFI (cfiCond138) V10 load(1, XDATA, add(CFA_XSP16, literal(-11)))
          CFI (cfiCond138) V11 load(1, XDATA, add(CFA_XSP16, literal(-10)))
          CFI (cfiCond138) V12 load(1, XDATA, add(CFA_XSP16, literal(-9)))
          CFI (cfiCond138) V13 load(1, XDATA, add(CFA_XSP16, literal(-8)))
          CFI (cfiCond138) V14 load(1, XDATA, add(CFA_XSP16, literal(-7)))
          CFI (cfiCond138) R7 load(1, XDATA, add(CFA_XSP16, literal(-6)))
          CFI (cfiCond138) ?RET_LOW load(1, XDATA, add(CFA_XSP16, literal(-5)))
          CFI (cfiCond138) ?RET_HIGH load(1, XDATA, add(CFA_XSP16, literal(-4)))
          CFI (cfiCond138) ?BRET_EXT load(1, XDATA, add(CFA_XSP16, literal(-3)))
          CFI (cfiCond138) DPL0 load(1, XDATA, add(CFA_XSP16, literal(-2)))
          CFI (cfiCond138) DPH0 load(1, XDATA, add(CFA_XSP16, literal(-1)))
          CFI (cfiCond138) CFA_SP SP+-4
          CFI (cfiCond138) CFA_XSP16 add(XSP16, 23)
          CFI Block cfiCond139 Using cfiCommon0
          CFI (cfiCond139) Function MT_AfIncomingMsg
          CFI (cfiCond139) Conditional ??CrossCallReturnLabel_108, ??CrossCallReturnLabel_103
          CFI (cfiCond139) R6 load(1, XDATA, add(CFA_XSP16, literal(-23)))
          CFI (cfiCond139) VB load(1, XDATA, add(CFA_XSP16, literal(-22)))
          CFI (cfiCond139) V0 load(1, XDATA, add(CFA_XSP16, literal(-21)))
          CFI (cfiCond139) V1 load(1, XDATA, add(CFA_XSP16, literal(-20)))
          CFI (cfiCond139) V2 load(1, XDATA, add(CFA_XSP16, literal(-19)))
          CFI (cfiCond139) V3 load(1, XDATA, add(CFA_XSP16, literal(-18)))
          CFI (cfiCond139) V4 load(1, XDATA, add(CFA_XSP16, literal(-17)))
          CFI (cfiCond139) V5 load(1, XDATA, add(CFA_XSP16, literal(-16)))
          CFI (cfiCond139) V6 load(1, XDATA, add(CFA_XSP16, literal(-15)))
          CFI (cfiCond139) V7 load(1, XDATA, add(CFA_XSP16, literal(-14)))
          CFI (cfiCond139) V8 load(1, XDATA, add(CFA_XSP16, literal(-13)))
          CFI (cfiCond139) V9 load(1, XDATA, add(CFA_XSP16, literal(-12)))
          CFI (cfiCond139) V10 load(1, XDATA, add(CFA_XSP16, literal(-11)))
          CFI (cfiCond139) V11 load(1, XDATA, add(CFA_XSP16, literal(-10)))
          CFI (cfiCond139) V12 load(1, XDATA, add(CFA_XSP16, literal(-9)))
          CFI (cfiCond139) V13 load(1, XDATA, add(CFA_XSP16, literal(-8)))
          CFI (cfiCond139) V14 load(1, XDATA, add(CFA_XSP16, literal(-7)))
          CFI (cfiCond139) R7 load(1, XDATA, add(CFA_XSP16, literal(-6)))
          CFI (cfiCond139) ?RET_LOW load(1, XDATA, add(CFA_XSP16, literal(-5)))
          CFI (cfiCond139) ?RET_HIGH load(1, XDATA, add(CFA_XSP16, literal(-4)))
          CFI (cfiCond139) ?BRET_EXT load(1, XDATA, add(CFA_XSP16, literal(-3)))
          CFI (cfiCond139) DPL0 load(1, XDATA, add(CFA_XSP16, literal(-2)))
          CFI (cfiCond139) DPH0 load(1, XDATA, add(CFA_XSP16, literal(-1)))
          CFI (cfiCond139) CFA_SP SP+-4
          CFI (cfiCond139) CFA_XSP16 add(XSP16, 23)
          CFI Block cfiCond140 Using cfiCommon0
          CFI (cfiCond140) Function MT_AfIncomingMsg
          CFI (cfiCond140) Conditional ??CrossCallReturnLabel_107, ??CrossCallReturnLabel_33
          CFI (cfiCond140) R6 load(1, XDATA, add(CFA_XSP16, literal(-23)))
          CFI (cfiCond140) VB load(1, XDATA, add(CFA_XSP16, literal(-22)))
          CFI (cfiCond140) V0 load(1, XDATA, add(CFA_XSP16, literal(-21)))
          CFI (cfiCond140) V1 load(1, XDATA, add(CFA_XSP16, literal(-20)))
          CFI (cfiCond140) V2 load(1, XDATA, add(CFA_XSP16, literal(-19)))
          CFI (cfiCond140) V3 load(1, XDATA, add(CFA_XSP16, literal(-18)))
          CFI (cfiCond140) V4 load(1, XDATA, add(CFA_XSP16, literal(-17)))
          CFI (cfiCond140) V5 load(1, XDATA, add(CFA_XSP16, literal(-16)))
          CFI (cfiCond140) V6 load(1, XDATA, add(CFA_XSP16, literal(-15)))
          CFI (cfiCond140) V7 load(1, XDATA, add(CFA_XSP16, literal(-14)))
          CFI (cfiCond140) V8 load(1, XDATA, add(CFA_XSP16, literal(-13)))
          CFI (cfiCond140) V9 load(1, XDATA, add(CFA_XSP16, literal(-12)))
          CFI (cfiCond140) V10 load(1, XDATA, add(CFA_XSP16, literal(-11)))
          CFI (cfiCond140) V11 load(1, XDATA, add(CFA_XSP16, literal(-10)))
          CFI (cfiCond140) V12 load(1, XDATA, add(CFA_XSP16, literal(-9)))
          CFI (cfiCond140) V13 load(1, XDATA, add(CFA_XSP16, literal(-8)))
          CFI (cfiCond140) V14 load(1, XDATA, add(CFA_XSP16, literal(-7)))
          CFI (cfiCond140) R7 load(1, XDATA, add(CFA_XSP16, literal(-6)))
          CFI (cfiCond140) ?RET_LOW load(1, XDATA, add(CFA_XSP16, literal(-5)))
          CFI (cfiCond140) ?RET_HIGH load(1, XDATA, add(CFA_XSP16, literal(-4)))
          CFI (cfiCond140) ?BRET_EXT load(1, XDATA, add(CFA_XSP16, literal(-3)))
          CFI (cfiCond140) DPL0 load(1, XDATA, add(CFA_XSP16, literal(-2)))
          CFI (cfiCond140) DPH0 load(1, XDATA, add(CFA_XSP16, literal(-1)))
          CFI (cfiCond140) CFA_SP SP+-4
          CFI (cfiCond140) CFA_XSP16 add(XSP16, 23)
          CFI Block cfiCond141 Using cfiCommon0
          CFI (cfiCond141) Function MT_AfIncomingMsg
          CFI (cfiCond141) Conditional ??CrossCallReturnLabel_107, ??CrossCallReturnLabel_34
          CFI (cfiCond141) R6 load(1, XDATA, add(CFA_XSP16, literal(-23)))
          CFI (cfiCond141) VB load(1, XDATA, add(CFA_XSP16, literal(-22)))
          CFI (cfiCond141) V0 load(1, XDATA, add(CFA_XSP16, literal(-21)))
          CFI (cfiCond141) V1 load(1, XDATA, add(CFA_XSP16, literal(-20)))
          CFI (cfiCond141) V2 load(1, XDATA, add(CFA_XSP16, literal(-19)))
          CFI (cfiCond141) V3 load(1, XDATA, add(CFA_XSP16, literal(-18)))
          CFI (cfiCond141) V4 load(1, XDATA, add(CFA_XSP16, literal(-17)))
          CFI (cfiCond141) V5 load(1, XDATA, add(CFA_XSP16, literal(-16)))
          CFI (cfiCond141) V6 load(1, XDATA, add(CFA_XSP16, literal(-15)))
          CFI (cfiCond141) V7 load(1, XDATA, add(CFA_XSP16, literal(-14)))
          CFI (cfiCond141) V8 load(1, XDATA, add(CFA_XSP16, literal(-13)))
          CFI (cfiCond141) V9 load(1, XDATA, add(CFA_XSP16, literal(-12)))
          CFI (cfiCond141) V10 load(1, XDATA, add(CFA_XSP16, literal(-11)))
          CFI (cfiCond141) V11 load(1, XDATA, add(CFA_XSP16, literal(-10)))
          CFI (cfiCond141) V12 load(1, XDATA, add(CFA_XSP16, literal(-9)))
          CFI (cfiCond141) V13 load(1, XDATA, add(CFA_XSP16, literal(-8)))
          CFI (cfiCond141) V14 load(1, XDATA, add(CFA_XSP16, literal(-7)))
          CFI (cfiCond141) R7 load(1, XDATA, add(CFA_XSP16, literal(-6)))
          CFI (cfiCond141) ?RET_LOW load(1, XDATA, add(CFA_XSP16, literal(-5)))
          CFI (cfiCond141) ?RET_HIGH load(1, XDATA, add(CFA_XSP16, literal(-4)))
          CFI (cfiCond141) ?BRET_EXT load(1, XDATA, add(CFA_XSP16, literal(-3)))
          CFI (cfiCond141) DPL0 load(1, XDATA, add(CFA_XSP16, literal(-2)))
          CFI (cfiCond141) DPH0 load(1, XDATA, add(CFA_XSP16, literal(-1)))
          CFI (cfiCond141) CFA_SP SP+-4
          CFI (cfiCond141) CFA_XSP16 add(XSP16, 23)
          CFI Block cfiCond142 Using cfiCommon0
          CFI (cfiCond142) Function MT_AfIncomingMsg
          CFI (cfiCond142) Conditional ??CrossCallReturnLabel_106, ??CrossCallReturnLabel_113
          CFI (cfiCond142) R6 load(1, XDATA, add(CFA_XSP16, literal(-23)))
          CFI (cfiCond142) VB load(1, XDATA, add(CFA_XSP16, literal(-22)))
          CFI (cfiCond142) V0 load(1, XDATA, add(CFA_XSP16, literal(-21)))
          CFI (cfiCond142) V1 load(1, XDATA, add(CFA_XSP16, literal(-20)))
          CFI (cfiCond142) V2 load(1, XDATA, add(CFA_XSP16, literal(-19)))
          CFI (cfiCond142) V3 load(1, XDATA, add(CFA_XSP16, literal(-18)))
          CFI (cfiCond142) V4 load(1, XDATA, add(CFA_XSP16, literal(-17)))
          CFI (cfiCond142) V5 load(1, XDATA, add(CFA_XSP16, literal(-16)))
          CFI (cfiCond142) V6 load(1, XDATA, add(CFA_XSP16, literal(-15)))
          CFI (cfiCond142) V7 load(1, XDATA, add(CFA_XSP16, literal(-14)))
          CFI (cfiCond142) V8 load(1, XDATA, add(CFA_XSP16, literal(-13)))
          CFI (cfiCond142) V9 load(1, XDATA, add(CFA_XSP16, literal(-12)))
          CFI (cfiCond142) V10 load(1, XDATA, add(CFA_XSP16, literal(-11)))
          CFI (cfiCond142) V11 load(1, XDATA, add(CFA_XSP16, literal(-10)))
          CFI (cfiCond142) V12 load(1, XDATA, add(CFA_XSP16, literal(-9)))
          CFI (cfiCond142) V13 load(1, XDATA, add(CFA_XSP16, literal(-8)))
          CFI (cfiCond142) V14 load(1, XDATA, add(CFA_XSP16, literal(-7)))
          CFI (cfiCond142) R7 load(1, XDATA, add(CFA_XSP16, literal(-6)))
          CFI (cfiCond142) ?RET_LOW load(1, XDATA, add(CFA_XSP16, literal(-5)))
          CFI (cfiCond142) ?RET_HIGH load(1, XDATA, add(CFA_XSP16, literal(-4)))
          CFI (cfiCond142) ?BRET_EXT load(1, XDATA, add(CFA_XSP16, literal(-3)))
          CFI (cfiCond142) DPL0 load(1, XDATA, add(CFA_XSP16, literal(-2)))
          CFI (cfiCond142) DPH0 load(1, XDATA, add(CFA_XSP16, literal(-1)))
          CFI (cfiCond142) CFA_SP SP+-4
          CFI (cfiCond142) CFA_XSP16 add(XSP16, 23)
          CFI Block cfiCond143 Using cfiCommon0
          CFI (cfiCond143) Function MT_AfIncomingMsg
          CFI (cfiCond143) Conditional ??CrossCallReturnLabel_106, ??CrossCallReturnLabel_114
          CFI (cfiCond143) R6 load(1, XDATA, add(CFA_XSP16, literal(-23)))
          CFI (cfiCond143) VB load(1, XDATA, add(CFA_XSP16, literal(-22)))
          CFI (cfiCond143) V0 load(1, XDATA, add(CFA_XSP16, literal(-21)))
          CFI (cfiCond143) V1 load(1, XDATA, add(CFA_XSP16, literal(-20)))
          CFI (cfiCond143) V2 load(1, XDATA, add(CFA_XSP16, literal(-19)))
          CFI (cfiCond143) V3 load(1, XDATA, add(CFA_XSP16, literal(-18)))
          CFI (cfiCond143) V4 load(1, XDATA, add(CFA_XSP16, literal(-17)))
          CFI (cfiCond143) V5 load(1, XDATA, add(CFA_XSP16, literal(-16)))
          CFI (cfiCond143) V6 load(1, XDATA, add(CFA_XSP16, literal(-15)))
          CFI (cfiCond143) V7 load(1, XDATA, add(CFA_XSP16, literal(-14)))
          CFI (cfiCond143) V8 load(1, XDATA, add(CFA_XSP16, literal(-13)))
          CFI (cfiCond143) V9 load(1, XDATA, add(CFA_XSP16, literal(-12)))
          CFI (cfiCond143) V10 load(1, XDATA, add(CFA_XSP16, literal(-11)))
          CFI (cfiCond143) V11 load(1, XDATA, add(CFA_XSP16, literal(-10)))
          CFI (cfiCond143) V12 load(1, XDATA, add(CFA_XSP16, literal(-9)))
          CFI (cfiCond143) V13 load(1, XDATA, add(CFA_XSP16, literal(-8)))
          CFI (cfiCond143) V14 load(1, XDATA, add(CFA_XSP16, literal(-7)))
          CFI (cfiCond143) R7 load(1, XDATA, add(CFA_XSP16, literal(-6)))
          CFI (cfiCond143) ?RET_LOW load(1, XDATA, add(CFA_XSP16, literal(-5)))
          CFI (cfiCond143) ?RET_HIGH load(1, XDATA, add(CFA_XSP16, literal(-4)))
          CFI (cfiCond143) ?BRET_EXT load(1, XDATA, add(CFA_XSP16, literal(-3)))
          CFI (cfiCond143) DPL0 load(1, XDATA, add(CFA_XSP16, literal(-2)))
          CFI (cfiCond143) DPH0 load(1, XDATA, add(CFA_XSP16, literal(-1)))
          CFI (cfiCond143) CFA_SP SP+-4
          CFI (cfiCond143) CFA_XSP16 add(XSP16, 23)
          CFI Block cfiPicker144 Using cfiCommon1
          CFI (cfiPicker144) NoFunction
          CFI (cfiPicker144) Picker
        LCALL   ?Subroutine43 & 0xFFFF
??CrossCallReturnLabel_122:
        INC     DPTR
        RET
          CFI EndBlock cfiCond136
          CFI EndBlock cfiCond137
          CFI EndBlock cfiCond138
          CFI EndBlock cfiCond139
          CFI EndBlock cfiCond140
          CFI EndBlock cfiCond141
          CFI EndBlock cfiCond142
          CFI EndBlock cfiCond143
          CFI EndBlock cfiPicker144

        RSEG BANKED_CODE:CODE:NOROOT(0)
?Subroutine43:
          CFI Block cfiCond145 Using cfiCommon0
          CFI Function MT_AfIncomingMsg
          CFI Conditional ??CrossCallReturnLabel_121
          CFI R6 load(1, XDATA, add(CFA_XSP16, literal(-23)))
          CFI VB load(1, XDATA, add(CFA_XSP16, literal(-22)))
          CFI V0 load(1, XDATA, add(CFA_XSP16, literal(-21)))
          CFI V1 load(1, XDATA, add(CFA_XSP16, literal(-20)))
          CFI V2 load(1, XDATA, add(CFA_XSP16, literal(-19)))
          CFI V3 load(1, XDATA, add(CFA_XSP16, literal(-18)))
          CFI V4 load(1, XDATA, add(CFA_XSP16, literal(-17)))
          CFI V5 load(1, XDATA, add(CFA_XSP16, literal(-16)))
          CFI V6 load(1, XDATA, add(CFA_XSP16, literal(-15)))
          CFI V7 load(1, XDATA, add(CFA_XSP16, literal(-14)))
          CFI V8 load(1, XDATA, add(CFA_XSP16, literal(-13)))
          CFI V9 load(1, XDATA, add(CFA_XSP16, literal(-12)))
          CFI V10 load(1, XDATA, add(CFA_XSP16, literal(-11)))
          CFI V11 load(1, XDATA, add(CFA_XSP16, literal(-10)))
          CFI V12 load(1, XDATA, add(CFA_XSP16, literal(-9)))
          CFI V13 load(1, XDATA, add(CFA_XSP16, literal(-8)))
          CFI V14 load(1, XDATA, add(CFA_XSP16, literal(-7)))
          CFI R7 load(1, XDATA, add(CFA_XSP16, literal(-6)))
          CFI ?RET_LOW load(1, XDATA, add(CFA_XSP16, literal(-5)))
          CFI ?RET_HIGH load(1, XDATA, add(CFA_XSP16, literal(-4)))
          CFI ?BRET_EXT load(1, XDATA, add(CFA_XSP16, literal(-3)))
          CFI DPL0 load(1, XDATA, add(CFA_XSP16, literal(-2)))
          CFI DPH0 load(1, XDATA, add(CFA_XSP16, literal(-1)))
          CFI CFA_SP SP+-2
          CFI CFA_XSP16 add(XSP16, 23)
          CFI Block cfiCond146 Using cfiCommon0
          CFI (cfiCond146) Function MT_AfIncomingMsg
          CFI (cfiCond146) Conditional ??CrossCallReturnLabel_122, ??CrossCallReturnLabel_108, ??CrossCallReturnLabel_104
          CFI (cfiCond146) R6 load(1, XDATA, add(CFA_XSP16, literal(-23)))
          CFI (cfiCond146) VB load(1, XDATA, add(CFA_XSP16, literal(-22)))
          CFI (cfiCond146) V0 load(1, XDATA, add(CFA_XSP16, literal(-21)))
          CFI (cfiCond146) V1 load(1, XDATA, add(CFA_XSP16, literal(-20)))
          CFI (cfiCond146) V2 load(1, XDATA, add(CFA_XSP16, literal(-19)))
          CFI (cfiCond146) V3 load(1, XDATA, add(CFA_XSP16, literal(-18)))
          CFI (cfiCond146) V4 load(1, XDATA, add(CFA_XSP16, literal(-17)))
          CFI (cfiCond146) V5 load(1, XDATA, add(CFA_XSP16, literal(-16)))
          CFI (cfiCond146) V6 load(1, XDATA, add(CFA_XSP16, literal(-15)))
          CFI (cfiCond146) V7 load(1, XDATA, add(CFA_XSP16, literal(-14)))
          CFI (cfiCond146) V8 load(1, XDATA, add(CFA_XSP16, literal(-13)))
          CFI (cfiCond146) V9 load(1, XDATA, add(CFA_XSP16, literal(-12)))
          CFI (cfiCond146) V10 load(1, XDATA, add(CFA_XSP16, literal(-11)))
          CFI (cfiCond146) V11 load(1, XDATA, add(CFA_XSP16, literal(-10)))
          CFI (cfiCond146) V12 load(1, XDATA, add(CFA_XSP16, literal(-9)))
          CFI (cfiCond146) V13 load(1, XDATA, add(CFA_XSP16, literal(-8)))
          CFI (cfiCond146) V14 load(1, XDATA, add(CFA_XSP16, literal(-7)))
          CFI (cfiCond146) R7 load(1, XDATA, add(CFA_XSP16, literal(-6)))
          CFI (cfiCond146) ?RET_LOW load(1, XDATA, add(CFA_XSP16, literal(-5)))
          CFI (cfiCond146) ?RET_HIGH load(1, XDATA, add(CFA_XSP16, literal(-4)))
          CFI (cfiCond146) ?BRET_EXT load(1, XDATA, add(CFA_XSP16, literal(-3)))
          CFI (cfiCond146) DPL0 load(1, XDATA, add(CFA_XSP16, literal(-2)))
          CFI (cfiCond146) DPH0 load(1, XDATA, add(CFA_XSP16, literal(-1)))
          CFI (cfiCond146) CFA_SP SP+-6
          CFI (cfiCond146) CFA_XSP16 add(XSP16, 23)
          CFI Block cfiCond147 Using cfiCommon0
          CFI (cfiCond147) Function MT_AfIncomingMsg
          CFI (cfiCond147) Conditional ??CrossCallReturnLabel_122, ??CrossCallReturnLabel_108, ??CrossCallReturnLabel_105
          CFI (cfiCond147) R6 load(1, XDATA, add(CFA_XSP16, literal(-23)))
          CFI (cfiCond147) VB load(1, XDATA, add(CFA_XSP16, literal(-22)))
          CFI (cfiCond147) V0 load(1, XDATA, add(CFA_XSP16, literal(-21)))
          CFI (cfiCond147) V1 load(1, XDATA, add(CFA_XSP16, literal(-20)))
          CFI (cfiCond147) V2 load(1, XDATA, add(CFA_XSP16, literal(-19)))
          CFI (cfiCond147) V3 load(1, XDATA, add(CFA_XSP16, literal(-18)))
          CFI (cfiCond147) V4 load(1, XDATA, add(CFA_XSP16, literal(-17)))
          CFI (cfiCond147) V5 load(1, XDATA, add(CFA_XSP16, literal(-16)))
          CFI (cfiCond147) V6 load(1, XDATA, add(CFA_XSP16, literal(-15)))
          CFI (cfiCond147) V7 load(1, XDATA, add(CFA_XSP16, literal(-14)))
          CFI (cfiCond147) V8 load(1, XDATA, add(CFA_XSP16, literal(-13)))
          CFI (cfiCond147) V9 load(1, XDATA, add(CFA_XSP16, literal(-12)))
          CFI (cfiCond147) V10 load(1, XDATA, add(CFA_XSP16, literal(-11)))
          CFI (cfiCond147) V11 load(1, XDATA, add(CFA_XSP16, literal(-10)))
          CFI (cfiCond147) V12 load(1, XDATA, add(CFA_XSP16, literal(-9)))
          CFI (cfiCond147) V13 load(1, XDATA, add(CFA_XSP16, literal(-8)))
          CFI (cfiCond147) V14 load(1, XDATA, add(CFA_XSP16, literal(-7)))
          CFI (cfiCond147) R7 load(1, XDATA, add(CFA_XSP16, literal(-6)))
          CFI (cfiCond147) ?RET_LOW load(1, XDATA, add(CFA_XSP16, literal(-5)))
          CFI (cfiCond147) ?RET_HIGH load(1, XDATA, add(CFA_XSP16, literal(-4)))
          CFI (cfiCond147) ?BRET_EXT load(1, XDATA, add(CFA_XSP16, literal(-3)))
          CFI (cfiCond147) DPL0 load(1, XDATA, add(CFA_XSP16, literal(-2)))
          CFI (cfiCond147) DPH0 load(1, XDATA, add(CFA_XSP16, literal(-1)))
          CFI (cfiCond147) CFA_SP SP+-6
          CFI (cfiCond147) CFA_XSP16 add(XSP16, 23)
          CFI Block cfiCond148 Using cfiCommon0
          CFI (cfiCond148) Function MT_AfIncomingMsg
          CFI (cfiCond148) Conditional ??CrossCallReturnLabel_122, ??CrossCallReturnLabel_108, ??CrossCallReturnLabel_102
          CFI (cfiCond148) R6 load(1, XDATA, add(CFA_XSP16, literal(-23)))
          CFI (cfiCond148) VB load(1, XDATA, add(CFA_XSP16, literal(-22)))
          CFI (cfiCond148) V0 load(1, XDATA, add(CFA_XSP16, literal(-21)))
          CFI (cfiCond148) V1 load(1, XDATA, add(CFA_XSP16, literal(-20)))
          CFI (cfiCond148) V2 load(1, XDATA, add(CFA_XSP16, literal(-19)))
          CFI (cfiCond148) V3 load(1, XDATA, add(CFA_XSP16, literal(-18)))
          CFI (cfiCond148) V4 load(1, XDATA, add(CFA_XSP16, literal(-17)))
          CFI (cfiCond148) V5 load(1, XDATA, add(CFA_XSP16, literal(-16)))
          CFI (cfiCond148) V6 load(1, XDATA, add(CFA_XSP16, literal(-15)))
          CFI (cfiCond148) V7 load(1, XDATA, add(CFA_XSP16, literal(-14)))
          CFI (cfiCond148) V8 load(1, XDATA, add(CFA_XSP16, literal(-13)))
          CFI (cfiCond148) V9 load(1, XDATA, add(CFA_XSP16, literal(-12)))
          CFI (cfiCond148) V10 load(1, XDATA, add(CFA_XSP16, literal(-11)))
          CFI (cfiCond148) V11 load(1, XDATA, add(CFA_XSP16, literal(-10)))
          CFI (cfiCond148) V12 load(1, XDATA, add(CFA_XSP16, literal(-9)))
          CFI (cfiCond148) V13 load(1, XDATA, add(CFA_XSP16, literal(-8)))
          CFI (cfiCond148) V14 load(1, XDATA, add(CFA_XSP16, literal(-7)))
          CFI (cfiCond148) R7 load(1, XDATA, add(CFA_XSP16, literal(-6)))
          CFI (cfiCond148) ?RET_LOW load(1, XDATA, add(CFA_XSP16, literal(-5)))
          CFI (cfiCond148) ?RET_HIGH load(1, XDATA, add(CFA_XSP16, literal(-4)))
          CFI (cfiCond148) ?BRET_EXT load(1, XDATA, add(CFA_XSP16, literal(-3)))
          CFI (cfiCond148) DPL0 load(1, XDATA, add(CFA_XSP16, literal(-2)))
          CFI (cfiCond148) DPH0 load(1, XDATA, add(CFA_XSP16, literal(-1)))
          CFI (cfiCond148) CFA_SP SP+-6
          CFI (cfiCond148) CFA_XSP16 add(XSP16, 23)
          CFI Block cfiCond149 Using cfiCommon0
          CFI (cfiCond149) Function MT_AfIncomingMsg
          CFI (cfiCond149) Conditional ??CrossCallReturnLabel_122, ??CrossCallReturnLabel_108, ??CrossCallReturnLabel_103
          CFI (cfiCond149) R6 load(1, XDATA, add(CFA_XSP16, literal(-23)))
          CFI (cfiCond149) VB load(1, XDATA, add(CFA_XSP16, literal(-22)))
          CFI (cfiCond149) V0 load(1, XDATA, add(CFA_XSP16, literal(-21)))
          CFI (cfiCond149) V1 load(1, XDATA, add(CFA_XSP16, literal(-20)))
          CFI (cfiCond149) V2 load(1, XDATA, add(CFA_XSP16, literal(-19)))
          CFI (cfiCond149) V3 load(1, XDATA, add(CFA_XSP16, literal(-18)))
          CFI (cfiCond149) V4 load(1, XDATA, add(CFA_XSP16, literal(-17)))
          CFI (cfiCond149) V5 load(1, XDATA, add(CFA_XSP16, literal(-16)))
          CFI (cfiCond149) V6 load(1, XDATA, add(CFA_XSP16, literal(-15)))
          CFI (cfiCond149) V7 load(1, XDATA, add(CFA_XSP16, literal(-14)))
          CFI (cfiCond149) V8 load(1, XDATA, add(CFA_XSP16, literal(-13)))
          CFI (cfiCond149) V9 load(1, XDATA, add(CFA_XSP16, literal(-12)))
          CFI (cfiCond149) V10 load(1, XDATA, add(CFA_XSP16, literal(-11)))
          CFI (cfiCond149) V11 load(1, XDATA, add(CFA_XSP16, literal(-10)))
          CFI (cfiCond149) V12 load(1, XDATA, add(CFA_XSP16, literal(-9)))
          CFI (cfiCond149) V13 load(1, XDATA, add(CFA_XSP16, literal(-8)))
          CFI (cfiCond149) V14 load(1, XDATA, add(CFA_XSP16, literal(-7)))
          CFI (cfiCond149) R7 load(1, XDATA, add(CFA_XSP16, literal(-6)))
          CFI (cfiCond149) ?RET_LOW load(1, XDATA, add(CFA_XSP16, literal(-5)))
          CFI (cfiCond149) ?RET_HIGH load(1, XDATA, add(CFA_XSP16, literal(-4)))
          CFI (cfiCond149) ?BRET_EXT load(1, XDATA, add(CFA_XSP16, literal(-3)))
          CFI (cfiCond149) DPL0 load(1, XDATA, add(CFA_XSP16, literal(-2)))
          CFI (cfiCond149) DPH0 load(1, XDATA, add(CFA_XSP16, literal(-1)))
          CFI (cfiCond149) CFA_SP SP+-6
          CFI (cfiCond149) CFA_XSP16 add(XSP16, 23)
          CFI Block cfiCond150 Using cfiCommon0
          CFI (cfiCond150) Function MT_AfIncomingMsg
          CFI (cfiCond150) Conditional ??CrossCallReturnLabel_122, ??CrossCallReturnLabel_107, ??CrossCallReturnLabel_33
          CFI (cfiCond150) R6 load(1, XDATA, add(CFA_XSP16, literal(-23)))
          CFI (cfiCond150) VB load(1, XDATA, add(CFA_XSP16, literal(-22)))
          CFI (cfiCond150) V0 load(1, XDATA, add(CFA_XSP16, literal(-21)))
          CFI (cfiCond150) V1 load(1, XDATA, add(CFA_XSP16, literal(-20)))
          CFI (cfiCond150) V2 load(1, XDATA, add(CFA_XSP16, literal(-19)))
          CFI (cfiCond150) V3 load(1, XDATA, add(CFA_XSP16, literal(-18)))
          CFI (cfiCond150) V4 load(1, XDATA, add(CFA_XSP16, literal(-17)))
          CFI (cfiCond150) V5 load(1, XDATA, add(CFA_XSP16, literal(-16)))
          CFI (cfiCond150) V6 load(1, XDATA, add(CFA_XSP16, literal(-15)))
          CFI (cfiCond150) V7 load(1, XDATA, add(CFA_XSP16, literal(-14)))
          CFI (cfiCond150) V8 load(1, XDATA, add(CFA_XSP16, literal(-13)))
          CFI (cfiCond150) V9 load(1, XDATA, add(CFA_XSP16, literal(-12)))
          CFI (cfiCond150) V10 load(1, XDATA, add(CFA_XSP16, literal(-11)))
          CFI (cfiCond150) V11 load(1, XDATA, add(CFA_XSP16, literal(-10)))
          CFI (cfiCond150) V12 load(1, XDATA, add(CFA_XSP16, literal(-9)))
          CFI (cfiCond150) V13 load(1, XDATA, add(CFA_XSP16, literal(-8)))
          CFI (cfiCond150) V14 load(1, XDATA, add(CFA_XSP16, literal(-7)))
          CFI (cfiCond150) R7 load(1, XDATA, add(CFA_XSP16, literal(-6)))
          CFI (cfiCond150) ?RET_LOW load(1, XDATA, add(CFA_XSP16, literal(-5)))
          CFI (cfiCond150) ?RET_HIGH load(1, XDATA, add(CFA_XSP16, literal(-4)))
          CFI (cfiCond150) ?BRET_EXT load(1, XDATA, add(CFA_XSP16, literal(-3)))
          CFI (cfiCond150) DPL0 load(1, XDATA, add(CFA_XSP16, literal(-2)))
          CFI (cfiCond150) DPH0 load(1, XDATA, add(CFA_XSP16, literal(-1)))
          CFI (cfiCond150) CFA_SP SP+-6
          CFI (cfiCond150) CFA_XSP16 add(XSP16, 23)
          CFI Block cfiCond151 Using cfiCommon0
          CFI (cfiCond151) Function MT_AfIncomingMsg
          CFI (cfiCond151) Conditional ??CrossCallReturnLabel_122, ??CrossCallReturnLabel_107, ??CrossCallReturnLabel_34
          CFI (cfiCond151) R6 load(1, XDATA, add(CFA_XSP16, literal(-23)))
          CFI (cfiCond151) VB load(1, XDATA, add(CFA_XSP16, literal(-22)))
          CFI (cfiCond151) V0 load(1, XDATA, add(CFA_XSP16, literal(-21)))
          CFI (cfiCond151) V1 load(1, XDATA, add(CFA_XSP16, literal(-20)))
          CFI (cfiCond151) V2 load(1, XDATA, add(CFA_XSP16, literal(-19)))
          CFI (cfiCond151) V3 load(1, XDATA, add(CFA_XSP16, literal(-18)))
          CFI (cfiCond151) V4 load(1, XDATA, add(CFA_XSP16, literal(-17)))
          CFI (cfiCond151) V5 load(1, XDATA, add(CFA_XSP16, literal(-16)))
          CFI (cfiCond151) V6 load(1, XDATA, add(CFA_XSP16, literal(-15)))
          CFI (cfiCond151) V7 load(1, XDATA, add(CFA_XSP16, literal(-14)))
          CFI (cfiCond151) V8 load(1, XDATA, add(CFA_XSP16, literal(-13)))
          CFI (cfiCond151) V9 load(1, XDATA, add(CFA_XSP16, literal(-12)))
          CFI (cfiCond151) V10 load(1, XDATA, add(CFA_XSP16, literal(-11)))
          CFI (cfiCond151) V11 load(1, XDATA, add(CFA_XSP16, literal(-10)))
          CFI (cfiCond151) V12 load(1, XDATA, add(CFA_XSP16, literal(-9)))
          CFI (cfiCond151) V13 load(1, XDATA, add(CFA_XSP16, literal(-8)))
          CFI (cfiCond151) V14 load(1, XDATA, add(CFA_XSP16, literal(-7)))
          CFI (cfiCond151) R7 load(1, XDATA, add(CFA_XSP16, literal(-6)))
          CFI (cfiCond151) ?RET_LOW load(1, XDATA, add(CFA_XSP16, literal(-5)))
          CFI (cfiCond151) ?RET_HIGH load(1, XDATA, add(CFA_XSP16, literal(-4)))
          CFI (cfiCond151) ?BRET_EXT load(1, XDATA, add(CFA_XSP16, literal(-3)))
          CFI (cfiCond151) DPL0 load(1, XDATA, add(CFA_XSP16, literal(-2)))
          CFI (cfiCond151) DPH0 load(1, XDATA, add(CFA_XSP16, literal(-1)))
          CFI (cfiCond151) CFA_SP SP+-6
          CFI (cfiCond151) CFA_XSP16 add(XSP16, 23)
          CFI Block cfiCond152 Using cfiCommon0
          CFI (cfiCond152) Function MT_AfIncomingMsg
          CFI (cfiCond152) Conditional ??CrossCallReturnLabel_122, ??CrossCallReturnLabel_106, ??CrossCallReturnLabel_113
          CFI (cfiCond152) R6 load(1, XDATA, add(CFA_XSP16, literal(-23)))
          CFI (cfiCond152) VB load(1, XDATA, add(CFA_XSP16, literal(-22)))
          CFI (cfiCond152) V0 load(1, XDATA, add(CFA_XSP16, literal(-21)))
          CFI (cfiCond152) V1 load(1, XDATA, add(CFA_XSP16, literal(-20)))
          CFI (cfiCond152) V2 load(1, XDATA, add(CFA_XSP16, literal(-19)))
          CFI (cfiCond152) V3 load(1, XDATA, add(CFA_XSP16, literal(-18)))
          CFI (cfiCond152) V4 load(1, XDATA, add(CFA_XSP16, literal(-17)))
          CFI (cfiCond152) V5 load(1, XDATA, add(CFA_XSP16, literal(-16)))
          CFI (cfiCond152) V6 load(1, XDATA, add(CFA_XSP16, literal(-15)))
          CFI (cfiCond152) V7 load(1, XDATA, add(CFA_XSP16, literal(-14)))
          CFI (cfiCond152) V8 load(1, XDATA, add(CFA_XSP16, literal(-13)))
          CFI (cfiCond152) V9 load(1, XDATA, add(CFA_XSP16, literal(-12)))
          CFI (cfiCond152) V10 load(1, XDATA, add(CFA_XSP16, literal(-11)))
          CFI (cfiCond152) V11 load(1, XDATA, add(CFA_XSP16, literal(-10)))
          CFI (cfiCond152) V12 load(1, XDATA, add(CFA_XSP16, literal(-9)))
          CFI (cfiCond152) V13 load(1, XDATA, add(CFA_XSP16, literal(-8)))
          CFI (cfiCond152) V14 load(1, XDATA, add(CFA_XSP16, literal(-7)))
          CFI (cfiCond152) R7 load(1, XDATA, add(CFA_XSP16, literal(-6)))
          CFI (cfiCond152) ?RET_LOW load(1, XDATA, add(CFA_XSP16, literal(-5)))
          CFI (cfiCond152) ?RET_HIGH load(1, XDATA, add(CFA_XSP16, literal(-4)))
          CFI (cfiCond152) ?BRET_EXT load(1, XDATA, add(CFA_XSP16, literal(-3)))
          CFI (cfiCond152) DPL0 load(1, XDATA, add(CFA_XSP16, literal(-2)))
          CFI (cfiCond152) DPH0 load(1, XDATA, add(CFA_XSP16, literal(-1)))
          CFI (cfiCond152) CFA_SP SP+-6
          CFI (cfiCond152) CFA_XSP16 add(XSP16, 23)
          CFI Block cfiCond153 Using cfiCommon0
          CFI (cfiCond153) Function MT_AfIncomingMsg
          CFI (cfiCond153) Conditional ??CrossCallReturnLabel_122, ??CrossCallReturnLabel_106, ??CrossCallReturnLabel_114
          CFI (cfiCond153) R6 load(1, XDATA, add(CFA_XSP16, literal(-23)))
          CFI (cfiCond153) VB load(1, XDATA, add(CFA_XSP16, literal(-22)))
          CFI (cfiCond153) V0 load(1, XDATA, add(CFA_XSP16, literal(-21)))
          CFI (cfiCond153) V1 load(1, XDATA, add(CFA_XSP16, literal(-20)))
          CFI (cfiCond153) V2 load(1, XDATA, add(CFA_XSP16, literal(-19)))
          CFI (cfiCond153) V3 load(1, XDATA, add(CFA_XSP16, literal(-18)))
          CFI (cfiCond153) V4 load(1, XDATA, add(CFA_XSP16, literal(-17)))
          CFI (cfiCond153) V5 load(1, XDATA, add(CFA_XSP16, literal(-16)))
          CFI (cfiCond153) V6 load(1, XDATA, add(CFA_XSP16, literal(-15)))
          CFI (cfiCond153) V7 load(1, XDATA, add(CFA_XSP16, literal(-14)))
          CFI (cfiCond153) V8 load(1, XDATA, add(CFA_XSP16, literal(-13)))
          CFI (cfiCond153) V9 load(1, XDATA, add(CFA_XSP16, literal(-12)))
          CFI (cfiCond153) V10 load(1, XDATA, add(CFA_XSP16, literal(-11)))
          CFI (cfiCond153) V11 load(1, XDATA, add(CFA_XSP16, literal(-10)))
          CFI (cfiCond153) V12 load(1, XDATA, add(CFA_XSP16, literal(-9)))
          CFI (cfiCond153) V13 load(1, XDATA, add(CFA_XSP16, literal(-8)))
          CFI (cfiCond153) V14 load(1, XDATA, add(CFA_XSP16, literal(-7)))
          CFI (cfiCond153) R7 load(1, XDATA, add(CFA_XSP16, literal(-6)))
          CFI (cfiCond153) ?RET_LOW load(1, XDATA, add(CFA_XSP16, literal(-5)))
          CFI (cfiCond153) ?RET_HIGH load(1, XDATA, add(CFA_XSP16, literal(-4)))
          CFI (cfiCond153) ?BRET_EXT load(1, XDATA, add(CFA_XSP16, literal(-3)))
          CFI (cfiCond153) DPL0 load(1, XDATA, add(CFA_XSP16, literal(-2)))
          CFI (cfiCond153) DPH0 load(1, XDATA, add(CFA_XSP16, literal(-1)))
          CFI (cfiCond153) CFA_SP SP+-6
          CFI (cfiCond153) CFA_XSP16 add(XSP16, 23)
          CFI Block cfiCond154 Using cfiCommon0
          CFI (cfiCond154) Function MT_AfIncomingMsg
          CFI (cfiCond154) Conditional ??CrossCallReturnLabel_123, ??CrossCallReturnLabel_119, ??CrossCallReturnLabel_7
          CFI (cfiCond154) R6 load(1, XDATA, add(CFA_XSP16, literal(-23)))
          CFI (cfiCond154) VB load(1, XDATA, add(CFA_XSP16, literal(-22)))
          CFI (cfiCond154) V0 load(1, XDATA, add(CFA_XSP16, literal(-21)))
          CFI (cfiCond154) V1 load(1, XDATA, add(CFA_XSP16, literal(-20)))
          CFI (cfiCond154) V2 load(1, XDATA, add(CFA_XSP16, literal(-19)))
          CFI (cfiCond154) V3 load(1, XDATA, add(CFA_XSP16, literal(-18)))
          CFI (cfiCond154) V4 load(1, XDATA, add(CFA_XSP16, literal(-17)))
          CFI (cfiCond154) V5 load(1, XDATA, add(CFA_XSP16, literal(-16)))
          CFI (cfiCond154) V6 load(1, XDATA, add(CFA_XSP16, literal(-15)))
          CFI (cfiCond154) V7 load(1, XDATA, add(CFA_XSP16, literal(-14)))
          CFI (cfiCond154) V8 load(1, XDATA, add(CFA_XSP16, literal(-13)))
          CFI (cfiCond154) V9 load(1, XDATA, add(CFA_XSP16, literal(-12)))
          CFI (cfiCond154) V10 load(1, XDATA, add(CFA_XSP16, literal(-11)))
          CFI (cfiCond154) V11 load(1, XDATA, add(CFA_XSP16, literal(-10)))
          CFI (cfiCond154) V12 load(1, XDATA, add(CFA_XSP16, literal(-9)))
          CFI (cfiCond154) V13 load(1, XDATA, add(CFA_XSP16, literal(-8)))
          CFI (cfiCond154) V14 load(1, XDATA, add(CFA_XSP16, literal(-7)))
          CFI (cfiCond154) R7 load(1, XDATA, add(CFA_XSP16, literal(-6)))
          CFI (cfiCond154) ?RET_LOW load(1, XDATA, add(CFA_XSP16, literal(-5)))
          CFI (cfiCond154) ?RET_HIGH load(1, XDATA, add(CFA_XSP16, literal(-4)))
          CFI (cfiCond154) ?BRET_EXT load(1, XDATA, add(CFA_XSP16, literal(-3)))
          CFI (cfiCond154) DPL0 load(1, XDATA, add(CFA_XSP16, literal(-2)))
          CFI (cfiCond154) DPH0 load(1, XDATA, add(CFA_XSP16, literal(-1)))
          CFI (cfiCond154) CFA_SP SP+-6
          CFI (cfiCond154) CFA_XSP16 add(XSP16, 23)
          CFI Block cfiCond155 Using cfiCommon0
          CFI (cfiCond155) Function MT_AfIncomingMsg
          CFI (cfiCond155) Conditional ??CrossCallReturnLabel_123, ??CrossCallReturnLabel_119, ??CrossCallReturnLabel_8
          CFI (cfiCond155) R6 load(1, XDATA, add(CFA_XSP16, literal(-23)))
          CFI (cfiCond155) VB load(1, XDATA, add(CFA_XSP16, literal(-22)))
          CFI (cfiCond155) V0 load(1, XDATA, add(CFA_XSP16, literal(-21)))
          CFI (cfiCond155) V1 load(1, XDATA, add(CFA_XSP16, literal(-20)))
          CFI (cfiCond155) V2 load(1, XDATA, add(CFA_XSP16, literal(-19)))
          CFI (cfiCond155) V3 load(1, XDATA, add(CFA_XSP16, literal(-18)))
          CFI (cfiCond155) V4 load(1, XDATA, add(CFA_XSP16, literal(-17)))
          CFI (cfiCond155) V5 load(1, XDATA, add(CFA_XSP16, literal(-16)))
          CFI (cfiCond155) V6 load(1, XDATA, add(CFA_XSP16, literal(-15)))
          CFI (cfiCond155) V7 load(1, XDATA, add(CFA_XSP16, literal(-14)))
          CFI (cfiCond155) V8 load(1, XDATA, add(CFA_XSP16, literal(-13)))
          CFI (cfiCond155) V9 load(1, XDATA, add(CFA_XSP16, literal(-12)))
          CFI (cfiCond155) V10 load(1, XDATA, add(CFA_XSP16, literal(-11)))
          CFI (cfiCond155) V11 load(1, XDATA, add(CFA_XSP16, literal(-10)))
          CFI (cfiCond155) V12 load(1, XDATA, add(CFA_XSP16, literal(-9)))
          CFI (cfiCond155) V13 load(1, XDATA, add(CFA_XSP16, literal(-8)))
          CFI (cfiCond155) V14 load(1, XDATA, add(CFA_XSP16, literal(-7)))
          CFI (cfiCond155) R7 load(1, XDATA, add(CFA_XSP16, literal(-6)))
          CFI (cfiCond155) ?RET_LOW load(1, XDATA, add(CFA_XSP16, literal(-5)))
          CFI (cfiCond155) ?RET_HIGH load(1, XDATA, add(CFA_XSP16, literal(-4)))
          CFI (cfiCond155) ?BRET_EXT load(1, XDATA, add(CFA_XSP16, literal(-3)))
          CFI (cfiCond155) DPL0 load(1, XDATA, add(CFA_XSP16, literal(-2)))
          CFI (cfiCond155) DPH0 load(1, XDATA, add(CFA_XSP16, literal(-1)))
          CFI (cfiCond155) CFA_SP SP+-6
          CFI (cfiCond155) CFA_XSP16 add(XSP16, 23)
          CFI Block cfiCond156 Using cfiCommon0
          CFI (cfiCond156) Function MT_AfIncomingMsg
          CFI (cfiCond156) Conditional ??CrossCallReturnLabel_123, ??CrossCallReturnLabel_120, ??CrossCallReturnLabel_113
          CFI (cfiCond156) R6 load(1, XDATA, add(CFA_XSP16, literal(-23)))
          CFI (cfiCond156) VB load(1, XDATA, add(CFA_XSP16, literal(-22)))
          CFI (cfiCond156) V0 load(1, XDATA, add(CFA_XSP16, literal(-21)))
          CFI (cfiCond156) V1 load(1, XDATA, add(CFA_XSP16, literal(-20)))
          CFI (cfiCond156) V2 load(1, XDATA, add(CFA_XSP16, literal(-19)))
          CFI (cfiCond156) V3 load(1, XDATA, add(CFA_XSP16, literal(-18)))
          CFI (cfiCond156) V4 load(1, XDATA, add(CFA_XSP16, literal(-17)))
          CFI (cfiCond156) V5 load(1, XDATA, add(CFA_XSP16, literal(-16)))
          CFI (cfiCond156) V6 load(1, XDATA, add(CFA_XSP16, literal(-15)))
          CFI (cfiCond156) V7 load(1, XDATA, add(CFA_XSP16, literal(-14)))
          CFI (cfiCond156) V8 load(1, XDATA, add(CFA_XSP16, literal(-13)))
          CFI (cfiCond156) V9 load(1, XDATA, add(CFA_XSP16, literal(-12)))
          CFI (cfiCond156) V10 load(1, XDATA, add(CFA_XSP16, literal(-11)))
          CFI (cfiCond156) V11 load(1, XDATA, add(CFA_XSP16, literal(-10)))
          CFI (cfiCond156) V12 load(1, XDATA, add(CFA_XSP16, literal(-9)))
          CFI (cfiCond156) V13 load(1, XDATA, add(CFA_XSP16, literal(-8)))
          CFI (cfiCond156) V14 load(1, XDATA, add(CFA_XSP16, literal(-7)))
          CFI (cfiCond156) R7 load(1, XDATA, add(CFA_XSP16, literal(-6)))
          CFI (cfiCond156) ?RET_LOW load(1, XDATA, add(CFA_XSP16, literal(-5)))
          CFI (cfiCond156) ?RET_HIGH load(1, XDATA, add(CFA_XSP16, literal(-4)))
          CFI (cfiCond156) ?BRET_EXT load(1, XDATA, add(CFA_XSP16, literal(-3)))
          CFI (cfiCond156) DPL0 load(1, XDATA, add(CFA_XSP16, literal(-2)))
          CFI (cfiCond156) DPH0 load(1, XDATA, add(CFA_XSP16, literal(-1)))
          CFI (cfiCond156) CFA_SP SP+-6
          CFI (cfiCond156) CFA_XSP16 add(XSP16, 23)
          CFI Block cfiCond157 Using cfiCommon0
          CFI (cfiCond157) Function MT_AfIncomingMsg
          CFI (cfiCond157) Conditional ??CrossCallReturnLabel_123, ??CrossCallReturnLabel_120, ??CrossCallReturnLabel_114
          CFI (cfiCond157) R6 load(1, XDATA, add(CFA_XSP16, literal(-23)))
          CFI (cfiCond157) VB load(1, XDATA, add(CFA_XSP16, literal(-22)))
          CFI (cfiCond157) V0 load(1, XDATA, add(CFA_XSP16, literal(-21)))
          CFI (cfiCond157) V1 load(1, XDATA, add(CFA_XSP16, literal(-20)))
          CFI (cfiCond157) V2 load(1, XDATA, add(CFA_XSP16, literal(-19)))
          CFI (cfiCond157) V3 load(1, XDATA, add(CFA_XSP16, literal(-18)))
          CFI (cfiCond157) V4 load(1, XDATA, add(CFA_XSP16, literal(-17)))
          CFI (cfiCond157) V5 load(1, XDATA, add(CFA_XSP16, literal(-16)))
          CFI (cfiCond157) V6 load(1, XDATA, add(CFA_XSP16, literal(-15)))
          CFI (cfiCond157) V7 load(1, XDATA, add(CFA_XSP16, literal(-14)))
          CFI (cfiCond157) V8 load(1, XDATA, add(CFA_XSP16, literal(-13)))
          CFI (cfiCond157) V9 load(1, XDATA, add(CFA_XSP16, literal(-12)))
          CFI (cfiCond157) V10 load(1, XDATA, add(CFA_XSP16, literal(-11)))
          CFI (cfiCond157) V11 load(1, XDATA, add(CFA_XSP16, literal(-10)))
          CFI (cfiCond157) V12 load(1, XDATA, add(CFA_XSP16, literal(-9)))
          CFI (cfiCond157) V13 load(1, XDATA, add(CFA_XSP16, literal(-8)))
          CFI (cfiCond157) V14 load(1, XDATA, add(CFA_XSP16, literal(-7)))
          CFI (cfiCond157) R7 load(1, XDATA, add(CFA_XSP16, literal(-6)))
          CFI (cfiCond157) ?RET_LOW load(1, XDATA, add(CFA_XSP16, literal(-5)))
          CFI (cfiCond157) ?RET_HIGH load(1, XDATA, add(CFA_XSP16, literal(-4)))
          CFI (cfiCond157) ?BRET_EXT load(1, XDATA, add(CFA_XSP16, literal(-3)))
          CFI (cfiCond157) DPL0 load(1, XDATA, add(CFA_XSP16, literal(-2)))
          CFI (cfiCond157) DPH0 load(1, XDATA, add(CFA_XSP16, literal(-1)))
          CFI (cfiCond157) CFA_SP SP+-6
          CFI (cfiCond157) CFA_XSP16 add(XSP16, 23)
          CFI Block cfiCond158 Using cfiCommon0
          CFI (cfiCond158) Function MT_AfIncomingMsg
          CFI (cfiCond158) Conditional ??CrossCallReturnLabel_123, ??CrossCallReturnLabel_120, ??CrossCallReturnLabel_115
          CFI (cfiCond158) R6 load(1, XDATA, add(CFA_XSP16, literal(-23)))
          CFI (cfiCond158) VB load(1, XDATA, add(CFA_XSP16, literal(-22)))
          CFI (cfiCond158) V0 load(1, XDATA, add(CFA_XSP16, literal(-21)))
          CFI (cfiCond158) V1 load(1, XDATA, add(CFA_XSP16, literal(-20)))
          CFI (cfiCond158) V2 load(1, XDATA, add(CFA_XSP16, literal(-19)))
          CFI (cfiCond158) V3 load(1, XDATA, add(CFA_XSP16, literal(-18)))
          CFI (cfiCond158) V4 load(1, XDATA, add(CFA_XSP16, literal(-17)))
          CFI (cfiCond158) V5 load(1, XDATA, add(CFA_XSP16, literal(-16)))
          CFI (cfiCond158) V6 load(1, XDATA, add(CFA_XSP16, literal(-15)))
          CFI (cfiCond158) V7 load(1, XDATA, add(CFA_XSP16, literal(-14)))
          CFI (cfiCond158) V8 load(1, XDATA, add(CFA_XSP16, literal(-13)))
          CFI (cfiCond158) V9 load(1, XDATA, add(CFA_XSP16, literal(-12)))
          CFI (cfiCond158) V10 load(1, XDATA, add(CFA_XSP16, literal(-11)))
          CFI (cfiCond158) V11 load(1, XDATA, add(CFA_XSP16, literal(-10)))
          CFI (cfiCond158) V12 load(1, XDATA, add(CFA_XSP16, literal(-9)))
          CFI (cfiCond158) V13 load(1, XDATA, add(CFA_XSP16, literal(-8)))
          CFI (cfiCond158) V14 load(1, XDATA, add(CFA_XSP16, literal(-7)))
          CFI (cfiCond158) R7 load(1, XDATA, add(CFA_XSP16, literal(-6)))
          CFI (cfiCond158) ?RET_LOW load(1, XDATA, add(CFA_XSP16, literal(-5)))
          CFI (cfiCond158) ?RET_HIGH load(1, XDATA, add(CFA_XSP16, literal(-4)))
          CFI (cfiCond158) ?BRET_EXT load(1, XDATA, add(CFA_XSP16, literal(-3)))
          CFI (cfiCond158) DPL0 load(1, XDATA, add(CFA_XSP16, literal(-2)))
          CFI (cfiCond158) DPH0 load(1, XDATA, add(CFA_XSP16, literal(-1)))
          CFI (cfiCond158) CFA_SP SP+-6
          CFI (cfiCond158) CFA_XSP16 add(XSP16, 23)
          CFI Block cfiCond159 Using cfiCommon0
          CFI (cfiCond159) Function MT_AfIncomingMsg
          CFI (cfiCond159) Conditional ??CrossCallReturnLabel_123, ??CrossCallReturnLabel_120, ??CrossCallReturnLabel_116
          CFI (cfiCond159) R6 load(1, XDATA, add(CFA_XSP16, literal(-23)))
          CFI (cfiCond159) VB load(1, XDATA, add(CFA_XSP16, literal(-22)))
          CFI (cfiCond159) V0 load(1, XDATA, add(CFA_XSP16, literal(-21)))
          CFI (cfiCond159) V1 load(1, XDATA, add(CFA_XSP16, literal(-20)))
          CFI (cfiCond159) V2 load(1, XDATA, add(CFA_XSP16, literal(-19)))
          CFI (cfiCond159) V3 load(1, XDATA, add(CFA_XSP16, literal(-18)))
          CFI (cfiCond159) V4 load(1, XDATA, add(CFA_XSP16, literal(-17)))
          CFI (cfiCond159) V5 load(1, XDATA, add(CFA_XSP16, literal(-16)))
          CFI (cfiCond159) V6 load(1, XDATA, add(CFA_XSP16, literal(-15)))
          CFI (cfiCond159) V7 load(1, XDATA, add(CFA_XSP16, literal(-14)))
          CFI (cfiCond159) V8 load(1, XDATA, add(CFA_XSP16, literal(-13)))
          CFI (cfiCond159) V9 load(1, XDATA, add(CFA_XSP16, literal(-12)))
          CFI (cfiCond159) V10 load(1, XDATA, add(CFA_XSP16, literal(-11)))
          CFI (cfiCond159) V11 load(1, XDATA, add(CFA_XSP16, literal(-10)))
          CFI (cfiCond159) V12 load(1, XDATA, add(CFA_XSP16, literal(-9)))
          CFI (cfiCond159) V13 load(1, XDATA, add(CFA_XSP16, literal(-8)))
          CFI (cfiCond159) V14 load(1, XDATA, add(CFA_XSP16, literal(-7)))
          CFI (cfiCond159) R7 load(1, XDATA, add(CFA_XSP16, literal(-6)))
          CFI (cfiCond159) ?RET_LOW load(1, XDATA, add(CFA_XSP16, literal(-5)))
          CFI (cfiCond159) ?RET_HIGH load(1, XDATA, add(CFA_XSP16, literal(-4)))
          CFI (cfiCond159) ?BRET_EXT load(1, XDATA, add(CFA_XSP16, literal(-3)))
          CFI (cfiCond159) DPL0 load(1, XDATA, add(CFA_XSP16, literal(-2)))
          CFI (cfiCond159) DPH0 load(1, XDATA, add(CFA_XSP16, literal(-1)))
          CFI (cfiCond159) CFA_SP SP+-6
          CFI (cfiCond159) CFA_XSP16 add(XSP16, 23)
          CFI Block cfiCond160 Using cfiCommon0
          CFI (cfiCond160) Function MT_AfIncomingMsg
          CFI (cfiCond160) Conditional ??CrossCallReturnLabel_123, ??CrossCallReturnLabel_120, ??CrossCallReturnLabel_117
          CFI (cfiCond160) R6 load(1, XDATA, add(CFA_XSP16, literal(-23)))
          CFI (cfiCond160) VB load(1, XDATA, add(CFA_XSP16, literal(-22)))
          CFI (cfiCond160) V0 load(1, XDATA, add(CFA_XSP16, literal(-21)))
          CFI (cfiCond160) V1 load(1, XDATA, add(CFA_XSP16, literal(-20)))
          CFI (cfiCond160) V2 load(1, XDATA, add(CFA_XSP16, literal(-19)))
          CFI (cfiCond160) V3 load(1, XDATA, add(CFA_XSP16, literal(-18)))
          CFI (cfiCond160) V4 load(1, XDATA, add(CFA_XSP16, literal(-17)))
          CFI (cfiCond160) V5 load(1, XDATA, add(CFA_XSP16, literal(-16)))
          CFI (cfiCond160) V6 load(1, XDATA, add(CFA_XSP16, literal(-15)))
          CFI (cfiCond160) V7 load(1, XDATA, add(CFA_XSP16, literal(-14)))
          CFI (cfiCond160) V8 load(1, XDATA, add(CFA_XSP16, literal(-13)))
          CFI (cfiCond160) V9 load(1, XDATA, add(CFA_XSP16, literal(-12)))
          CFI (cfiCond160) V10 load(1, XDATA, add(CFA_XSP16, literal(-11)))
          CFI (cfiCond160) V11 load(1, XDATA, add(CFA_XSP16, literal(-10)))
          CFI (cfiCond160) V12 load(1, XDATA, add(CFA_XSP16, literal(-9)))
          CFI (cfiCond160) V13 load(1, XDATA, add(CFA_XSP16, literal(-8)))
          CFI (cfiCond160) V14 load(1, XDATA, add(CFA_XSP16, literal(-7)))
          CFI (cfiCond160) R7 load(1, XDATA, add(CFA_XSP16, literal(-6)))
          CFI (cfiCond160) ?RET_LOW load(1, XDATA, add(CFA_XSP16, literal(-5)))
          CFI (cfiCond160) ?RET_HIGH load(1, XDATA, add(CFA_XSP16, literal(-4)))
          CFI (cfiCond160) ?BRET_EXT load(1, XDATA, add(CFA_XSP16, literal(-3)))
          CFI (cfiCond160) DPL0 load(1, XDATA, add(CFA_XSP16, literal(-2)))
          CFI (cfiCond160) DPH0 load(1, XDATA, add(CFA_XSP16, literal(-1)))
          CFI (cfiCond160) CFA_SP SP+-6
          CFI (cfiCond160) CFA_XSP16 add(XSP16, 23)
          CFI Block cfiCond161 Using cfiCommon0
          CFI (cfiCond161) Function MT_AfIncomingMsg
          CFI (cfiCond161) Conditional ??CrossCallReturnLabel_123, ??CrossCallReturnLabel_120, ??CrossCallReturnLabel_118
          CFI (cfiCond161) R6 load(1, XDATA, add(CFA_XSP16, literal(-23)))
          CFI (cfiCond161) VB load(1, XDATA, add(CFA_XSP16, literal(-22)))
          CFI (cfiCond161) V0 load(1, XDATA, add(CFA_XSP16, literal(-21)))
          CFI (cfiCond161) V1 load(1, XDATA, add(CFA_XSP16, literal(-20)))
          CFI (cfiCond161) V2 load(1, XDATA, add(CFA_XSP16, literal(-19)))
          CFI (cfiCond161) V3 load(1, XDATA, add(CFA_XSP16, literal(-18)))
          CFI (cfiCond161) V4 load(1, XDATA, add(CFA_XSP16, literal(-17)))
          CFI (cfiCond161) V5 load(1, XDATA, add(CFA_XSP16, literal(-16)))
          CFI (cfiCond161) V6 load(1, XDATA, add(CFA_XSP16, literal(-15)))
          CFI (cfiCond161) V7 load(1, XDATA, add(CFA_XSP16, literal(-14)))
          CFI (cfiCond161) V8 load(1, XDATA, add(CFA_XSP16, literal(-13)))
          CFI (cfiCond161) V9 load(1, XDATA, add(CFA_XSP16, literal(-12)))
          CFI (cfiCond161) V10 load(1, XDATA, add(CFA_XSP16, literal(-11)))
          CFI (cfiCond161) V11 load(1, XDATA, add(CFA_XSP16, literal(-10)))
          CFI (cfiCond161) V12 load(1, XDATA, add(CFA_XSP16, literal(-9)))
          CFI (cfiCond161) V13 load(1, XDATA, add(CFA_XSP16, literal(-8)))
          CFI (cfiCond161) V14 load(1, XDATA, add(CFA_XSP16, literal(-7)))
          CFI (cfiCond161) R7 load(1, XDATA, add(CFA_XSP16, literal(-6)))
          CFI (cfiCond161) ?RET_LOW load(1, XDATA, add(CFA_XSP16, literal(-5)))
          CFI (cfiCond161) ?RET_HIGH load(1, XDATA, add(CFA_XSP16, literal(-4)))
          CFI (cfiCond161) ?BRET_EXT load(1, XDATA, add(CFA_XSP16, literal(-3)))
          CFI (cfiCond161) DPL0 load(1, XDATA, add(CFA_XSP16, literal(-2)))
          CFI (cfiCond161) DPH0 load(1, XDATA, add(CFA_XSP16, literal(-1)))
          CFI (cfiCond161) CFA_SP SP+-6
          CFI (cfiCond161) CFA_XSP16 add(XSP16, 23)
          CFI Block cfiPicker162 Using cfiCommon1
          CFI (cfiPicker162) NoFunction
          CFI (cfiPicker162) Picker
        MOVX    A,@DPTR
        MOV     DPL,R6
        MOV     DPH,R7
        MOVX    @DPTR,A
        RET
          CFI EndBlock cfiCond145
          CFI EndBlock cfiCond146
          CFI EndBlock cfiCond147
          CFI EndBlock cfiCond148
          CFI EndBlock cfiCond149
          CFI EndBlock cfiCond150
          CFI EndBlock cfiCond151
          CFI EndBlock cfiCond152
          CFI EndBlock cfiCond153
          CFI EndBlock cfiCond154
          CFI EndBlock cfiCond155
          CFI EndBlock cfiCond156
          CFI EndBlock cfiCond157
          CFI EndBlock cfiCond158
          CFI EndBlock cfiCond159
          CFI EndBlock cfiCond160
          CFI EndBlock cfiCond161
          CFI EndBlock cfiPicker162

        RSEG BANKED_CODE:CODE:NOROOT(0)
?Subroutine22:
          CFI Block cfiCond163 Using cfiCommon0
          CFI Function MT_AfIncomingMsg
          CFI Conditional ??CrossCallReturnLabel_33
          CFI R6 load(1, XDATA, add(CFA_XSP16, literal(-23)))
          CFI VB load(1, XDATA, add(CFA_XSP16, literal(-22)))
          CFI V0 load(1, XDATA, add(CFA_XSP16, literal(-21)))
          CFI V1 load(1, XDATA, add(CFA_XSP16, literal(-20)))
          CFI V2 load(1, XDATA, add(CFA_XSP16, literal(-19)))
          CFI V3 load(1, XDATA, add(CFA_XSP16, literal(-18)))
          CFI V4 load(1, XDATA, add(CFA_XSP16, literal(-17)))
          CFI V5 load(1, XDATA, add(CFA_XSP16, literal(-16)))
          CFI V6 load(1, XDATA, add(CFA_XSP16, literal(-15)))
          CFI V7 load(1, XDATA, add(CFA_XSP16, literal(-14)))
          CFI V8 load(1, XDATA, add(CFA_XSP16, literal(-13)))
          CFI V9 load(1, XDATA, add(CFA_XSP16, literal(-12)))
          CFI V10 load(1, XDATA, add(CFA_XSP16, literal(-11)))
          CFI V11 load(1, XDATA, add(CFA_XSP16, literal(-10)))
          CFI V12 load(1, XDATA, add(CFA_XSP16, literal(-9)))
          CFI V13 load(1, XDATA, add(CFA_XSP16, literal(-8)))
          CFI V14 load(1, XDATA, add(CFA_XSP16, literal(-7)))
          CFI R7 load(1, XDATA, add(CFA_XSP16, literal(-6)))
          CFI ?RET_LOW load(1, XDATA, add(CFA_XSP16, literal(-5)))
          CFI ?RET_HIGH load(1, XDATA, add(CFA_XSP16, literal(-4)))
          CFI ?BRET_EXT load(1, XDATA, add(CFA_XSP16, literal(-3)))
          CFI DPL0 load(1, XDATA, add(CFA_XSP16, literal(-2)))
          CFI DPH0 load(1, XDATA, add(CFA_XSP16, literal(-1)))
          CFI CFA_SP SP+-2
          CFI CFA_XSP16 add(XSP16, 23)
          CFI Block cfiCond164 Using cfiCommon0
          CFI (cfiCond164) Function MT_AfIncomingMsg
          CFI (cfiCond164) Conditional ??CrossCallReturnLabel_34
          CFI (cfiCond164) R6 load(1, XDATA, add(CFA_XSP16, literal(-23)))
          CFI (cfiCond164) VB load(1, XDATA, add(CFA_XSP16, literal(-22)))
          CFI (cfiCond164) V0 load(1, XDATA, add(CFA_XSP16, literal(-21)))
          CFI (cfiCond164) V1 load(1, XDATA, add(CFA_XSP16, literal(-20)))
          CFI (cfiCond164) V2 load(1, XDATA, add(CFA_XSP16, literal(-19)))
          CFI (cfiCond164) V3 load(1, XDATA, add(CFA_XSP16, literal(-18)))
          CFI (cfiCond164) V4 load(1, XDATA, add(CFA_XSP16, literal(-17)))
          CFI (cfiCond164) V5 load(1, XDATA, add(CFA_XSP16, literal(-16)))
          CFI (cfiCond164) V6 load(1, XDATA, add(CFA_XSP16, literal(-15)))
          CFI (cfiCond164) V7 load(1, XDATA, add(CFA_XSP16, literal(-14)))
          CFI (cfiCond164) V8 load(1, XDATA, add(CFA_XSP16, literal(-13)))
          CFI (cfiCond164) V9 load(1, XDATA, add(CFA_XSP16, literal(-12)))
          CFI (cfiCond164) V10 load(1, XDATA, add(CFA_XSP16, literal(-11)))
          CFI (cfiCond164) V11 load(1, XDATA, add(CFA_XSP16, literal(-10)))
          CFI (cfiCond164) V12 load(1, XDATA, add(CFA_XSP16, literal(-9)))
          CFI (cfiCond164) V13 load(1, XDATA, add(CFA_XSP16, literal(-8)))
          CFI (cfiCond164) V14 load(1, XDATA, add(CFA_XSP16, literal(-7)))
          CFI (cfiCond164) R7 load(1, XDATA, add(CFA_XSP16, literal(-6)))
          CFI (cfiCond164) ?RET_LOW load(1, XDATA, add(CFA_XSP16, literal(-5)))
          CFI (cfiCond164) ?RET_HIGH load(1, XDATA, add(CFA_XSP16, literal(-4)))
          CFI (cfiCond164) ?BRET_EXT load(1, XDATA, add(CFA_XSP16, literal(-3)))
          CFI (cfiCond164) DPL0 load(1, XDATA, add(CFA_XSP16, literal(-2)))
          CFI (cfiCond164) DPH0 load(1, XDATA, add(CFA_XSP16, literal(-1)))
          CFI (cfiCond164) CFA_SP SP+-2
          CFI (cfiCond164) CFA_XSP16 add(XSP16, 23)
          CFI Block cfiPicker165 Using cfiCommon1
          CFI (cfiPicker165) NoFunction
          CFI (cfiPicker165) Picker
        LCALL   ?Subroutine37 & 0xFFFF
??CrossCallReturnLabel_107:
        INC     R6
        RET
          CFI EndBlock cfiCond163
          CFI EndBlock cfiCond164
          CFI EndBlock cfiPicker165

        RSEG BANKED_CODE:CODE:NOROOT(0)
?Subroutine19:
          CFI Block cfiCond166 Using cfiCommon0
          CFI Function MT_AfIncomingMsg
          CFI Conditional ??CrossCallReturnLabel_29
          CFI R6 load(1, XDATA, add(CFA_XSP16, literal(-23)))
          CFI VB load(1, XDATA, add(CFA_XSP16, literal(-22)))
          CFI V0 load(1, XDATA, add(CFA_XSP16, literal(-21)))
          CFI V1 load(1, XDATA, add(CFA_XSP16, literal(-20)))
          CFI V2 load(1, XDATA, add(CFA_XSP16, literal(-19)))
          CFI V3 load(1, XDATA, add(CFA_XSP16, literal(-18)))
          CFI V4 load(1, XDATA, add(CFA_XSP16, literal(-17)))
          CFI V5 load(1, XDATA, add(CFA_XSP16, literal(-16)))
          CFI V6 load(1, XDATA, add(CFA_XSP16, literal(-15)))
          CFI V7 load(1, XDATA, add(CFA_XSP16, literal(-14)))
          CFI V8 load(1, XDATA, add(CFA_XSP16, literal(-13)))
          CFI V9 load(1, XDATA, add(CFA_XSP16, literal(-12)))
          CFI V10 load(1, XDATA, add(CFA_XSP16, literal(-11)))
          CFI V11 load(1, XDATA, add(CFA_XSP16, literal(-10)))
          CFI V12 load(1, XDATA, add(CFA_XSP16, literal(-9)))
          CFI V13 load(1, XDATA, add(CFA_XSP16, literal(-8)))
          CFI V14 load(1, XDATA, add(CFA_XSP16, literal(-7)))
          CFI R7 load(1, XDATA, add(CFA_XSP16, literal(-6)))
          CFI ?RET_LOW load(1, XDATA, add(CFA_XSP16, literal(-5)))
          CFI ?RET_HIGH load(1, XDATA, add(CFA_XSP16, literal(-4)))
          CFI ?BRET_EXT load(1, XDATA, add(CFA_XSP16, literal(-3)))
          CFI DPL0 load(1, XDATA, add(CFA_XSP16, literal(-2)))
          CFI DPH0 load(1, XDATA, add(CFA_XSP16, literal(-1)))
          CFI CFA_SP SP+-2
          CFI CFA_XSP16 add(XSP16, 23)
          CFI Block cfiCond167 Using cfiCommon0
          CFI (cfiCond167) Function MT_AfIncomingMsg
          CFI (cfiCond167) Conditional ??CrossCallReturnLabel_30
          CFI (cfiCond167) R6 load(1, XDATA, add(CFA_XSP16, literal(-23)))
          CFI (cfiCond167) VB load(1, XDATA, add(CFA_XSP16, literal(-22)))
          CFI (cfiCond167) V0 load(1, XDATA, add(CFA_XSP16, literal(-21)))
          CFI (cfiCond167) V1 load(1, XDATA, add(CFA_XSP16, literal(-20)))
          CFI (cfiCond167) V2 load(1, XDATA, add(CFA_XSP16, literal(-19)))
          CFI (cfiCond167) V3 load(1, XDATA, add(CFA_XSP16, literal(-18)))
          CFI (cfiCond167) V4 load(1, XDATA, add(CFA_XSP16, literal(-17)))
          CFI (cfiCond167) V5 load(1, XDATA, add(CFA_XSP16, literal(-16)))
          CFI (cfiCond167) V6 load(1, XDATA, add(CFA_XSP16, literal(-15)))
          CFI (cfiCond167) V7 load(1, XDATA, add(CFA_XSP16, literal(-14)))
          CFI (cfiCond167) V8 load(1, XDATA, add(CFA_XSP16, literal(-13)))
          CFI (cfiCond167) V9 load(1, XDATA, add(CFA_XSP16, literal(-12)))
          CFI (cfiCond167) V10 load(1, XDATA, add(CFA_XSP16, literal(-11)))
          CFI (cfiCond167) V11 load(1, XDATA, add(CFA_XSP16, literal(-10)))
          CFI (cfiCond167) V12 load(1, XDATA, add(CFA_XSP16, literal(-9)))
          CFI (cfiCond167) V13 load(1, XDATA, add(CFA_XSP16, literal(-8)))
          CFI (cfiCond167) V14 load(1, XDATA, add(CFA_XSP16, literal(-7)))
          CFI (cfiCond167) R7 load(1, XDATA, add(CFA_XSP16, literal(-6)))
          CFI (cfiCond167) ?RET_LOW load(1, XDATA, add(CFA_XSP16, literal(-5)))
          CFI (cfiCond167) ?RET_HIGH load(1, XDATA, add(CFA_XSP16, literal(-4)))
          CFI (cfiCond167) ?BRET_EXT load(1, XDATA, add(CFA_XSP16, literal(-3)))
          CFI (cfiCond167) DPL0 load(1, XDATA, add(CFA_XSP16, literal(-2)))
          CFI (cfiCond167) DPH0 load(1, XDATA, add(CFA_XSP16, literal(-1)))
          CFI (cfiCond167) CFA_SP SP+-2
          CFI (cfiCond167) CFA_XSP16 add(XSP16, 23)
          CFI Block cfiPicker168 Using cfiCommon1
          CFI (cfiPicker168) NoFunction
          CFI (cfiPicker168) Picker
        MOV     A,?V8
        ADD     A,#0x22
        MOV     DPL,A
        CLR     A
        ADDC    A,?V9
        MOV     DPH,A
        MOVX    A,@DPTR
        MOV     ?V4,A
        INC     DPTR
        MOVX    A,@DPTR
        MOV     ?V5,A
        MOV     R0,#?V4
        RET
          CFI EndBlock cfiCond166
          CFI EndBlock cfiCond167
          CFI EndBlock cfiPicker168

        RSEG BANKED_CODE:CODE:NOROOT(0)
?Subroutine17:
          CFI Block cfiCond169 Using cfiCommon0
          CFI Function MT_AfExec
          CFI Conditional ??CrossCallReturnLabel_111
          CFI R6 load(1, XDATA, add(CFA_XSP16, literal(-9)))
          CFI VB load(1, XDATA, add(CFA_XSP16, literal(-8)))
          CFI V0 load(1, XDATA, add(CFA_XSP16, literal(-7)))
          CFI R7 load(1, XDATA, add(CFA_XSP16, literal(-6)))
          CFI ?RET_LOW load(1, XDATA, add(CFA_XSP16, literal(-5)))
          CFI ?RET_HIGH load(1, XDATA, add(CFA_XSP16, literal(-4)))
          CFI ?BRET_EXT load(1, XDATA, add(CFA_XSP16, literal(-3)))
          CFI DPL0 load(1, XDATA, add(CFA_XSP16, literal(-2)))
          CFI DPH0 load(1, XDATA, add(CFA_XSP16, literal(-1)))
          CFI CFA_SP SP+-2
          CFI CFA_XSP16 add(XSP16, 9)
          CFI Block cfiCond170 Using cfiCommon0
          CFI (cfiCond170) Function MT_AfDataStore
          CFI (cfiCond170) Conditional ??CrossCallReturnLabel_112
          CFI (cfiCond170) R6 load(1, XDATA, add(CFA_XSP16, literal(-11)))
          CFI (cfiCond170) VB load(1, XDATA, add(CFA_XSP16, literal(-10)))
          CFI (cfiCond170) V0 load(1, XDATA, add(CFA_XSP16, literal(-9)))
          CFI (cfiCond170) V1 load(1, XDATA, add(CFA_XSP16, literal(-8)))
          CFI (cfiCond170) V2 load(1, XDATA, add(CFA_XSP16, literal(-7)))
          CFI (cfiCond170) R7 load(1, XDATA, add(CFA_XSP16, literal(-6)))
          CFI (cfiCond170) ?RET_LOW load(1, XDATA, add(CFA_XSP16, literal(-5)))
          CFI (cfiCond170) ?RET_HIGH load(1, XDATA, add(CFA_XSP16, literal(-4)))
          CFI (cfiCond170) ?BRET_EXT load(1, XDATA, add(CFA_XSP16, literal(-3)))
          CFI (cfiCond170) DPL0 load(1, XDATA, add(CFA_XSP16, literal(-2)))
          CFI (cfiCond170) DPH0 load(1, XDATA, add(CFA_XSP16, literal(-1)))
          CFI (cfiCond170) CFA_SP SP+-2
          CFI (cfiCond170) CFA_XSP16 add(XSP16, 12)
          CFI Block cfiPicker171 Using cfiCommon1
          CFI (cfiPicker171) NoFunction
          CFI (cfiPicker171) Picker
        MOV     DPTR,#pMtAfDataReq
          CFI EndBlock cfiCond169
          CFI EndBlock cfiCond170
          CFI EndBlock cfiPicker171
        REQUIRE ??Subroutine50_0
        ; // Fall through to label ??Subroutine50_0

        RSEG BANKED_CODE:CODE:NOROOT(0)
??Subroutine50_0:
          CFI Block cfiCond172 Using cfiCommon0
          CFI Function MT_AfExec
          CFI Conditional ??CrossCallReturnLabel_109
          CFI R6 load(1, XDATA, add(CFA_XSP16, literal(-9)))
          CFI VB load(1, XDATA, add(CFA_XSP16, literal(-8)))
          CFI V0 load(1, XDATA, add(CFA_XSP16, literal(-7)))
          CFI R7 load(1, XDATA, add(CFA_XSP16, literal(-6)))
          CFI ?RET_LOW load(1, XDATA, add(CFA_XSP16, literal(-5)))
          CFI ?RET_HIGH load(1, XDATA, add(CFA_XSP16, literal(-4)))
          CFI ?BRET_EXT load(1, XDATA, add(CFA_XSP16, literal(-3)))
          CFI DPL0 load(1, XDATA, add(CFA_XSP16, literal(-2)))
          CFI DPH0 load(1, XDATA, add(CFA_XSP16, literal(-1)))
          CFI CFA_SP SP+-2
          CFI CFA_XSP16 add(XSP16, 9)
          CFI Block cfiCond173 Using cfiCommon0
          CFI (cfiCond173) Function MT_AfIncomingMsg
          CFI (cfiCond173) Conditional ??CrossCallReturnLabel_110
          CFI (cfiCond173) R6 load(1, XDATA, add(CFA_XSP16, literal(-23)))
          CFI (cfiCond173) VB load(1, XDATA, add(CFA_XSP16, literal(-22)))
          CFI (cfiCond173) V0 load(1, XDATA, add(CFA_XSP16, literal(-21)))
          CFI (cfiCond173) V1 load(1, XDATA, add(CFA_XSP16, literal(-20)))
          CFI (cfiCond173) V2 load(1, XDATA, add(CFA_XSP16, literal(-19)))
          CFI (cfiCond173) V3 load(1, XDATA, add(CFA_XSP16, literal(-18)))
          CFI (cfiCond173) V4 load(1, XDATA, add(CFA_XSP16, literal(-17)))
          CFI (cfiCond173) V5 load(1, XDATA, add(CFA_XSP16, literal(-16)))
          CFI (cfiCond173) V6 load(1, XDATA, add(CFA_XSP16, literal(-15)))
          CFI (cfiCond173) V7 load(1, XDATA, add(CFA_XSP16, literal(-14)))
          CFI (cfiCond173) V8 load(1, XDATA, add(CFA_XSP16, literal(-13)))
          CFI (cfiCond173) V9 load(1, XDATA, add(CFA_XSP16, literal(-12)))
          CFI (cfiCond173) V10 load(1, XDATA, add(CFA_XSP16, literal(-11)))
          CFI (cfiCond173) V11 load(1, XDATA, add(CFA_XSP16, literal(-10)))
          CFI (cfiCond173) V12 load(1, XDATA, add(CFA_XSP16, literal(-9)))
          CFI (cfiCond173) V13 load(1, XDATA, add(CFA_XSP16, literal(-8)))
          CFI (cfiCond173) V14 load(1, XDATA, add(CFA_XSP16, literal(-7)))
          CFI (cfiCond173) R7 load(1, XDATA, add(CFA_XSP16, literal(-6)))
          CFI (cfiCond173) ?RET_LOW load(1, XDATA, add(CFA_XSP16, literal(-5)))
          CFI (cfiCond173) ?RET_HIGH load(1, XDATA, add(CFA_XSP16, literal(-4)))
          CFI (cfiCond173) ?BRET_EXT load(1, XDATA, add(CFA_XSP16, literal(-3)))
          CFI (cfiCond173) DPL0 load(1, XDATA, add(CFA_XSP16, literal(-2)))
          CFI (cfiCond173) DPH0 load(1, XDATA, add(CFA_XSP16, literal(-1)))
          CFI (cfiCond173) CFA_SP SP+-2
          CFI (cfiCond173) CFA_XSP16 add(XSP16, 26)
          CFI Block cfiCond174 Using cfiCommon0
          CFI (cfiCond174) Function MT_AfExec
          CFI (cfiCond174) Conditional ??CrossCallReturnLabel_111
          CFI (cfiCond174) R6 load(1, XDATA, add(CFA_XSP16, literal(-9)))
          CFI (cfiCond174) VB load(1, XDATA, add(CFA_XSP16, literal(-8)))
          CFI (cfiCond174) V0 load(1, XDATA, add(CFA_XSP16, literal(-7)))
          CFI (cfiCond174) R7 load(1, XDATA, add(CFA_XSP16, literal(-6)))
          CFI (cfiCond174) ?RET_LOW load(1, XDATA, add(CFA_XSP16, literal(-5)))
          CFI (cfiCond174) ?RET_HIGH load(1, XDATA, add(CFA_XSP16, literal(-4)))
          CFI (cfiCond174) ?BRET_EXT load(1, XDATA, add(CFA_XSP16, literal(-3)))
          CFI (cfiCond174) DPL0 load(1, XDATA, add(CFA_XSP16, literal(-2)))
          CFI (cfiCond174) DPH0 load(1, XDATA, add(CFA_XSP16, literal(-1)))
          CFI (cfiCond174) CFA_SP SP+-2
          CFI (cfiCond174) CFA_XSP16 add(XSP16, 9)
          CFI Block cfiCond175 Using cfiCommon0
          CFI (cfiCond175) Function MT_AfDataStore
          CFI (cfiCond175) Conditional ??CrossCallReturnLabel_112
          CFI (cfiCond175) R6 load(1, XDATA, add(CFA_XSP16, literal(-11)))
          CFI (cfiCond175) VB load(1, XDATA, add(CFA_XSP16, literal(-10)))
          CFI (cfiCond175) V0 load(1, XDATA, add(CFA_XSP16, literal(-9)))
          CFI (cfiCond175) V1 load(1, XDATA, add(CFA_XSP16, literal(-8)))
          CFI (cfiCond175) V2 load(1, XDATA, add(CFA_XSP16, literal(-7)))
          CFI (cfiCond175) R7 load(1, XDATA, add(CFA_XSP16, literal(-6)))
          CFI (cfiCond175) ?RET_LOW load(1, XDATA, add(CFA_XSP16, literal(-5)))
          CFI (cfiCond175) ?RET_HIGH load(1, XDATA, add(CFA_XSP16, literal(-4)))
          CFI (cfiCond175) ?BRET_EXT load(1, XDATA, add(CFA_XSP16, literal(-3)))
          CFI (cfiCond175) DPL0 load(1, XDATA, add(CFA_XSP16, literal(-2)))
          CFI (cfiCond175) DPH0 load(1, XDATA, add(CFA_XSP16, literal(-1)))
          CFI (cfiCond175) CFA_SP SP+-2
          CFI (cfiCond175) CFA_XSP16 add(XSP16, 12)
          CFI Block cfiPicker176 Using cfiCommon1
          CFI (cfiPicker176) NoFunction
          CFI (cfiPicker176) Picker
        MOVX    A,@DPTR
        MOV     R2,A
        INC     DPTR
        MOVX    A,@DPTR
        MOV     R3,A
        RET
          CFI EndBlock cfiCond172
          CFI EndBlock cfiCond173
          CFI EndBlock cfiCond174
          CFI EndBlock cfiCond175
          CFI EndBlock cfiPicker176

        RSEG BANKED_CODE:CODE:NOROOT(0)
?Subroutine7:
          CFI Block cfiCond177 Using cfiCommon0
          CFI Function MT_AfIncomingMsg
          CFI Conditional ??CrossCallReturnLabel_7
          CFI R6 load(1, XDATA, add(CFA_XSP16, literal(-23)))
          CFI VB load(1, XDATA, add(CFA_XSP16, literal(-22)))
          CFI V0 load(1, XDATA, add(CFA_XSP16, literal(-21)))
          CFI V1 load(1, XDATA, add(CFA_XSP16, literal(-20)))
          CFI V2 load(1, XDATA, add(CFA_XSP16, literal(-19)))
          CFI V3 load(1, XDATA, add(CFA_XSP16, literal(-18)))
          CFI V4 load(1, XDATA, add(CFA_XSP16, literal(-17)))
          CFI V5 load(1, XDATA, add(CFA_XSP16, literal(-16)))
          CFI V6 load(1, XDATA, add(CFA_XSP16, literal(-15)))
          CFI V7 load(1, XDATA, add(CFA_XSP16, literal(-14)))
          CFI V8 load(1, XDATA, add(CFA_XSP16, literal(-13)))
          CFI V9 load(1, XDATA, add(CFA_XSP16, literal(-12)))
          CFI V10 load(1, XDATA, add(CFA_XSP16, literal(-11)))
          CFI V11 load(1, XDATA, add(CFA_XSP16, literal(-10)))
          CFI V12 load(1, XDATA, add(CFA_XSP16, literal(-9)))
          CFI V13 load(1, XDATA, add(CFA_XSP16, literal(-8)))
          CFI V14 load(1, XDATA, add(CFA_XSP16, literal(-7)))
          CFI R7 load(1, XDATA, add(CFA_XSP16, literal(-6)))
          CFI ?RET_LOW load(1, XDATA, add(CFA_XSP16, literal(-5)))
          CFI ?RET_HIGH load(1, XDATA, add(CFA_XSP16, literal(-4)))
          CFI ?BRET_EXT load(1, XDATA, add(CFA_XSP16, literal(-3)))
          CFI DPL0 load(1, XDATA, add(CFA_XSP16, literal(-2)))
          CFI DPH0 load(1, XDATA, add(CFA_XSP16, literal(-1)))
          CFI CFA_SP SP+-2
          CFI CFA_XSP16 add(XSP16, 23)
          CFI Block cfiCond178 Using cfiCommon0
          CFI (cfiCond178) Function MT_AfIncomingMsg
          CFI (cfiCond178) Conditional ??CrossCallReturnLabel_8
          CFI (cfiCond178) R6 load(1, XDATA, add(CFA_XSP16, literal(-23)))
          CFI (cfiCond178) VB load(1, XDATA, add(CFA_XSP16, literal(-22)))
          CFI (cfiCond178) V0 load(1, XDATA, add(CFA_XSP16, literal(-21)))
          CFI (cfiCond178) V1 load(1, XDATA, add(CFA_XSP16, literal(-20)))
          CFI (cfiCond178) V2 load(1, XDATA, add(CFA_XSP16, literal(-19)))
          CFI (cfiCond178) V3 load(1, XDATA, add(CFA_XSP16, literal(-18)))
          CFI (cfiCond178) V4 load(1, XDATA, add(CFA_XSP16, literal(-17)))
          CFI (cfiCond178) V5 load(1, XDATA, add(CFA_XSP16, literal(-16)))
          CFI (cfiCond178) V6 load(1, XDATA, add(CFA_XSP16, literal(-15)))
          CFI (cfiCond178) V7 load(1, XDATA, add(CFA_XSP16, literal(-14)))
          CFI (cfiCond178) V8 load(1, XDATA, add(CFA_XSP16, literal(-13)))
          CFI (cfiCond178) V9 load(1, XDATA, add(CFA_XSP16, literal(-12)))
          CFI (cfiCond178) V10 load(1, XDATA, add(CFA_XSP16, literal(-11)))
          CFI (cfiCond178) V11 load(1, XDATA, add(CFA_XSP16, literal(-10)))
          CFI (cfiCond178) V12 load(1, XDATA, add(CFA_XSP16, literal(-9)))
          CFI (cfiCond178) V13 load(1, XDATA, add(CFA_XSP16, literal(-8)))
          CFI (cfiCond178) V14 load(1, XDATA, add(CFA_XSP16, literal(-7)))
          CFI (cfiCond178) R7 load(1, XDATA, add(CFA_XSP16, literal(-6)))
          CFI (cfiCond178) ?RET_LOW load(1, XDATA, add(CFA_XSP16, literal(-5)))
          CFI (cfiCond178) ?RET_HIGH load(1, XDATA, add(CFA_XSP16, literal(-4)))
          CFI (cfiCond178) ?BRET_EXT load(1, XDATA, add(CFA_XSP16, literal(-3)))
          CFI (cfiCond178) DPL0 load(1, XDATA, add(CFA_XSP16, literal(-2)))
          CFI (cfiCond178) DPH0 load(1, XDATA, add(CFA_XSP16, literal(-1)))
          CFI (cfiCond178) CFA_SP SP+-2
          CFI (cfiCond178) CFA_XSP16 add(XSP16, 23)
          CFI Block cfiPicker179 Using cfiCommon1
          CFI (cfiPicker179) NoFunction
          CFI (cfiPicker179) Picker
        LCALL   ?Subroutine42 & 0xFFFF
??CrossCallReturnLabel_85:
        LCALL   ?Subroutine36 & 0xFFFF
??CrossCallReturnLabel_119:
        MOV     DPL,R0
        MOV     DPH,R1
        RET
          CFI EndBlock cfiCond177
          CFI EndBlock cfiCond178
          CFI EndBlock cfiPicker179

        RSEG BANKED_CODE:CODE:NOROOT(0)
?Subroutine2:
          CFI Block cfiCond180 Using cfiCommon0
          CFI Function MT_AfIncomingMsg
          CFI Conditional ??CrossCallReturnLabel_113
          CFI R6 load(1, XDATA, add(CFA_XSP16, literal(-23)))
          CFI VB load(1, XDATA, add(CFA_XSP16, literal(-22)))
          CFI V0 load(1, XDATA, add(CFA_XSP16, literal(-21)))
          CFI V1 load(1, XDATA, add(CFA_XSP16, literal(-20)))
          CFI V2 load(1, XDATA, add(CFA_XSP16, literal(-19)))
          CFI V3 load(1, XDATA, add(CFA_XSP16, literal(-18)))
          CFI V4 load(1, XDATA, add(CFA_XSP16, literal(-17)))
          CFI V5 load(1, XDATA, add(CFA_XSP16, literal(-16)))
          CFI V6 load(1, XDATA, add(CFA_XSP16, literal(-15)))
          CFI V7 load(1, XDATA, add(CFA_XSP16, literal(-14)))
          CFI V8 load(1, XDATA, add(CFA_XSP16, literal(-13)))
          CFI V9 load(1, XDATA, add(CFA_XSP16, literal(-12)))
          CFI V10 load(1, XDATA, add(CFA_XSP16, literal(-11)))
          CFI V11 load(1, XDATA, add(CFA_XSP16, literal(-10)))
          CFI V12 load(1, XDATA, add(CFA_XSP16, literal(-9)))
          CFI V13 load(1, XDATA, add(CFA_XSP16, literal(-8)))
          CFI V14 load(1, XDATA, add(CFA_XSP16, literal(-7)))
          CFI R7 load(1, XDATA, add(CFA_XSP16, literal(-6)))
          CFI ?RET_LOW load(1, XDATA, add(CFA_XSP16, literal(-5)))
          CFI ?RET_HIGH load(1, XDATA, add(CFA_XSP16, literal(-4)))
          CFI ?BRET_EXT load(1, XDATA, add(CFA_XSP16, literal(-3)))
          CFI DPL0 load(1, XDATA, add(CFA_XSP16, literal(-2)))
          CFI DPH0 load(1, XDATA, add(CFA_XSP16, literal(-1)))
          CFI CFA_SP SP+-2
          CFI CFA_XSP16 add(XSP16, 23)
          CFI Block cfiCond181 Using cfiCommon0
          CFI (cfiCond181) Function MT_AfIncomingMsg
          CFI (cfiCond181) Conditional ??CrossCallReturnLabel_114
          CFI (cfiCond181) R6 load(1, XDATA, add(CFA_XSP16, literal(-23)))
          CFI (cfiCond181) VB load(1, XDATA, add(CFA_XSP16, literal(-22)))
          CFI (cfiCond181) V0 load(1, XDATA, add(CFA_XSP16, literal(-21)))
          CFI (cfiCond181) V1 load(1, XDATA, add(CFA_XSP16, literal(-20)))
          CFI (cfiCond181) V2 load(1, XDATA, add(CFA_XSP16, literal(-19)))
          CFI (cfiCond181) V3 load(1, XDATA, add(CFA_XSP16, literal(-18)))
          CFI (cfiCond181) V4 load(1, XDATA, add(CFA_XSP16, literal(-17)))
          CFI (cfiCond181) V5 load(1, XDATA, add(CFA_XSP16, literal(-16)))
          CFI (cfiCond181) V6 load(1, XDATA, add(CFA_XSP16, literal(-15)))
          CFI (cfiCond181) V7 load(1, XDATA, add(CFA_XSP16, literal(-14)))
          CFI (cfiCond181) V8 load(1, XDATA, add(CFA_XSP16, literal(-13)))
          CFI (cfiCond181) V9 load(1, XDATA, add(CFA_XSP16, literal(-12)))
          CFI (cfiCond181) V10 load(1, XDATA, add(CFA_XSP16, literal(-11)))
          CFI (cfiCond181) V11 load(1, XDATA, add(CFA_XSP16, literal(-10)))
          CFI (cfiCond181) V12 load(1, XDATA, add(CFA_XSP16, literal(-9)))
          CFI (cfiCond181) V13 load(1, XDATA, add(CFA_XSP16, literal(-8)))
          CFI (cfiCond181) V14 load(1, XDATA, add(CFA_XSP16, literal(-7)))
          CFI (cfiCond181) R7 load(1, XDATA, add(CFA_XSP16, literal(-6)))
          CFI (cfiCond181) ?RET_LOW load(1, XDATA, add(CFA_XSP16, literal(-5)))
          CFI (cfiCond181) ?RET_HIGH load(1, XDATA, add(CFA_XSP16, literal(-4)))
          CFI (cfiCond181) ?BRET_EXT load(1, XDATA, add(CFA_XSP16, literal(-3)))
          CFI (cfiCond181) DPL0 load(1, XDATA, add(CFA_XSP16, literal(-2)))
          CFI (cfiCond181) DPH0 load(1, XDATA, add(CFA_XSP16, literal(-1)))
          CFI (cfiCond181) CFA_SP SP+-2
          CFI (cfiCond181) CFA_XSP16 add(XSP16, 23)
          CFI Block cfiPicker182 Using cfiCommon1
          CFI (cfiPicker182) NoFunction
          CFI (cfiPicker182) Picker
        LCALL   ?Subroutine42 & 0xFFFF
??CrossCallReturnLabel_84:
        LCALL   ?Subroutine37 & 0xFFFF
??CrossCallReturnLabel_106:
        MOV     R6,DPL
          CFI EndBlock cfiCond180
          CFI EndBlock cfiCond181
          CFI EndBlock cfiPicker182
        REQUIRE ??Subroutine51_0
        ; // Fall through to label ??Subroutine51_0

        RSEG BANKED_CODE:CODE:NOROOT(0)
??Subroutine51_0:
          CFI Block cfiCond183 Using cfiCommon0
          CFI Function MT_AfIncomingMsg
          CFI Conditional ??CrossCallReturnLabel_115
          CFI R6 load(1, XDATA, add(CFA_XSP16, literal(-23)))
          CFI VB load(1, XDATA, add(CFA_XSP16, literal(-22)))
          CFI V0 load(1, XDATA, add(CFA_XSP16, literal(-21)))
          CFI V1 load(1, XDATA, add(CFA_XSP16, literal(-20)))
          CFI V2 load(1, XDATA, add(CFA_XSP16, literal(-19)))
          CFI V3 load(1, XDATA, add(CFA_XSP16, literal(-18)))
          CFI V4 load(1, XDATA, add(CFA_XSP16, literal(-17)))
          CFI V5 load(1, XDATA, add(CFA_XSP16, literal(-16)))
          CFI V6 load(1, XDATA, add(CFA_XSP16, literal(-15)))
          CFI V7 load(1, XDATA, add(CFA_XSP16, literal(-14)))
          CFI V8 load(1, XDATA, add(CFA_XSP16, literal(-13)))
          CFI V9 load(1, XDATA, add(CFA_XSP16, literal(-12)))
          CFI V10 load(1, XDATA, add(CFA_XSP16, literal(-11)))
          CFI V11 load(1, XDATA, add(CFA_XSP16, literal(-10)))
          CFI V12 load(1, XDATA, add(CFA_XSP16, literal(-9)))
          CFI V13 load(1, XDATA, add(CFA_XSP16, literal(-8)))
          CFI V14 load(1, XDATA, add(CFA_XSP16, literal(-7)))
          CFI R7 load(1, XDATA, add(CFA_XSP16, literal(-6)))
          CFI ?RET_LOW load(1, XDATA, add(CFA_XSP16, literal(-5)))
          CFI ?RET_HIGH load(1, XDATA, add(CFA_XSP16, literal(-4)))
          CFI ?BRET_EXT load(1, XDATA, add(CFA_XSP16, literal(-3)))
          CFI DPL0 load(1, XDATA, add(CFA_XSP16, literal(-2)))
          CFI DPH0 load(1, XDATA, add(CFA_XSP16, literal(-1)))
          CFI CFA_SP SP+-2
          CFI CFA_XSP16 add(XSP16, 23)
          CFI Block cfiCond184 Using cfiCommon0
          CFI (cfiCond184) Function MT_AfIncomingMsg
          CFI (cfiCond184) Conditional ??CrossCallReturnLabel_113
          CFI (cfiCond184) R6 load(1, XDATA, add(CFA_XSP16, literal(-23)))
          CFI (cfiCond184) VB load(1, XDATA, add(CFA_XSP16, literal(-22)))
          CFI (cfiCond184) V0 load(1, XDATA, add(CFA_XSP16, literal(-21)))
          CFI (cfiCond184) V1 load(1, XDATA, add(CFA_XSP16, literal(-20)))
          CFI (cfiCond184) V2 load(1, XDATA, add(CFA_XSP16, literal(-19)))
          CFI (cfiCond184) V3 load(1, XDATA, add(CFA_XSP16, literal(-18)))
          CFI (cfiCond184) V4 load(1, XDATA, add(CFA_XSP16, literal(-17)))
          CFI (cfiCond184) V5 load(1, XDATA, add(CFA_XSP16, literal(-16)))
          CFI (cfiCond184) V6 load(1, XDATA, add(CFA_XSP16, literal(-15)))
          CFI (cfiCond184) V7 load(1, XDATA, add(CFA_XSP16, literal(-14)))
          CFI (cfiCond184) V8 load(1, XDATA, add(CFA_XSP16, literal(-13)))
          CFI (cfiCond184) V9 load(1, XDATA, add(CFA_XSP16, literal(-12)))
          CFI (cfiCond184) V10 load(1, XDATA, add(CFA_XSP16, literal(-11)))
          CFI (cfiCond184) V11 load(1, XDATA, add(CFA_XSP16, literal(-10)))
          CFI (cfiCond184) V12 load(1, XDATA, add(CFA_XSP16, literal(-9)))
          CFI (cfiCond184) V13 load(1, XDATA, add(CFA_XSP16, literal(-8)))
          CFI (cfiCond184) V14 load(1, XDATA, add(CFA_XSP16, literal(-7)))
          CFI (cfiCond184) R7 load(1, XDATA, add(CFA_XSP16, literal(-6)))
          CFI (cfiCond184) ?RET_LOW load(1, XDATA, add(CFA_XSP16, literal(-5)))
          CFI (cfiCond184) ?RET_HIGH load(1, XDATA, add(CFA_XSP16, literal(-4)))
          CFI (cfiCond184) ?BRET_EXT load(1, XDATA, add(CFA_XSP16, literal(-3)))
          CFI (cfiCond184) DPL0 load(1, XDATA, add(CFA_XSP16, literal(-2)))
          CFI (cfiCond184) DPH0 load(1, XDATA, add(CFA_XSP16, literal(-1)))
          CFI (cfiCond184) CFA_SP SP+-2
          CFI (cfiCond184) CFA_XSP16 add(XSP16, 23)
          CFI Block cfiCond185 Using cfiCommon0
          CFI (cfiCond185) Function MT_AfIncomingMsg
          CFI (cfiCond185) Conditional ??CrossCallReturnLabel_114
          CFI (cfiCond185) R6 load(1, XDATA, add(CFA_XSP16, literal(-23)))
          CFI (cfiCond185) VB load(1, XDATA, add(CFA_XSP16, literal(-22)))
          CFI (cfiCond185) V0 load(1, XDATA, add(CFA_XSP16, literal(-21)))
          CFI (cfiCond185) V1 load(1, XDATA, add(CFA_XSP16, literal(-20)))
          CFI (cfiCond185) V2 load(1, XDATA, add(CFA_XSP16, literal(-19)))
          CFI (cfiCond185) V3 load(1, XDATA, add(CFA_XSP16, literal(-18)))
          CFI (cfiCond185) V4 load(1, XDATA, add(CFA_XSP16, literal(-17)))
          CFI (cfiCond185) V5 load(1, XDATA, add(CFA_XSP16, literal(-16)))
          CFI (cfiCond185) V6 load(1, XDATA, add(CFA_XSP16, literal(-15)))
          CFI (cfiCond185) V7 load(1, XDATA, add(CFA_XSP16, literal(-14)))
          CFI (cfiCond185) V8 load(1, XDATA, add(CFA_XSP16, literal(-13)))
          CFI (cfiCond185) V9 load(1, XDATA, add(CFA_XSP16, literal(-12)))
          CFI (cfiCond185) V10 load(1, XDATA, add(CFA_XSP16, literal(-11)))
          CFI (cfiCond185) V11 load(1, XDATA, add(CFA_XSP16, literal(-10)))
          CFI (cfiCond185) V12 load(1, XDATA, add(CFA_XSP16, literal(-9)))
          CFI (cfiCond185) V13 load(1, XDATA, add(CFA_XSP16, literal(-8)))
          CFI (cfiCond185) V14 load(1, XDATA, add(CFA_XSP16, literal(-7)))
          CFI (cfiCond185) R7 load(1, XDATA, add(CFA_XSP16, literal(-6)))
          CFI (cfiCond185) ?RET_LOW load(1, XDATA, add(CFA_XSP16, literal(-5)))
          CFI (cfiCond185) ?RET_HIGH load(1, XDATA, add(CFA_XSP16, literal(-4)))
          CFI (cfiCond185) ?BRET_EXT load(1, XDATA, add(CFA_XSP16, literal(-3)))
          CFI (cfiCond185) DPL0 load(1, XDATA, add(CFA_XSP16, literal(-2)))
          CFI (cfiCond185) DPH0 load(1, XDATA, add(CFA_XSP16, literal(-1)))
          CFI (cfiCond185) CFA_SP SP+-2
          CFI (cfiCond185) CFA_XSP16 add(XSP16, 23)
          CFI Block cfiPicker186 Using cfiCommon1
          CFI (cfiPicker186) NoFunction
          CFI (cfiPicker186) Picker
        MOV     R7,DPH
        MOV     DPL,R0
        MOV     DPH,R1
        INC     DPTR
          CFI EndBlock cfiCond183
          CFI EndBlock cfiCond184
          CFI EndBlock cfiCond185
          CFI EndBlock cfiPicker186
        REQUIRE ??Subroutine52_0
        ; // Fall through to label ??Subroutine52_0

        RSEG BANKED_CODE:CODE:NOROOT(0)
??Subroutine52_0:
          CFI Block cfiCond187 Using cfiCommon0
          CFI Function MT_AfIncomingMsg
          CFI Conditional ??CrossCallReturnLabel_116
          CFI R6 load(1, XDATA, add(CFA_XSP16, literal(-23)))
          CFI VB load(1, XDATA, add(CFA_XSP16, literal(-22)))
          CFI V0 load(1, XDATA, add(CFA_XSP16, literal(-21)))
          CFI V1 load(1, XDATA, add(CFA_XSP16, literal(-20)))
          CFI V2 load(1, XDATA, add(CFA_XSP16, literal(-19)))
          CFI V3 load(1, XDATA, add(CFA_XSP16, literal(-18)))
          CFI V4 load(1, XDATA, add(CFA_XSP16, literal(-17)))
          CFI V5 load(1, XDATA, add(CFA_XSP16, literal(-16)))
          CFI V6 load(1, XDATA, add(CFA_XSP16, literal(-15)))
          CFI V7 load(1, XDATA, add(CFA_XSP16, literal(-14)))
          CFI V8 load(1, XDATA, add(CFA_XSP16, literal(-13)))
          CFI V9 load(1, XDATA, add(CFA_XSP16, literal(-12)))
          CFI V10 load(1, XDATA, add(CFA_XSP16, literal(-11)))
          CFI V11 load(1, XDATA, add(CFA_XSP16, literal(-10)))
          CFI V12 load(1, XDATA, add(CFA_XSP16, literal(-9)))
          CFI V13 load(1, XDATA, add(CFA_XSP16, literal(-8)))
          CFI V14 load(1, XDATA, add(CFA_XSP16, literal(-7)))
          CFI R7 load(1, XDATA, add(CFA_XSP16, literal(-6)))
          CFI ?RET_LOW load(1, XDATA, add(CFA_XSP16, literal(-5)))
          CFI ?RET_HIGH load(1, XDATA, add(CFA_XSP16, literal(-4)))
          CFI ?BRET_EXT load(1, XDATA, add(CFA_XSP16, literal(-3)))
          CFI DPL0 load(1, XDATA, add(CFA_XSP16, literal(-2)))
          CFI DPH0 load(1, XDATA, add(CFA_XSP16, literal(-1)))
          CFI CFA_SP SP+-2
          CFI CFA_XSP16 add(XSP16, 23)
          CFI Block cfiCond188 Using cfiCommon0
          CFI (cfiCond188) Function MT_AfIncomingMsg
          CFI (cfiCond188) Conditional ??CrossCallReturnLabel_117
          CFI (cfiCond188) R6 load(1, XDATA, add(CFA_XSP16, literal(-23)))
          CFI (cfiCond188) VB load(1, XDATA, add(CFA_XSP16, literal(-22)))
          CFI (cfiCond188) V0 load(1, XDATA, add(CFA_XSP16, literal(-21)))
          CFI (cfiCond188) V1 load(1, XDATA, add(CFA_XSP16, literal(-20)))
          CFI (cfiCond188) V2 load(1, XDATA, add(CFA_XSP16, literal(-19)))
          CFI (cfiCond188) V3 load(1, XDATA, add(CFA_XSP16, literal(-18)))
          CFI (cfiCond188) V4 load(1, XDATA, add(CFA_XSP16, literal(-17)))
          CFI (cfiCond188) V5 load(1, XDATA, add(CFA_XSP16, literal(-16)))
          CFI (cfiCond188) V6 load(1, XDATA, add(CFA_XSP16, literal(-15)))
          CFI (cfiCond188) V7 load(1, XDATA, add(CFA_XSP16, literal(-14)))
          CFI (cfiCond188) V8 load(1, XDATA, add(CFA_XSP16, literal(-13)))
          CFI (cfiCond188) V9 load(1, XDATA, add(CFA_XSP16, literal(-12)))
          CFI (cfiCond188) V10 load(1, XDATA, add(CFA_XSP16, literal(-11)))
          CFI (cfiCond188) V11 load(1, XDATA, add(CFA_XSP16, literal(-10)))
          CFI (cfiCond188) V12 load(1, XDATA, add(CFA_XSP16, literal(-9)))
          CFI (cfiCond188) V13 load(1, XDATA, add(CFA_XSP16, literal(-8)))
          CFI (cfiCond188) V14 load(1, XDATA, add(CFA_XSP16, literal(-7)))
          CFI (cfiCond188) R7 load(1, XDATA, add(CFA_XSP16, literal(-6)))
          CFI (cfiCond188) ?RET_LOW load(1, XDATA, add(CFA_XSP16, literal(-5)))
          CFI (cfiCond188) ?RET_HIGH load(1, XDATA, add(CFA_XSP16, literal(-4)))
          CFI (cfiCond188) ?BRET_EXT load(1, XDATA, add(CFA_XSP16, literal(-3)))
          CFI (cfiCond188) DPL0 load(1, XDATA, add(CFA_XSP16, literal(-2)))
          CFI (cfiCond188) DPH0 load(1, XDATA, add(CFA_XSP16, literal(-1)))
          CFI (cfiCond188) CFA_SP SP+-2
          CFI (cfiCond188) CFA_XSP16 add(XSP16, 23)
          CFI Block cfiCond189 Using cfiCommon0
          CFI (cfiCond189) Function MT_AfIncomingMsg
          CFI (cfiCond189) Conditional ??CrossCallReturnLabel_118
          CFI (cfiCond189) R6 load(1, XDATA, add(CFA_XSP16, literal(-23)))
          CFI (cfiCond189) VB load(1, XDATA, add(CFA_XSP16, literal(-22)))
          CFI (cfiCond189) V0 load(1, XDATA, add(CFA_XSP16, literal(-21)))
          CFI (cfiCond189) V1 load(1, XDATA, add(CFA_XSP16, literal(-20)))
          CFI (cfiCond189) V2 load(1, XDATA, add(CFA_XSP16, literal(-19)))
          CFI (cfiCond189) V3 load(1, XDATA, add(CFA_XSP16, literal(-18)))
          CFI (cfiCond189) V4 load(1, XDATA, add(CFA_XSP16, literal(-17)))
          CFI (cfiCond189) V5 load(1, XDATA, add(CFA_XSP16, literal(-16)))
          CFI (cfiCond189) V6 load(1, XDATA, add(CFA_XSP16, literal(-15)))
          CFI (cfiCond189) V7 load(1, XDATA, add(CFA_XSP16, literal(-14)))
          CFI (cfiCond189) V8 load(1, XDATA, add(CFA_XSP16, literal(-13)))
          CFI (cfiCond189) V9 load(1, XDATA, add(CFA_XSP16, literal(-12)))
          CFI (cfiCond189) V10 load(1, XDATA, add(CFA_XSP16, literal(-11)))
          CFI (cfiCond189) V11 load(1, XDATA, add(CFA_XSP16, literal(-10)))
          CFI (cfiCond189) V12 load(1, XDATA, add(CFA_XSP16, literal(-9)))
          CFI (cfiCond189) V13 load(1, XDATA, add(CFA_XSP16, literal(-8)))
          CFI (cfiCond189) V14 load(1, XDATA, add(CFA_XSP16, literal(-7)))
          CFI (cfiCond189) R7 load(1, XDATA, add(CFA_XSP16, literal(-6)))
          CFI (cfiCond189) ?RET_LOW load(1, XDATA, add(CFA_XSP16, literal(-5)))
          CFI (cfiCond189) ?RET_HIGH load(1, XDATA, add(CFA_XSP16, literal(-4)))
          CFI (cfiCond189) ?BRET_EXT load(1, XDATA, add(CFA_XSP16, literal(-3)))
          CFI (cfiCond189) DPL0 load(1, XDATA, add(CFA_XSP16, literal(-2)))
          CFI (cfiCond189) DPH0 load(1, XDATA, add(CFA_XSP16, literal(-1)))
          CFI (cfiCond189) CFA_SP SP+-2
          CFI (cfiCond189) CFA_XSP16 add(XSP16, 23)
          CFI Block cfiCond190 Using cfiCommon0
          CFI (cfiCond190) Function MT_AfIncomingMsg
          CFI (cfiCond190) Conditional ??CrossCallReturnLabel_115
          CFI (cfiCond190) R6 load(1, XDATA, add(CFA_XSP16, literal(-23)))
          CFI (cfiCond190) VB load(1, XDATA, add(CFA_XSP16, literal(-22)))
          CFI (cfiCond190) V0 load(1, XDATA, add(CFA_XSP16, literal(-21)))
          CFI (cfiCond190) V1 load(1, XDATA, add(CFA_XSP16, literal(-20)))
          CFI (cfiCond190) V2 load(1, XDATA, add(CFA_XSP16, literal(-19)))
          CFI (cfiCond190) V3 load(1, XDATA, add(CFA_XSP16, literal(-18)))
          CFI (cfiCond190) V4 load(1, XDATA, add(CFA_XSP16, literal(-17)))
          CFI (cfiCond190) V5 load(1, XDATA, add(CFA_XSP16, literal(-16)))
          CFI (cfiCond190) V6 load(1, XDATA, add(CFA_XSP16, literal(-15)))
          CFI (cfiCond190) V7 load(1, XDATA, add(CFA_XSP16, literal(-14)))
          CFI (cfiCond190) V8 load(1, XDATA, add(CFA_XSP16, literal(-13)))
          CFI (cfiCond190) V9 load(1, XDATA, add(CFA_XSP16, literal(-12)))
          CFI (cfiCond190) V10 load(1, XDATA, add(CFA_XSP16, literal(-11)))
          CFI (cfiCond190) V11 load(1, XDATA, add(CFA_XSP16, literal(-10)))
          CFI (cfiCond190) V12 load(1, XDATA, add(CFA_XSP16, literal(-9)))
          CFI (cfiCond190) V13 load(1, XDATA, add(CFA_XSP16, literal(-8)))
          CFI (cfiCond190) V14 load(1, XDATA, add(CFA_XSP16, literal(-7)))
          CFI (cfiCond190) R7 load(1, XDATA, add(CFA_XSP16, literal(-6)))
          CFI (cfiCond190) ?RET_LOW load(1, XDATA, add(CFA_XSP16, literal(-5)))
          CFI (cfiCond190) ?RET_HIGH load(1, XDATA, add(CFA_XSP16, literal(-4)))
          CFI (cfiCond190) ?BRET_EXT load(1, XDATA, add(CFA_XSP16, literal(-3)))
          CFI (cfiCond190) DPL0 load(1, XDATA, add(CFA_XSP16, literal(-2)))
          CFI (cfiCond190) DPH0 load(1, XDATA, add(CFA_XSP16, literal(-1)))
          CFI (cfiCond190) CFA_SP SP+-2
          CFI (cfiCond190) CFA_XSP16 add(XSP16, 23)
          CFI Block cfiCond191 Using cfiCommon0
          CFI (cfiCond191) Function MT_AfIncomingMsg
          CFI (cfiCond191) Conditional ??CrossCallReturnLabel_113
          CFI (cfiCond191) R6 load(1, XDATA, add(CFA_XSP16, literal(-23)))
          CFI (cfiCond191) VB load(1, XDATA, add(CFA_XSP16, literal(-22)))
          CFI (cfiCond191) V0 load(1, XDATA, add(CFA_XSP16, literal(-21)))
          CFI (cfiCond191) V1 load(1, XDATA, add(CFA_XSP16, literal(-20)))
          CFI (cfiCond191) V2 load(1, XDATA, add(CFA_XSP16, literal(-19)))
          CFI (cfiCond191) V3 load(1, XDATA, add(CFA_XSP16, literal(-18)))
          CFI (cfiCond191) V4 load(1, XDATA, add(CFA_XSP16, literal(-17)))
          CFI (cfiCond191) V5 load(1, XDATA, add(CFA_XSP16, literal(-16)))
          CFI (cfiCond191) V6 load(1, XDATA, add(CFA_XSP16, literal(-15)))
          CFI (cfiCond191) V7 load(1, XDATA, add(CFA_XSP16, literal(-14)))
          CFI (cfiCond191) V8 load(1, XDATA, add(CFA_XSP16, literal(-13)))
          CFI (cfiCond191) V9 load(1, XDATA, add(CFA_XSP16, literal(-12)))
          CFI (cfiCond191) V10 load(1, XDATA, add(CFA_XSP16, literal(-11)))
          CFI (cfiCond191) V11 load(1, XDATA, add(CFA_XSP16, literal(-10)))
          CFI (cfiCond191) V12 load(1, XDATA, add(CFA_XSP16, literal(-9)))
          CFI (cfiCond191) V13 load(1, XDATA, add(CFA_XSP16, literal(-8)))
          CFI (cfiCond191) V14 load(1, XDATA, add(CFA_XSP16, literal(-7)))
          CFI (cfiCond191) R7 load(1, XDATA, add(CFA_XSP16, literal(-6)))
          CFI (cfiCond191) ?RET_LOW load(1, XDATA, add(CFA_XSP16, literal(-5)))
          CFI (cfiCond191) ?RET_HIGH load(1, XDATA, add(CFA_XSP16, literal(-4)))
          CFI (cfiCond191) ?BRET_EXT load(1, XDATA, add(CFA_XSP16, literal(-3)))
          CFI (cfiCond191) DPL0 load(1, XDATA, add(CFA_XSP16, literal(-2)))
          CFI (cfiCond191) DPH0 load(1, XDATA, add(CFA_XSP16, literal(-1)))
          CFI (cfiCond191) CFA_SP SP+-2
          CFI (cfiCond191) CFA_XSP16 add(XSP16, 23)
          CFI Block cfiCond192 Using cfiCommon0
          CFI (cfiCond192) Function MT_AfIncomingMsg
          CFI (cfiCond192) Conditional ??CrossCallReturnLabel_114
          CFI (cfiCond192) R6 load(1, XDATA, add(CFA_XSP16, literal(-23)))
          CFI (cfiCond192) VB load(1, XDATA, add(CFA_XSP16, literal(-22)))
          CFI (cfiCond192) V0 load(1, XDATA, add(CFA_XSP16, literal(-21)))
          CFI (cfiCond192) V1 load(1, XDATA, add(CFA_XSP16, literal(-20)))
          CFI (cfiCond192) V2 load(1, XDATA, add(CFA_XSP16, literal(-19)))
          CFI (cfiCond192) V3 load(1, XDATA, add(CFA_XSP16, literal(-18)))
          CFI (cfiCond192) V4 load(1, XDATA, add(CFA_XSP16, literal(-17)))
          CFI (cfiCond192) V5 load(1, XDATA, add(CFA_XSP16, literal(-16)))
          CFI (cfiCond192) V6 load(1, XDATA, add(CFA_XSP16, literal(-15)))
          CFI (cfiCond192) V7 load(1, XDATA, add(CFA_XSP16, literal(-14)))
          CFI (cfiCond192) V8 load(1, XDATA, add(CFA_XSP16, literal(-13)))
          CFI (cfiCond192) V9 load(1, XDATA, add(CFA_XSP16, literal(-12)))
          CFI (cfiCond192) V10 load(1, XDATA, add(CFA_XSP16, literal(-11)))
          CFI (cfiCond192) V11 load(1, XDATA, add(CFA_XSP16, literal(-10)))
          CFI (cfiCond192) V12 load(1, XDATA, add(CFA_XSP16, literal(-9)))
          CFI (cfiCond192) V13 load(1, XDATA, add(CFA_XSP16, literal(-8)))
          CFI (cfiCond192) V14 load(1, XDATA, add(CFA_XSP16, literal(-7)))
          CFI (cfiCond192) R7 load(1, XDATA, add(CFA_XSP16, literal(-6)))
          CFI (cfiCond192) ?RET_LOW load(1, XDATA, add(CFA_XSP16, literal(-5)))
          CFI (cfiCond192) ?RET_HIGH load(1, XDATA, add(CFA_XSP16, literal(-4)))
          CFI (cfiCond192) ?BRET_EXT load(1, XDATA, add(CFA_XSP16, literal(-3)))
          CFI (cfiCond192) DPL0 load(1, XDATA, add(CFA_XSP16, literal(-2)))
          CFI (cfiCond192) DPH0 load(1, XDATA, add(CFA_XSP16, literal(-1)))
          CFI (cfiCond192) CFA_SP SP+-2
          CFI (cfiCond192) CFA_XSP16 add(XSP16, 23)
          CFI Block cfiPicker193 Using cfiCommon1
          CFI (cfiPicker193) NoFunction
          CFI (cfiPicker193) Picker
        LCALL   ?Subroutine36 & 0xFFFF
??CrossCallReturnLabel_120:
        MOV     A,?V8
        RET
          CFI EndBlock cfiCond187
          CFI EndBlock cfiCond188
          CFI EndBlock cfiCond189
          CFI EndBlock cfiCond190
          CFI EndBlock cfiCond191
          CFI EndBlock cfiCond192
          CFI EndBlock cfiPicker193

        RSEG BANKED_CODE:CODE:NOROOT(0)
?Subroutine36:
          CFI Block cfiCond194 Using cfiCommon0
          CFI Function MT_AfIncomingMsg
          CFI Conditional ??CrossCallReturnLabel_119, ??CrossCallReturnLabel_7
          CFI R6 load(1, XDATA, add(CFA_XSP16, literal(-23)))
          CFI VB load(1, XDATA, add(CFA_XSP16, literal(-22)))
          CFI V0 load(1, XDATA, add(CFA_XSP16, literal(-21)))
          CFI V1 load(1, XDATA, add(CFA_XSP16, literal(-20)))
          CFI V2 load(1, XDATA, add(CFA_XSP16, literal(-19)))
          CFI V3 load(1, XDATA, add(CFA_XSP16, literal(-18)))
          CFI V4 load(1, XDATA, add(CFA_XSP16, literal(-17)))
          CFI V5 load(1, XDATA, add(CFA_XSP16, literal(-16)))
          CFI V6 load(1, XDATA, add(CFA_XSP16, literal(-15)))
          CFI V7 load(1, XDATA, add(CFA_XSP16, literal(-14)))
          CFI V8 load(1, XDATA, add(CFA_XSP16, literal(-13)))
          CFI V9 load(1, XDATA, add(CFA_XSP16, literal(-12)))
          CFI V10 load(1, XDATA, add(CFA_XSP16, literal(-11)))
          CFI V11 load(1, XDATA, add(CFA_XSP16, literal(-10)))
          CFI V12 load(1, XDATA, add(CFA_XSP16, literal(-9)))
          CFI V13 load(1, XDATA, add(CFA_XSP16, literal(-8)))
          CFI V14 load(1, XDATA, add(CFA_XSP16, literal(-7)))
          CFI R7 load(1, XDATA, add(CFA_XSP16, literal(-6)))
          CFI ?RET_LOW load(1, XDATA, add(CFA_XSP16, literal(-5)))
          CFI ?RET_HIGH load(1, XDATA, add(CFA_XSP16, literal(-4)))
          CFI ?BRET_EXT load(1, XDATA, add(CFA_XSP16, literal(-3)))
          CFI DPL0 load(1, XDATA, add(CFA_XSP16, literal(-2)))
          CFI DPH0 load(1, XDATA, add(CFA_XSP16, literal(-1)))
          CFI CFA_SP SP+-4
          CFI CFA_XSP16 add(XSP16, 23)
          CFI Block cfiCond195 Using cfiCommon0
          CFI (cfiCond195) Function MT_AfIncomingMsg
          CFI (cfiCond195) Conditional ??CrossCallReturnLabel_119, ??CrossCallReturnLabel_8
          CFI (cfiCond195) R6 load(1, XDATA, add(CFA_XSP16, literal(-23)))
          CFI (cfiCond195) VB load(1, XDATA, add(CFA_XSP16, literal(-22)))
          CFI (cfiCond195) V0 load(1, XDATA, add(CFA_XSP16, literal(-21)))
          CFI (cfiCond195) V1 load(1, XDATA, add(CFA_XSP16, literal(-20)))
          CFI (cfiCond195) V2 load(1, XDATA, add(CFA_XSP16, literal(-19)))
          CFI (cfiCond195) V3 load(1, XDATA, add(CFA_XSP16, literal(-18)))
          CFI (cfiCond195) V4 load(1, XDATA, add(CFA_XSP16, literal(-17)))
          CFI (cfiCond195) V5 load(1, XDATA, add(CFA_XSP16, literal(-16)))
          CFI (cfiCond195) V6 load(1, XDATA, add(CFA_XSP16, literal(-15)))
          CFI (cfiCond195) V7 load(1, XDATA, add(CFA_XSP16, literal(-14)))
          CFI (cfiCond195) V8 load(1, XDATA, add(CFA_XSP16, literal(-13)))
          CFI (cfiCond195) V9 load(1, XDATA, add(CFA_XSP16, literal(-12)))
          CFI (cfiCond195) V10 load(1, XDATA, add(CFA_XSP16, literal(-11)))
          CFI (cfiCond195) V11 load(1, XDATA, add(CFA_XSP16, literal(-10)))
          CFI (cfiCond195) V12 load(1, XDATA, add(CFA_XSP16, literal(-9)))
          CFI (cfiCond195) V13 load(1, XDATA, add(CFA_XSP16, literal(-8)))
          CFI (cfiCond195) V14 load(1, XDATA, add(CFA_XSP16, literal(-7)))
          CFI (cfiCond195) R7 load(1, XDATA, add(CFA_XSP16, literal(-6)))
          CFI (cfiCond195) ?RET_LOW load(1, XDATA, add(CFA_XSP16, literal(-5)))
          CFI (cfiCond195) ?RET_HIGH load(1, XDATA, add(CFA_XSP16, literal(-4)))
          CFI (cfiCond195) ?BRET_EXT load(1, XDATA, add(CFA_XSP16, literal(-3)))
          CFI (cfiCond195) DPL0 load(1, XDATA, add(CFA_XSP16, literal(-2)))
          CFI (cfiCond195) DPH0 load(1, XDATA, add(CFA_XSP16, literal(-1)))
          CFI (cfiCond195) CFA_SP SP+-4
          CFI (cfiCond195) CFA_XSP16 add(XSP16, 23)
          CFI Block cfiCond196 Using cfiCommon0
          CFI (cfiCond196) Function MT_AfIncomingMsg
          CFI (cfiCond196) Conditional ??CrossCallReturnLabel_120, ??CrossCallReturnLabel_113
          CFI (cfiCond196) R6 load(1, XDATA, add(CFA_XSP16, literal(-23)))
          CFI (cfiCond196) VB load(1, XDATA, add(CFA_XSP16, literal(-22)))
          CFI (cfiCond196) V0 load(1, XDATA, add(CFA_XSP16, literal(-21)))
          CFI (cfiCond196) V1 load(1, XDATA, add(CFA_XSP16, literal(-20)))
          CFI (cfiCond196) V2 load(1, XDATA, add(CFA_XSP16, literal(-19)))
          CFI (cfiCond196) V3 load(1, XDATA, add(CFA_XSP16, literal(-18)))
          CFI (cfiCond196) V4 load(1, XDATA, add(CFA_XSP16, literal(-17)))
          CFI (cfiCond196) V5 load(1, XDATA, add(CFA_XSP16, literal(-16)))
          CFI (cfiCond196) V6 load(1, XDATA, add(CFA_XSP16, literal(-15)))
          CFI (cfiCond196) V7 load(1, XDATA, add(CFA_XSP16, literal(-14)))
          CFI (cfiCond196) V8 load(1, XDATA, add(CFA_XSP16, literal(-13)))
          CFI (cfiCond196) V9 load(1, XDATA, add(CFA_XSP16, literal(-12)))
          CFI (cfiCond196) V10 load(1, XDATA, add(CFA_XSP16, literal(-11)))
          CFI (cfiCond196) V11 load(1, XDATA, add(CFA_XSP16, literal(-10)))
          CFI (cfiCond196) V12 load(1, XDATA, add(CFA_XSP16, literal(-9)))
          CFI (cfiCond196) V13 load(1, XDATA, add(CFA_XSP16, literal(-8)))
          CFI (cfiCond196) V14 load(1, XDATA, add(CFA_XSP16, literal(-7)))
          CFI (cfiCond196) R7 load(1, XDATA, add(CFA_XSP16, literal(-6)))
          CFI (cfiCond196) ?RET_LOW load(1, XDATA, add(CFA_XSP16, literal(-5)))
          CFI (cfiCond196) ?RET_HIGH load(1, XDATA, add(CFA_XSP16, literal(-4)))
          CFI (cfiCond196) ?BRET_EXT load(1, XDATA, add(CFA_XSP16, literal(-3)))
          CFI (cfiCond196) DPL0 load(1, XDATA, add(CFA_XSP16, literal(-2)))
          CFI (cfiCond196) DPH0 load(1, XDATA, add(CFA_XSP16, literal(-1)))
          CFI (cfiCond196) CFA_SP SP+-4
          CFI (cfiCond196) CFA_XSP16 add(XSP16, 23)
          CFI Block cfiCond197 Using cfiCommon0
          CFI (cfiCond197) Function MT_AfIncomingMsg
          CFI (cfiCond197) Conditional ??CrossCallReturnLabel_120, ??CrossCallReturnLabel_114
          CFI (cfiCond197) R6 load(1, XDATA, add(CFA_XSP16, literal(-23)))
          CFI (cfiCond197) VB load(1, XDATA, add(CFA_XSP16, literal(-22)))
          CFI (cfiCond197) V0 load(1, XDATA, add(CFA_XSP16, literal(-21)))
          CFI (cfiCond197) V1 load(1, XDATA, add(CFA_XSP16, literal(-20)))
          CFI (cfiCond197) V2 load(1, XDATA, add(CFA_XSP16, literal(-19)))
          CFI (cfiCond197) V3 load(1, XDATA, add(CFA_XSP16, literal(-18)))
          CFI (cfiCond197) V4 load(1, XDATA, add(CFA_XSP16, literal(-17)))
          CFI (cfiCond197) V5 load(1, XDATA, add(CFA_XSP16, literal(-16)))
          CFI (cfiCond197) V6 load(1, XDATA, add(CFA_XSP16, literal(-15)))
          CFI (cfiCond197) V7 load(1, XDATA, add(CFA_XSP16, literal(-14)))
          CFI (cfiCond197) V8 load(1, XDATA, add(CFA_XSP16, literal(-13)))
          CFI (cfiCond197) V9 load(1, XDATA, add(CFA_XSP16, literal(-12)))
          CFI (cfiCond197) V10 load(1, XDATA, add(CFA_XSP16, literal(-11)))
          CFI (cfiCond197) V11 load(1, XDATA, add(CFA_XSP16, literal(-10)))
          CFI (cfiCond197) V12 load(1, XDATA, add(CFA_XSP16, literal(-9)))
          CFI (cfiCond197) V13 load(1, XDATA, add(CFA_XSP16, literal(-8)))
          CFI (cfiCond197) V14 load(1, XDATA, add(CFA_XSP16, literal(-7)))
          CFI (cfiCond197) R7 load(1, XDATA, add(CFA_XSP16, literal(-6)))
          CFI (cfiCond197) ?RET_LOW load(1, XDATA, add(CFA_XSP16, literal(-5)))
          CFI (cfiCond197) ?RET_HIGH load(1, XDATA, add(CFA_XSP16, literal(-4)))
          CFI (cfiCond197) ?BRET_EXT load(1, XDATA, add(CFA_XSP16, literal(-3)))
          CFI (cfiCond197) DPL0 load(1, XDATA, add(CFA_XSP16, literal(-2)))
          CFI (cfiCond197) DPH0 load(1, XDATA, add(CFA_XSP16, literal(-1)))
          CFI (cfiCond197) CFA_SP SP+-4
          CFI (cfiCond197) CFA_XSP16 add(XSP16, 23)
          CFI Block cfiCond198 Using cfiCommon0
          CFI (cfiCond198) Function MT_AfIncomingMsg
          CFI (cfiCond198) Conditional ??CrossCallReturnLabel_120, ??CrossCallReturnLabel_115
          CFI (cfiCond198) R6 load(1, XDATA, add(CFA_XSP16, literal(-23)))
          CFI (cfiCond198) VB load(1, XDATA, add(CFA_XSP16, literal(-22)))
          CFI (cfiCond198) V0 load(1, XDATA, add(CFA_XSP16, literal(-21)))
          CFI (cfiCond198) V1 load(1, XDATA, add(CFA_XSP16, literal(-20)))
          CFI (cfiCond198) V2 load(1, XDATA, add(CFA_XSP16, literal(-19)))
          CFI (cfiCond198) V3 load(1, XDATA, add(CFA_XSP16, literal(-18)))
          CFI (cfiCond198) V4 load(1, XDATA, add(CFA_XSP16, literal(-17)))
          CFI (cfiCond198) V5 load(1, XDATA, add(CFA_XSP16, literal(-16)))
          CFI (cfiCond198) V6 load(1, XDATA, add(CFA_XSP16, literal(-15)))
          CFI (cfiCond198) V7 load(1, XDATA, add(CFA_XSP16, literal(-14)))
          CFI (cfiCond198) V8 load(1, XDATA, add(CFA_XSP16, literal(-13)))
          CFI (cfiCond198) V9 load(1, XDATA, add(CFA_XSP16, literal(-12)))
          CFI (cfiCond198) V10 load(1, XDATA, add(CFA_XSP16, literal(-11)))
          CFI (cfiCond198) V11 load(1, XDATA, add(CFA_XSP16, literal(-10)))
          CFI (cfiCond198) V12 load(1, XDATA, add(CFA_XSP16, literal(-9)))
          CFI (cfiCond198) V13 load(1, XDATA, add(CFA_XSP16, literal(-8)))
          CFI (cfiCond198) V14 load(1, XDATA, add(CFA_XSP16, literal(-7)))
          CFI (cfiCond198) R7 load(1, XDATA, add(CFA_XSP16, literal(-6)))
          CFI (cfiCond198) ?RET_LOW load(1, XDATA, add(CFA_XSP16, literal(-5)))
          CFI (cfiCond198) ?RET_HIGH load(1, XDATA, add(CFA_XSP16, literal(-4)))
          CFI (cfiCond198) ?BRET_EXT load(1, XDATA, add(CFA_XSP16, literal(-3)))
          CFI (cfiCond198) DPL0 load(1, XDATA, add(CFA_XSP16, literal(-2)))
          CFI (cfiCond198) DPH0 load(1, XDATA, add(CFA_XSP16, literal(-1)))
          CFI (cfiCond198) CFA_SP SP+-4
          CFI (cfiCond198) CFA_XSP16 add(XSP16, 23)
          CFI Block cfiCond199 Using cfiCommon0
          CFI (cfiCond199) Function MT_AfIncomingMsg
          CFI (cfiCond199) Conditional ??CrossCallReturnLabel_120, ??CrossCallReturnLabel_116
          CFI (cfiCond199) R6 load(1, XDATA, add(CFA_XSP16, literal(-23)))
          CFI (cfiCond199) VB load(1, XDATA, add(CFA_XSP16, literal(-22)))
          CFI (cfiCond199) V0 load(1, XDATA, add(CFA_XSP16, literal(-21)))
          CFI (cfiCond199) V1 load(1, XDATA, add(CFA_XSP16, literal(-20)))
          CFI (cfiCond199) V2 load(1, XDATA, add(CFA_XSP16, literal(-19)))
          CFI (cfiCond199) V3 load(1, XDATA, add(CFA_XSP16, literal(-18)))
          CFI (cfiCond199) V4 load(1, XDATA, add(CFA_XSP16, literal(-17)))
          CFI (cfiCond199) V5 load(1, XDATA, add(CFA_XSP16, literal(-16)))
          CFI (cfiCond199) V6 load(1, XDATA, add(CFA_XSP16, literal(-15)))
          CFI (cfiCond199) V7 load(1, XDATA, add(CFA_XSP16, literal(-14)))
          CFI (cfiCond199) V8 load(1, XDATA, add(CFA_XSP16, literal(-13)))
          CFI (cfiCond199) V9 load(1, XDATA, add(CFA_XSP16, literal(-12)))
          CFI (cfiCond199) V10 load(1, XDATA, add(CFA_XSP16, literal(-11)))
          CFI (cfiCond199) V11 load(1, XDATA, add(CFA_XSP16, literal(-10)))
          CFI (cfiCond199) V12 load(1, XDATA, add(CFA_XSP16, literal(-9)))
          CFI (cfiCond199) V13 load(1, XDATA, add(CFA_XSP16, literal(-8)))
          CFI (cfiCond199) V14 load(1, XDATA, add(CFA_XSP16, literal(-7)))
          CFI (cfiCond199) R7 load(1, XDATA, add(CFA_XSP16, literal(-6)))
          CFI (cfiCond199) ?RET_LOW load(1, XDATA, add(CFA_XSP16, literal(-5)))
          CFI (cfiCond199) ?RET_HIGH load(1, XDATA, add(CFA_XSP16, literal(-4)))
          CFI (cfiCond199) ?BRET_EXT load(1, XDATA, add(CFA_XSP16, literal(-3)))
          CFI (cfiCond199) DPL0 load(1, XDATA, add(CFA_XSP16, literal(-2)))
          CFI (cfiCond199) DPH0 load(1, XDATA, add(CFA_XSP16, literal(-1)))
          CFI (cfiCond199) CFA_SP SP+-4
          CFI (cfiCond199) CFA_XSP16 add(XSP16, 23)
          CFI Block cfiCond200 Using cfiCommon0
          CFI (cfiCond200) Function MT_AfIncomingMsg
          CFI (cfiCond200) Conditional ??CrossCallReturnLabel_120, ??CrossCallReturnLabel_117
          CFI (cfiCond200) R6 load(1, XDATA, add(CFA_XSP16, literal(-23)))
          CFI (cfiCond200) VB load(1, XDATA, add(CFA_XSP16, literal(-22)))
          CFI (cfiCond200) V0 load(1, XDATA, add(CFA_XSP16, literal(-21)))
          CFI (cfiCond200) V1 load(1, XDATA, add(CFA_XSP16, literal(-20)))
          CFI (cfiCond200) V2 load(1, XDATA, add(CFA_XSP16, literal(-19)))
          CFI (cfiCond200) V3 load(1, XDATA, add(CFA_XSP16, literal(-18)))
          CFI (cfiCond200) V4 load(1, XDATA, add(CFA_XSP16, literal(-17)))
          CFI (cfiCond200) V5 load(1, XDATA, add(CFA_XSP16, literal(-16)))
          CFI (cfiCond200) V6 load(1, XDATA, add(CFA_XSP16, literal(-15)))
          CFI (cfiCond200) V7 load(1, XDATA, add(CFA_XSP16, literal(-14)))
          CFI (cfiCond200) V8 load(1, XDATA, add(CFA_XSP16, literal(-13)))
          CFI (cfiCond200) V9 load(1, XDATA, add(CFA_XSP16, literal(-12)))
          CFI (cfiCond200) V10 load(1, XDATA, add(CFA_XSP16, literal(-11)))
          CFI (cfiCond200) V11 load(1, XDATA, add(CFA_XSP16, literal(-10)))
          CFI (cfiCond200) V12 load(1, XDATA, add(CFA_XSP16, literal(-9)))
          CFI (cfiCond200) V13 load(1, XDATA, add(CFA_XSP16, literal(-8)))
          CFI (cfiCond200) V14 load(1, XDATA, add(CFA_XSP16, literal(-7)))
          CFI (cfiCond200) R7 load(1, XDATA, add(CFA_XSP16, literal(-6)))
          CFI (cfiCond200) ?RET_LOW load(1, XDATA, add(CFA_XSP16, literal(-5)))
          CFI (cfiCond200) ?RET_HIGH load(1, XDATA, add(CFA_XSP16, literal(-4)))
          CFI (cfiCond200) ?BRET_EXT load(1, XDATA, add(CFA_XSP16, literal(-3)))
          CFI (cfiCond200) DPL0 load(1, XDATA, add(CFA_XSP16, literal(-2)))
          CFI (cfiCond200) DPH0 load(1, XDATA, add(CFA_XSP16, literal(-1)))
          CFI (cfiCond200) CFA_SP SP+-4
          CFI (cfiCond200) CFA_XSP16 add(XSP16, 23)
          CFI Block cfiCond201 Using cfiCommon0
          CFI (cfiCond201) Function MT_AfIncomingMsg
          CFI (cfiCond201) Conditional ??CrossCallReturnLabel_120, ??CrossCallReturnLabel_118
          CFI (cfiCond201) R6 load(1, XDATA, add(CFA_XSP16, literal(-23)))
          CFI (cfiCond201) VB load(1, XDATA, add(CFA_XSP16, literal(-22)))
          CFI (cfiCond201) V0 load(1, XDATA, add(CFA_XSP16, literal(-21)))
          CFI (cfiCond201) V1 load(1, XDATA, add(CFA_XSP16, literal(-20)))
          CFI (cfiCond201) V2 load(1, XDATA, add(CFA_XSP16, literal(-19)))
          CFI (cfiCond201) V3 load(1, XDATA, add(CFA_XSP16, literal(-18)))
          CFI (cfiCond201) V4 load(1, XDATA, add(CFA_XSP16, literal(-17)))
          CFI (cfiCond201) V5 load(1, XDATA, add(CFA_XSP16, literal(-16)))
          CFI (cfiCond201) V6 load(1, XDATA, add(CFA_XSP16, literal(-15)))
          CFI (cfiCond201) V7 load(1, XDATA, add(CFA_XSP16, literal(-14)))
          CFI (cfiCond201) V8 load(1, XDATA, add(CFA_XSP16, literal(-13)))
          CFI (cfiCond201) V9 load(1, XDATA, add(CFA_XSP16, literal(-12)))
          CFI (cfiCond201) V10 load(1, XDATA, add(CFA_XSP16, literal(-11)))
          CFI (cfiCond201) V11 load(1, XDATA, add(CFA_XSP16, literal(-10)))
          CFI (cfiCond201) V12 load(1, XDATA, add(CFA_XSP16, literal(-9)))
          CFI (cfiCond201) V13 load(1, XDATA, add(CFA_XSP16, literal(-8)))
          CFI (cfiCond201) V14 load(1, XDATA, add(CFA_XSP16, literal(-7)))
          CFI (cfiCond201) R7 load(1, XDATA, add(CFA_XSP16, literal(-6)))
          CFI (cfiCond201) ?RET_LOW load(1, XDATA, add(CFA_XSP16, literal(-5)))
          CFI (cfiCond201) ?RET_HIGH load(1, XDATA, add(CFA_XSP16, literal(-4)))
          CFI (cfiCond201) ?BRET_EXT load(1, XDATA, add(CFA_XSP16, literal(-3)))
          CFI (cfiCond201) DPL0 load(1, XDATA, add(CFA_XSP16, literal(-2)))
          CFI (cfiCond201) DPH0 load(1, XDATA, add(CFA_XSP16, literal(-1)))
          CFI (cfiCond201) CFA_SP SP+-4
          CFI (cfiCond201) CFA_XSP16 add(XSP16, 23)
          CFI Block cfiPicker202 Using cfiCommon1
          CFI (cfiPicker202) NoFunction
          CFI (cfiPicker202) Picker
        LCALL   ?Subroutine43 & 0xFFFF
??CrossCallReturnLabel_123:
        INC     DPTR
        INC     R6
        MOV     R7,DPH
        RET
          CFI EndBlock cfiCond194
          CFI EndBlock cfiCond195
          CFI EndBlock cfiCond196
          CFI EndBlock cfiCond197
          CFI EndBlock cfiCond198
          CFI EndBlock cfiCond199
          CFI EndBlock cfiCond200
          CFI EndBlock cfiCond201
          CFI EndBlock cfiPicker202
//  838 
//  839 /**************************************************************************************************
//  840  * @fn          MT_AfDataRetrieve
//  841  *
//  842  * @brief   Process AF Data Retrieve command to incrementally read out a very large
//  843  *          incoming AF message.
//  844  *
//  845  * input parameters
//  846  *
//  847  * @param pBuf - pointer to the received buffer
//  848  *
//  849  * output parameters
//  850  *
//  851  * @param rtrn - AF-Status of the operation.
//  852  *
//  853  * @return      None.
//  854  **************************************************************************************************
//  855  */

        RSEG BANKED_CODE:CODE:NOROOT(0)
//  856 void MT_AfDataRetrieve(uint8 *pBuf)
MT_AfDataRetrieve:
          CFI Block cfiBlock203 Using cfiCommon0
          CFI Function MT_AfDataRetrieve
        CODE
//  857 {
        FUNCALL MT_AfDataRetrieve, osal_mem_free
        LOCFRAME ISTACK, 0, STACK
        LOCFRAME PSTACK, 0, STACK
        LOCFRAME XSTACK, 21, STACK
        LOCFRAME IOVERLAY, 0, STATIC
        LOCFRAME DOVERLAY, 0, STATIC
        ARGFRAME ISTACK, 0, STACK
        ARGFRAME PSTACK, 0, STACK
        ARGFRAME XSTACK, 21, STACK
        ARGFRAME IOVERLAY, 0, STATIC
        ARGFRAME DOVERLAY, 0, STATIC
        FUNCALL MT_AfDataRetrieve, MT_BuildAndSendZToolResponse
        LOCFRAME ISTACK, 0, STACK
        LOCFRAME PSTACK, 0, STACK
        LOCFRAME XSTACK, 21, STACK
        LOCFRAME IOVERLAY, 0, STATIC
        LOCFRAME DOVERLAY, 0, STATIC
        ARGFRAME ISTACK, 0, STACK
        ARGFRAME PSTACK, 0, STACK
        ARGFRAME XSTACK, 21, STACK
        ARGFRAME IOVERLAY, 0, STATIC
        ARGFRAME DOVERLAY, 0, STATIC
        FUNCALL MT_AfDataRetrieve, osal_mem_alloc
        LOCFRAME ISTACK, 0, STACK
        LOCFRAME PSTACK, 0, STACK
        LOCFRAME XSTACK, 21, STACK
        LOCFRAME IOVERLAY, 0, STATIC
        LOCFRAME DOVERLAY, 0, STATIC
        ARGFRAME ISTACK, 0, STACK
        ARGFRAME PSTACK, 0, STACK
        ARGFRAME XSTACK, 21, STACK
        ARGFRAME IOVERLAY, 0, STATIC
        ARGFRAME DOVERLAY, 0, STATIC
        FUNCALL MT_AfDataRetrieve, osal_memcpy
        LOCFRAME ISTACK, 0, STACK
        LOCFRAME PSTACK, 0, STACK
        LOCFRAME XSTACK, 24, STACK
        LOCFRAME IOVERLAY, 0, STATIC
        LOCFRAME DOVERLAY, 0, STATIC
        ARGFRAME ISTACK, 0, STACK
        ARGFRAME PSTACK, 0, STACK
        ARGFRAME XSTACK, 24, STACK
        ARGFRAME IOVERLAY, 0, STATIC
        ARGFRAME DOVERLAY, 0, STATIC
        FUNCALL MT_AfDataRetrieve, MT_BuildAndSendZToolResponse
        LOCFRAME ISTACK, 0, STACK
        LOCFRAME PSTACK, 0, STACK
        LOCFRAME XSTACK, 21, STACK
        LOCFRAME IOVERLAY, 0, STATIC
        LOCFRAME DOVERLAY, 0, STATIC
        ARGFRAME ISTACK, 0, STACK
        ARGFRAME PSTACK, 0, STACK
        ARGFRAME XSTACK, 21, STACK
        ARGFRAME IOVERLAY, 0, STATIC
        ARGFRAME DOVERLAY, 0, STATIC
        FUNCALL MT_AfDataRetrieve, osal_mem_free
        LOCFRAME ISTACK, 0, STACK
        LOCFRAME PSTACK, 0, STACK
        LOCFRAME XSTACK, 21, STACK
        LOCFRAME IOVERLAY, 0, STATIC
        LOCFRAME DOVERLAY, 0, STATIC
        ARGFRAME ISTACK, 0, STACK
        ARGFRAME PSTACK, 0, STACK
        ARGFRAME XSTACK, 21, STACK
        ARGFRAME IOVERLAY, 0, STATIC
        ARGFRAME DOVERLAY, 0, STATIC
        REQUIRE ?V0
        REQUIRE ?V1
        REQUIRE ?V2
        REQUIRE ?V3
        REQUIRE ?V4
        REQUIRE ?V5
        REQUIRE ?V6
        REQUIRE ?V7
        REQUIRE ?V8
        REQUIRE ?V9
        REQUIRE ?V10
        REQUIRE ?V11
        REQUIRE ?V12
        MOV     A,#-0x15
        LCALL   ?BANKED_ENTER_XDATA
          CFI DPH0 load(1, XDATA, add(CFA_XSP16, literal(-1)))
          CFI DPL0 load(1, XDATA, add(CFA_XSP16, literal(-2)))
          CFI ?BRET_EXT load(1, XDATA, add(CFA_XSP16, literal(-3)))
          CFI ?RET_HIGH load(1, XDATA, add(CFA_XSP16, literal(-4)))
          CFI ?RET_LOW load(1, XDATA, add(CFA_XSP16, literal(-5)))
          CFI R7 load(1, XDATA, add(CFA_XSP16, literal(-6)))
          CFI V12 load(1, XDATA, add(CFA_XSP16, literal(-7)))
          CFI V11 load(1, XDATA, add(CFA_XSP16, literal(-8)))
          CFI V10 load(1, XDATA, add(CFA_XSP16, literal(-9)))
          CFI V9 load(1, XDATA, add(CFA_XSP16, literal(-10)))
          CFI V8 load(1, XDATA, add(CFA_XSP16, literal(-11)))
          CFI V7 load(1, XDATA, add(CFA_XSP16, literal(-12)))
          CFI V6 load(1, XDATA, add(CFA_XSP16, literal(-13)))
          CFI V5 load(1, XDATA, add(CFA_XSP16, literal(-14)))
          CFI V4 load(1, XDATA, add(CFA_XSP16, literal(-15)))
          CFI V3 load(1, XDATA, add(CFA_XSP16, literal(-16)))
          CFI V2 load(1, XDATA, add(CFA_XSP16, literal(-17)))
          CFI V1 load(1, XDATA, add(CFA_XSP16, literal(-18)))
          CFI V0 load(1, XDATA, add(CFA_XSP16, literal(-19)))
          CFI VB load(1, XDATA, add(CFA_XSP16, literal(-20)))
          CFI R6 load(1, XDATA, add(CFA_XSP16, literal(-21)))
          CFI CFA_SP SP+0
          CFI CFA_XSP16 add(XSP16, 21)
        ; Saved register size: 21
        ; Auto size: 0
        MOV     ?V0,R2
        MOV     ?V1,R3
//  858   #define MT_AF_RTV_HDR_SZ  2
//  859 
//  860   uint32 timestamp;
//  861   mtAfInMsgList_t *pPrev, *pItem = pMtAfInMsgList;
        MOV     DPTR,#pMtAfInMsgList
        LCALL   ?Subroutine15 & 0xFFFF
//  862   uint8 rtrn = afStatus_FAILED;
??CrossCallReturnLabel_23:
        MOV     R2,#0x1
//  863   uint8 len = 0;
        MOV     ?V12,#0x0
//  864 
//  865   pBuf += MT_RPC_FRAME_HDR_SZ;
        MOV     A,?V0
        ADD     A,#0x3
        MOV     ?V0,A
        JNC     ??MT_AfDataRetrieve_0
        INC     ?V1
//  866   timestamp = BUILD_UINT32(pBuf[0], pBuf[1], pBuf[2], pBuf[3]);
??MT_AfDataRetrieve_0:
        MOV     DPL,A
        MOV     DPH,?V1
        MOVX    A,@DPTR
        MOV     ?V4,A
        CLR     A
        MOV     ?V5,A
        MOV     ?V6,A
        MOV     ?V7,A
        INC     DPTR
        MOVX    A,@DPTR
        MOV     ?V8,A
        CLR     A
        MOV     ?V9,A
        MOV     ?V10,A
        MOV     ?V11,A
        MOV     A,#0x8
        MOV     R0,#?V8
        LCALL   ?L_SHL
        MOV     R0,#?V4
        MOV     R1,#?V8
        LCALL   ?L_ADD
        MOV     DPL,?V0
        MOV     DPH,?V1
        INC     DPTR
        INC     DPTR
        MOVX    A,@DPTR
        MOV     ?V8,A
        CLR     A
        MOV     ?V9,A
        MOV     A,#0x10
        MOV     R0,#?V8
        LCALL   ?L_SHL
        MOV     R0,#?V4
        MOV     R1,#?V8
        LCALL   ?L_ADD
        MOV     DPL,?V0
        MOV     DPH,?V1
        INC     DPTR
        INC     DPTR
        INC     DPTR
        MOVX    A,@DPTR
        MOV     ?V8,A
        CLR     A
        MOV     ?V10,A
        MOV     A,#0x18
        MOV     R0,#?V8
        LCALL   ?L_SHL
        MOV     R0,#?V4
        MOV     R1,#?V8
        LCALL   ?L_ADD
        SJMP    ??CrossCallReturnLabel_24
//  867 
//  868   while (pItem != NULL)
//  869   {
//  870     pPrev = pItem;
//  871     if (pItem->timestamp == timestamp)
//  872     {
//  873       break;
//  874     }
//  875     pItem = pItem->next;
??MT_AfDataRetrieve_1:
        MOV     DPL,R4
        MOV     DPH,R5
        LCALL   ?Subroutine15 & 0xFFFF
??CrossCallReturnLabel_24:
        MOV     A,?V2
        ORL     A,?V3
        JZ      ??MT_AfDataRetrieve_2
        MOV     R4,?V2
        MOV     R5,?V3
        MOV     DPL,R4
        MOV     DPH,R5
        INC     DPTR
        INC     DPTR
        INC     DPTR
        INC     DPTR
        MOV     R0,#?V4
        LCALL   ?L_EQ_X
        JNZ     ??MT_AfDataRetrieve_1
//  876   }
//  877 
//  878   if (pItem != NULL)
//  879   {
//  880     uint16 idx;
//  881     uint8 *pRsp;
//  882 
//  883     pBuf += 4;
        MOV     A,?V0
        ADD     A,#0x4
        MOV     ?V0,A
        JNC     ??MT_AfDataRetrieve_3
        INC     ?V1
//  884     idx = BUILD_UINT16(pBuf[0], pBuf[1]);
??MT_AfDataRetrieve_3:
        MOV     DPL,A
        MOV     DPH,?V1
        LCALL   ?Subroutine4 & 0xFFFF
//  885     len = pBuf[2];
??CrossCallReturnLabel_1:
        MOV     DPL,?V0
        MOV     DPH,?V1
        INC     DPTR
        INC     DPTR
        MOVX    A,@DPTR
        MOV     ?V12,A
//  886 
//  887     if (len == 0)  // Indication to delete the afIncomingMSGPacket.
        JNZ     ??MT_AfDataRetrieve_4
//  888     {
//  889       if (pMtAfInMsgList == pItem)
        LCALL   ?Subroutine21 & 0xFFFF
??CrossCallReturnLabel_128:
        MOV     A,R4
        XRL     A,R0
        JNZ     ??MT_AfDataRetrieve_5
        MOV     A,R5
        XRL     A,R1
??MT_AfDataRetrieve_5:
        MOV     DPL,R4
        MOV     DPH,R5
        JNZ     ??MT_AfDataRetrieve_6
//  890       {
//  891         pMtAfInMsgList = pItem->next;
        LCALL   ?Subroutine20 & 0xFFFF
//  892       }
??CrossCallReturnLabel_32:
        SJMP    ??MT_AfDataRetrieve_7
//  893       else
//  894       {
//  895         pPrev->next = pItem->next;
??MT_AfDataRetrieve_6:
        LCALL   ??Subroutine53_0 & 0xFFFF
//  896       }
??CrossCallReturnLabel_125:
        MOV     DPL,R4
        MOV     DPH,R5
??MT_AfDataRetrieve_7:
        LCALL   ?Subroutine27 & 0xFFFF
//  897       (void)osal_mem_free(pItem);
??CrossCallReturnLabel_46:
        ; Setup parameters for call to function osal_mem_free
        MOV     R2,?V2
        MOV     R3,?V3
        LCALL   ??osal_mem_free?relay; Banked call to: osal_mem_free
//  898       rtrn = afStatus_SUCCESS;
        MOV     R2,#0x0
//  899     }
//  900     else if ((pRsp = osal_mem_alloc(len + MT_AF_RTV_HDR_SZ)) == NULL)
//  901     {
//  902       rtrn = afStatus_MEM_FAIL;
//  903       len = 0;
//  904     }
//  905     else
//  906     {
//  907       pRsp[0] = ZSuccess;
//  908       pRsp[1] = len;
//  909       (void)osal_memcpy(pRsp + MT_AF_RTV_HDR_SZ, pItem->data+idx, len);
//  910       MT_BuildAndSendZToolResponse(((uint8)MT_RPC_CMD_SRSP | (uint8)MT_RPC_SYS_AF),
//  911                                            MT_AF_DATA_RETRIEVE, len + MT_AF_RTV_HDR_SZ, pRsp);
//  912       (void)osal_mem_free(pRsp);
//  913       return;
//  914     }
//  915   }
//  916 
//  917   pBuf[0] = rtrn;
??MT_AfDataRetrieve_2:
        MOV     A,R2
        MOV     DPL,?V0
        MOV     DPH,?V1
        MOVX    @DPTR,A
//  918   pBuf[1] = len;
        INC     DPTR
        MOV     A,?V12
        MOVX    @DPTR,A
//  919   MT_BuildAndSendZToolResponse(((uint8)MT_RPC_CMD_SRSP | (uint8)MT_RPC_SYS_AF),
//  920                                        MT_AF_DATA_RETRIEVE, MT_AF_RTV_HDR_SZ, pBuf);
        ; Setup parameters for call to function MT_BuildAndSendZToolResponse
        MOV     R4,?V0
        MOV     R5,?V1
        MOV     R3,#0x2
        MOV     R2,#0x12
        MOV     R1,#0x64
        LCALL   ??MT_BuildAndSendZToolResponse?relay; Banked call to: MT_BuildAndSendZToolResponse
//  921 }
??MT_AfDataRetrieve_8:
        MOV     R7,#0xd
        LJMP    ?BANKED_LEAVE_XDATA
??MT_AfDataRetrieve_4:
        ; Setup parameters for call to function osal_mem_alloc
        ADD     A,#0x2
        MOV     R2,A
        CLR     A
        ADDC    A,#0x0
        MOV     R3,A
        LCALL   ??osal_mem_alloc?relay; Banked call to: osal_mem_alloc
        MOV     ?V6,R2
        MOV     ?V7,R3
        MOV     R6,?V6
        MOV     R7,?V7
        MOV     A,R6
        ORL     A,R7
        JNZ     ??MT_AfDataRetrieve_9
        MOV     R2,#0x10
        MOV     ?V12,#0x0
        SJMP    ??MT_AfDataRetrieve_2
??MT_AfDataRetrieve_9:
        MOV     DPL,R6
        MOV     DPH,R7
        CLR     A
        MOVX    @DPTR,A
        INC     DPTR
        MOV     A,?V12
        MOVX    @DPTR,A
        ; Setup parameters for call to function osal_memcpy
        MOV     DPL,?V2
        MOV     DPH,?V3
        INC     DPTR
        INC     DPTR
        MOVX    A,@DPTR
        ADD     A,?V4
        MOV     ?V0,A
        INC     DPTR
        MOVX    A,@DPTR
        ADDC    A,?V5
        MOV     ?V1,A
        MOV     ?V2,#0x0
        MOV     R0,#?V0
        LCALL   ?PUSH_XSTACK_I_THREE
          CFI CFA_XSP16 add(XSP16, 24)
        MOV     R4,?V12
        MOV     R5,#0x0
        MOV     A,R6
        ADD     A,#0x2
        MOV     R2,A
        CLR     A
        ADDC    A,R7
        MOV     R3,A
        LCALL   ??osal_memcpy?relay  ; Banked call to: osal_memcpy
        MOV     A,#0x3
        LCALL   ?DEALLOC_XSTACK8
          CFI CFA_XSP16 add(XSP16, 21)
        ; Setup parameters for call to function MT_BuildAndSendZToolResponse
        MOV     A,R6
        MOV     R4,A
        MOV     A,R7
        MOV     R5,A
        MOV     A,#0x2
        ADD     A,?V12
        MOV     R3,A
        MOV     R2,#0x12
        MOV     R1,#0x64
        LCALL   ??MT_BuildAndSendZToolResponse?relay; Banked call to: MT_BuildAndSendZToolResponse
        ; Setup parameters for call to function osal_mem_free
        MOV     A,R6
        MOV     R2,A
        MOV     A,R7
        MOV     R3,A
        LCALL   ??osal_mem_free?relay; Banked call to: osal_mem_free
        SJMP    ??MT_AfDataRetrieve_8
          CFI EndBlock cfiBlock203

        RSEG BANKED_CODE:CODE:NOROOT(0)
?Subroutine21:
          CFI Block cfiCond204 Using cfiCommon0
          CFI Function MT_AfExec
          CFI Conditional ??CrossCallReturnLabel_126
          CFI R6 load(1, XDATA, add(CFA_XSP16, literal(-9)))
          CFI VB load(1, XDATA, add(CFA_XSP16, literal(-8)))
          CFI V0 load(1, XDATA, add(CFA_XSP16, literal(-7)))
          CFI R7 load(1, XDATA, add(CFA_XSP16, literal(-6)))
          CFI ?RET_LOW load(1, XDATA, add(CFA_XSP16, literal(-5)))
          CFI ?RET_HIGH load(1, XDATA, add(CFA_XSP16, literal(-4)))
          CFI ?BRET_EXT load(1, XDATA, add(CFA_XSP16, literal(-3)))
          CFI DPL0 load(1, XDATA, add(CFA_XSP16, literal(-2)))
          CFI DPH0 load(1, XDATA, add(CFA_XSP16, literal(-1)))
          CFI CFA_SP SP+-2
          CFI CFA_XSP16 add(XSP16, 9)
          CFI Block cfiCond205 Using cfiCommon0
          CFI (cfiCond205) Function MT_AfIncomingMsg
          CFI (cfiCond205) Conditional ??CrossCallReturnLabel_127
          CFI (cfiCond205) R6 load(1, XDATA, add(CFA_XSP16, literal(-23)))
          CFI (cfiCond205) VB load(1, XDATA, add(CFA_XSP16, literal(-22)))
          CFI (cfiCond205) V0 load(1, XDATA, add(CFA_XSP16, literal(-21)))
          CFI (cfiCond205) V1 load(1, XDATA, add(CFA_XSP16, literal(-20)))
          CFI (cfiCond205) V2 load(1, XDATA, add(CFA_XSP16, literal(-19)))
          CFI (cfiCond205) V3 load(1, XDATA, add(CFA_XSP16, literal(-18)))
          CFI (cfiCond205) V4 load(1, XDATA, add(CFA_XSP16, literal(-17)))
          CFI (cfiCond205) V5 load(1, XDATA, add(CFA_XSP16, literal(-16)))
          CFI (cfiCond205) V6 load(1, XDATA, add(CFA_XSP16, literal(-15)))
          CFI (cfiCond205) V7 load(1, XDATA, add(CFA_XSP16, literal(-14)))
          CFI (cfiCond205) V8 load(1, XDATA, add(CFA_XSP16, literal(-13)))
          CFI (cfiCond205) V9 load(1, XDATA, add(CFA_XSP16, literal(-12)))
          CFI (cfiCond205) V10 load(1, XDATA, add(CFA_XSP16, literal(-11)))
          CFI (cfiCond205) V11 load(1, XDATA, add(CFA_XSP16, literal(-10)))
          CFI (cfiCond205) V12 load(1, XDATA, add(CFA_XSP16, literal(-9)))
          CFI (cfiCond205) V13 load(1, XDATA, add(CFA_XSP16, literal(-8)))
          CFI (cfiCond205) V14 load(1, XDATA, add(CFA_XSP16, literal(-7)))
          CFI (cfiCond205) R7 load(1, XDATA, add(CFA_XSP16, literal(-6)))
          CFI (cfiCond205) ?RET_LOW load(1, XDATA, add(CFA_XSP16, literal(-5)))
          CFI (cfiCond205) ?RET_HIGH load(1, XDATA, add(CFA_XSP16, literal(-4)))
          CFI (cfiCond205) ?BRET_EXT load(1, XDATA, add(CFA_XSP16, literal(-3)))
          CFI (cfiCond205) DPL0 load(1, XDATA, add(CFA_XSP16, literal(-2)))
          CFI (cfiCond205) DPH0 load(1, XDATA, add(CFA_XSP16, literal(-1)))
          CFI (cfiCond205) CFA_SP SP+-2
          CFI (cfiCond205) CFA_XSP16 add(XSP16, 23)
          CFI Block cfiCond206 Using cfiCommon0
          CFI (cfiCond206) Function MT_AfDataRetrieve
          CFI (cfiCond206) Conditional ??CrossCallReturnLabel_128
          CFI (cfiCond206) R6 load(1, XDATA, add(CFA_XSP16, literal(-21)))
          CFI (cfiCond206) VB load(1, XDATA, add(CFA_XSP16, literal(-20)))
          CFI (cfiCond206) V0 load(1, XDATA, add(CFA_XSP16, literal(-19)))
          CFI (cfiCond206) V1 load(1, XDATA, add(CFA_XSP16, literal(-18)))
          CFI (cfiCond206) V2 load(1, XDATA, add(CFA_XSP16, literal(-17)))
          CFI (cfiCond206) V3 load(1, XDATA, add(CFA_XSP16, literal(-16)))
          CFI (cfiCond206) V4 load(1, XDATA, add(CFA_XSP16, literal(-15)))
          CFI (cfiCond206) V5 load(1, XDATA, add(CFA_XSP16, literal(-14)))
          CFI (cfiCond206) V6 load(1, XDATA, add(CFA_XSP16, literal(-13)))
          CFI (cfiCond206) V7 load(1, XDATA, add(CFA_XSP16, literal(-12)))
          CFI (cfiCond206) V8 load(1, XDATA, add(CFA_XSP16, literal(-11)))
          CFI (cfiCond206) V9 load(1, XDATA, add(CFA_XSP16, literal(-10)))
          CFI (cfiCond206) V10 load(1, XDATA, add(CFA_XSP16, literal(-9)))
          CFI (cfiCond206) V11 load(1, XDATA, add(CFA_XSP16, literal(-8)))
          CFI (cfiCond206) V12 load(1, XDATA, add(CFA_XSP16, literal(-7)))
          CFI (cfiCond206) R7 load(1, XDATA, add(CFA_XSP16, literal(-6)))
          CFI (cfiCond206) ?RET_LOW load(1, XDATA, add(CFA_XSP16, literal(-5)))
          CFI (cfiCond206) ?RET_HIGH load(1, XDATA, add(CFA_XSP16, literal(-4)))
          CFI (cfiCond206) ?BRET_EXT load(1, XDATA, add(CFA_XSP16, literal(-3)))
          CFI (cfiCond206) DPL0 load(1, XDATA, add(CFA_XSP16, literal(-2)))
          CFI (cfiCond206) DPH0 load(1, XDATA, add(CFA_XSP16, literal(-1)))
          CFI (cfiCond206) CFA_SP SP+-2
          CFI (cfiCond206) CFA_XSP16 add(XSP16, 21)
          CFI Block cfiPicker207 Using cfiCommon1
          CFI (cfiPicker207) NoFunction
          CFI (cfiPicker207) Picker
        MOV     DPTR,#pMtAfInMsgList
          CFI EndBlock cfiCond204
          CFI EndBlock cfiCond205
          CFI EndBlock cfiCond206
          CFI EndBlock cfiPicker207
        REQUIRE ??Subroutine53_0
        ; // Fall through to label ??Subroutine53_0

        RSEG BANKED_CODE:CODE:NOROOT(0)
??Subroutine53_0:
          CFI Block cfiCond208 Using cfiCommon0
          CFI Function MT_AfExec
          CFI Conditional ??CrossCallReturnLabel_124
          CFI R6 load(1, XDATA, add(CFA_XSP16, literal(-9)))
          CFI VB load(1, XDATA, add(CFA_XSP16, literal(-8)))
          CFI V0 load(1, XDATA, add(CFA_XSP16, literal(-7)))
          CFI R7 load(1, XDATA, add(CFA_XSP16, literal(-6)))
          CFI ?RET_LOW load(1, XDATA, add(CFA_XSP16, literal(-5)))
          CFI ?RET_HIGH load(1, XDATA, add(CFA_XSP16, literal(-4)))
          CFI ?BRET_EXT load(1, XDATA, add(CFA_XSP16, literal(-3)))
          CFI DPL0 load(1, XDATA, add(CFA_XSP16, literal(-2)))
          CFI DPH0 load(1, XDATA, add(CFA_XSP16, literal(-1)))
          CFI CFA_SP SP+-2
          CFI CFA_XSP16 add(XSP16, 9)
          CFI Block cfiCond209 Using cfiCommon0
          CFI (cfiCond209) Function MT_AfDataRetrieve
          CFI (cfiCond209) Conditional ??CrossCallReturnLabel_125
          CFI (cfiCond209) R6 load(1, XDATA, add(CFA_XSP16, literal(-21)))
          CFI (cfiCond209) VB load(1, XDATA, add(CFA_XSP16, literal(-20)))
          CFI (cfiCond209) V0 load(1, XDATA, add(CFA_XSP16, literal(-19)))
          CFI (cfiCond209) V1 load(1, XDATA, add(CFA_XSP16, literal(-18)))
          CFI (cfiCond209) V2 load(1, XDATA, add(CFA_XSP16, literal(-17)))
          CFI (cfiCond209) V3 load(1, XDATA, add(CFA_XSP16, literal(-16)))
          CFI (cfiCond209) V4 load(1, XDATA, add(CFA_XSP16, literal(-15)))
          CFI (cfiCond209) V5 load(1, XDATA, add(CFA_XSP16, literal(-14)))
          CFI (cfiCond209) V6 load(1, XDATA, add(CFA_XSP16, literal(-13)))
          CFI (cfiCond209) V7 load(1, XDATA, add(CFA_XSP16, literal(-12)))
          CFI (cfiCond209) V8 load(1, XDATA, add(CFA_XSP16, literal(-11)))
          CFI (cfiCond209) V9 load(1, XDATA, add(CFA_XSP16, literal(-10)))
          CFI (cfiCond209) V10 load(1, XDATA, add(CFA_XSP16, literal(-9)))
          CFI (cfiCond209) V11 load(1, XDATA, add(CFA_XSP16, literal(-8)))
          CFI (cfiCond209) V12 load(1, XDATA, add(CFA_XSP16, literal(-7)))
          CFI (cfiCond209) R7 load(1, XDATA, add(CFA_XSP16, literal(-6)))
          CFI (cfiCond209) ?RET_LOW load(1, XDATA, add(CFA_XSP16, literal(-5)))
          CFI (cfiCond209) ?RET_HIGH load(1, XDATA, add(CFA_XSP16, literal(-4)))
          CFI (cfiCond209) ?BRET_EXT load(1, XDATA, add(CFA_XSP16, literal(-3)))
          CFI (cfiCond209) DPL0 load(1, XDATA, add(CFA_XSP16, literal(-2)))
          CFI (cfiCond209) DPH0 load(1, XDATA, add(CFA_XSP16, literal(-1)))
          CFI (cfiCond209) CFA_SP SP+-2
          CFI (cfiCond209) CFA_XSP16 add(XSP16, 21)
          CFI Block cfiCond210 Using cfiCommon0
          CFI (cfiCond210) Function MT_AfExec
          CFI (cfiCond210) Conditional ??CrossCallReturnLabel_126
          CFI (cfiCond210) R6 load(1, XDATA, add(CFA_XSP16, literal(-9)))
          CFI (cfiCond210) VB load(1, XDATA, add(CFA_XSP16, literal(-8)))
          CFI (cfiCond210) V0 load(1, XDATA, add(CFA_XSP16, literal(-7)))
          CFI (cfiCond210) R7 load(1, XDATA, add(CFA_XSP16, literal(-6)))
          CFI (cfiCond210) ?RET_LOW load(1, XDATA, add(CFA_XSP16, literal(-5)))
          CFI (cfiCond210) ?RET_HIGH load(1, XDATA, add(CFA_XSP16, literal(-4)))
          CFI (cfiCond210) ?BRET_EXT load(1, XDATA, add(CFA_XSP16, literal(-3)))
          CFI (cfiCond210) DPL0 load(1, XDATA, add(CFA_XSP16, literal(-2)))
          CFI (cfiCond210) DPH0 load(1, XDATA, add(CFA_XSP16, literal(-1)))
          CFI (cfiCond210) CFA_SP SP+-2
          CFI (cfiCond210) CFA_XSP16 add(XSP16, 9)
          CFI Block cfiCond211 Using cfiCommon0
          CFI (cfiCond211) Function MT_AfIncomingMsg
          CFI (cfiCond211) Conditional ??CrossCallReturnLabel_127
          CFI (cfiCond211) R6 load(1, XDATA, add(CFA_XSP16, literal(-23)))
          CFI (cfiCond211) VB load(1, XDATA, add(CFA_XSP16, literal(-22)))
          CFI (cfiCond211) V0 load(1, XDATA, add(CFA_XSP16, literal(-21)))
          CFI (cfiCond211) V1 load(1, XDATA, add(CFA_XSP16, literal(-20)))
          CFI (cfiCond211) V2 load(1, XDATA, add(CFA_XSP16, literal(-19)))
          CFI (cfiCond211) V3 load(1, XDATA, add(CFA_XSP16, literal(-18)))
          CFI (cfiCond211) V4 load(1, XDATA, add(CFA_XSP16, literal(-17)))
          CFI (cfiCond211) V5 load(1, XDATA, add(CFA_XSP16, literal(-16)))
          CFI (cfiCond211) V6 load(1, XDATA, add(CFA_XSP16, literal(-15)))
          CFI (cfiCond211) V7 load(1, XDATA, add(CFA_XSP16, literal(-14)))
          CFI (cfiCond211) V8 load(1, XDATA, add(CFA_XSP16, literal(-13)))
          CFI (cfiCond211) V9 load(1, XDATA, add(CFA_XSP16, literal(-12)))
          CFI (cfiCond211) V10 load(1, XDATA, add(CFA_XSP16, literal(-11)))
          CFI (cfiCond211) V11 load(1, XDATA, add(CFA_XSP16, literal(-10)))
          CFI (cfiCond211) V12 load(1, XDATA, add(CFA_XSP16, literal(-9)))
          CFI (cfiCond211) V13 load(1, XDATA, add(CFA_XSP16, literal(-8)))
          CFI (cfiCond211) V14 load(1, XDATA, add(CFA_XSP16, literal(-7)))
          CFI (cfiCond211) R7 load(1, XDATA, add(CFA_XSP16, literal(-6)))
          CFI (cfiCond211) ?RET_LOW load(1, XDATA, add(CFA_XSP16, literal(-5)))
          CFI (cfiCond211) ?RET_HIGH load(1, XDATA, add(CFA_XSP16, literal(-4)))
          CFI (cfiCond211) ?BRET_EXT load(1, XDATA, add(CFA_XSP16, literal(-3)))
          CFI (cfiCond211) DPL0 load(1, XDATA, add(CFA_XSP16, literal(-2)))
          CFI (cfiCond211) DPH0 load(1, XDATA, add(CFA_XSP16, literal(-1)))
          CFI (cfiCond211) CFA_SP SP+-2
          CFI (cfiCond211) CFA_XSP16 add(XSP16, 23)
          CFI Block cfiCond212 Using cfiCommon0
          CFI (cfiCond212) Function MT_AfDataRetrieve
          CFI (cfiCond212) Conditional ??CrossCallReturnLabel_128
          CFI (cfiCond212) R6 load(1, XDATA, add(CFA_XSP16, literal(-21)))
          CFI (cfiCond212) VB load(1, XDATA, add(CFA_XSP16, literal(-20)))
          CFI (cfiCond212) V0 load(1, XDATA, add(CFA_XSP16, literal(-19)))
          CFI (cfiCond212) V1 load(1, XDATA, add(CFA_XSP16, literal(-18)))
          CFI (cfiCond212) V2 load(1, XDATA, add(CFA_XSP16, literal(-17)))
          CFI (cfiCond212) V3 load(1, XDATA, add(CFA_XSP16, literal(-16)))
          CFI (cfiCond212) V4 load(1, XDATA, add(CFA_XSP16, literal(-15)))
          CFI (cfiCond212) V5 load(1, XDATA, add(CFA_XSP16, literal(-14)))
          CFI (cfiCond212) V6 load(1, XDATA, add(CFA_XSP16, literal(-13)))
          CFI (cfiCond212) V7 load(1, XDATA, add(CFA_XSP16, literal(-12)))
          CFI (cfiCond212) V8 load(1, XDATA, add(CFA_XSP16, literal(-11)))
          CFI (cfiCond212) V9 load(1, XDATA, add(CFA_XSP16, literal(-10)))
          CFI (cfiCond212) V10 load(1, XDATA, add(CFA_XSP16, literal(-9)))
          CFI (cfiCond212) V11 load(1, XDATA, add(CFA_XSP16, literal(-8)))
          CFI (cfiCond212) V12 load(1, XDATA, add(CFA_XSP16, literal(-7)))
          CFI (cfiCond212) R7 load(1, XDATA, add(CFA_XSP16, literal(-6)))
          CFI (cfiCond212) ?RET_LOW load(1, XDATA, add(CFA_XSP16, literal(-5)))
          CFI (cfiCond212) ?RET_HIGH load(1, XDATA, add(CFA_XSP16, literal(-4)))
          CFI (cfiCond212) ?BRET_EXT load(1, XDATA, add(CFA_XSP16, literal(-3)))
          CFI (cfiCond212) DPL0 load(1, XDATA, add(CFA_XSP16, literal(-2)))
          CFI (cfiCond212) DPH0 load(1, XDATA, add(CFA_XSP16, literal(-1)))
          CFI (cfiCond212) CFA_SP SP+-2
          CFI (cfiCond212) CFA_XSP16 add(XSP16, 21)
          CFI Block cfiPicker213 Using cfiCommon1
          CFI (cfiPicker213) NoFunction
          CFI (cfiPicker213) Picker
        MOVX    A,@DPTR
        MOV     R0,A
        INC     DPTR
        MOVX    A,@DPTR
        MOV     R1,A
        RET
          CFI EndBlock cfiCond208
          CFI EndBlock cfiCond209
          CFI EndBlock cfiCond210
          CFI EndBlock cfiCond211
          CFI EndBlock cfiCond212
          CFI EndBlock cfiPicker213

        RSEG BANKED_CODE:CODE:NOROOT(0)
?Subroutine20:
          CFI Block cfiCond214 Using cfiCommon0
          CFI Function MT_AfExec
          CFI Conditional ??CrossCallReturnLabel_31
          CFI R6 load(1, XDATA, add(CFA_XSP16, literal(-9)))
          CFI VB load(1, XDATA, add(CFA_XSP16, literal(-8)))
          CFI V0 load(1, XDATA, add(CFA_XSP16, literal(-7)))
          CFI R7 load(1, XDATA, add(CFA_XSP16, literal(-6)))
          CFI ?RET_LOW load(1, XDATA, add(CFA_XSP16, literal(-5)))
          CFI ?RET_HIGH load(1, XDATA, add(CFA_XSP16, literal(-4)))
          CFI ?BRET_EXT load(1, XDATA, add(CFA_XSP16, literal(-3)))
          CFI DPL0 load(1, XDATA, add(CFA_XSP16, literal(-2)))
          CFI DPH0 load(1, XDATA, add(CFA_XSP16, literal(-1)))
          CFI CFA_SP SP+-2
          CFI CFA_XSP16 add(XSP16, 9)
          CFI Block cfiCond215 Using cfiCommon0
          CFI (cfiCond215) Function MT_AfDataRetrieve
          CFI (cfiCond215) Conditional ??CrossCallReturnLabel_32
          CFI (cfiCond215) R6 load(1, XDATA, add(CFA_XSP16, literal(-21)))
          CFI (cfiCond215) VB load(1, XDATA, add(CFA_XSP16, literal(-20)))
          CFI (cfiCond215) V0 load(1, XDATA, add(CFA_XSP16, literal(-19)))
          CFI (cfiCond215) V1 load(1, XDATA, add(CFA_XSP16, literal(-18)))
          CFI (cfiCond215) V2 load(1, XDATA, add(CFA_XSP16, literal(-17)))
          CFI (cfiCond215) V3 load(1, XDATA, add(CFA_XSP16, literal(-16)))
          CFI (cfiCond215) V4 load(1, XDATA, add(CFA_XSP16, literal(-15)))
          CFI (cfiCond215) V5 load(1, XDATA, add(CFA_XSP16, literal(-14)))
          CFI (cfiCond215) V6 load(1, XDATA, add(CFA_XSP16, literal(-13)))
          CFI (cfiCond215) V7 load(1, XDATA, add(CFA_XSP16, literal(-12)))
          CFI (cfiCond215) V8 load(1, XDATA, add(CFA_XSP16, literal(-11)))
          CFI (cfiCond215) V9 load(1, XDATA, add(CFA_XSP16, literal(-10)))
          CFI (cfiCond215) V10 load(1, XDATA, add(CFA_XSP16, literal(-9)))
          CFI (cfiCond215) V11 load(1, XDATA, add(CFA_XSP16, literal(-8)))
          CFI (cfiCond215) V12 load(1, XDATA, add(CFA_XSP16, literal(-7)))
          CFI (cfiCond215) R7 load(1, XDATA, add(CFA_XSP16, literal(-6)))
          CFI (cfiCond215) ?RET_LOW load(1, XDATA, add(CFA_XSP16, literal(-5)))
          CFI (cfiCond215) ?RET_HIGH load(1, XDATA, add(CFA_XSP16, literal(-4)))
          CFI (cfiCond215) ?BRET_EXT load(1, XDATA, add(CFA_XSP16, literal(-3)))
          CFI (cfiCond215) DPL0 load(1, XDATA, add(CFA_XSP16, literal(-2)))
          CFI (cfiCond215) DPH0 load(1, XDATA, add(CFA_XSP16, literal(-1)))
          CFI (cfiCond215) CFA_SP SP+-2
          CFI (cfiCond215) CFA_XSP16 add(XSP16, 21)
          CFI Block cfiPicker216 Using cfiCommon1
          CFI (cfiPicker216) NoFunction
          CFI (cfiPicker216) Picker
        MOVX    A,@DPTR
        MOV     R0,A
        INC     DPTR
        MOVX    A,@DPTR
        MOV     R1,A
        MOV     DPTR,#pMtAfInMsgList
        RET
          CFI EndBlock cfiCond214
          CFI EndBlock cfiCond215
          CFI EndBlock cfiPicker216

        RSEG BANKED_CODE:CODE:NOROOT(0)
?Subroutine15:
          CFI Block cfiCond217 Using cfiCommon0
          CFI Function MT_AfIncomingMsg
          CFI Conditional ??CrossCallReturnLabel_22
          CFI R6 load(1, XDATA, add(CFA_XSP16, literal(-23)))
          CFI VB load(1, XDATA, add(CFA_XSP16, literal(-22)))
          CFI V0 load(1, XDATA, add(CFA_XSP16, literal(-21)))
          CFI V1 load(1, XDATA, add(CFA_XSP16, literal(-20)))
          CFI V2 load(1, XDATA, add(CFA_XSP16, literal(-19)))
          CFI V3 load(1, XDATA, add(CFA_XSP16, literal(-18)))
          CFI V4 load(1, XDATA, add(CFA_XSP16, literal(-17)))
          CFI V5 load(1, XDATA, add(CFA_XSP16, literal(-16)))
          CFI V6 load(1, XDATA, add(CFA_XSP16, literal(-15)))
          CFI V7 load(1, XDATA, add(CFA_XSP16, literal(-14)))
          CFI V8 load(1, XDATA, add(CFA_XSP16, literal(-13)))
          CFI V9 load(1, XDATA, add(CFA_XSP16, literal(-12)))
          CFI V10 load(1, XDATA, add(CFA_XSP16, literal(-11)))
          CFI V11 load(1, XDATA, add(CFA_XSP16, literal(-10)))
          CFI V12 load(1, XDATA, add(CFA_XSP16, literal(-9)))
          CFI V13 load(1, XDATA, add(CFA_XSP16, literal(-8)))
          CFI V14 load(1, XDATA, add(CFA_XSP16, literal(-7)))
          CFI R7 load(1, XDATA, add(CFA_XSP16, literal(-6)))
          CFI ?RET_LOW load(1, XDATA, add(CFA_XSP16, literal(-5)))
          CFI ?RET_HIGH load(1, XDATA, add(CFA_XSP16, literal(-4)))
          CFI ?BRET_EXT load(1, XDATA, add(CFA_XSP16, literal(-3)))
          CFI DPL0 load(1, XDATA, add(CFA_XSP16, literal(-2)))
          CFI DPH0 load(1, XDATA, add(CFA_XSP16, literal(-1)))
          CFI CFA_SP SP+-2
          CFI CFA_XSP16 add(XSP16, 23)
          CFI Block cfiCond218 Using cfiCommon0
          CFI (cfiCond218) Function MT_AfDataRetrieve
          CFI (cfiCond218) Conditional ??CrossCallReturnLabel_23
          CFI (cfiCond218) R6 load(1, XDATA, add(CFA_XSP16, literal(-21)))
          CFI (cfiCond218) VB load(1, XDATA, add(CFA_XSP16, literal(-20)))
          CFI (cfiCond218) V0 load(1, XDATA, add(CFA_XSP16, literal(-19)))
          CFI (cfiCond218) V1 load(1, XDATA, add(CFA_XSP16, literal(-18)))
          CFI (cfiCond218) V2 load(1, XDATA, add(CFA_XSP16, literal(-17)))
          CFI (cfiCond218) V3 load(1, XDATA, add(CFA_XSP16, literal(-16)))
          CFI (cfiCond218) V4 load(1, XDATA, add(CFA_XSP16, literal(-15)))
          CFI (cfiCond218) V5 load(1, XDATA, add(CFA_XSP16, literal(-14)))
          CFI (cfiCond218) V6 load(1, XDATA, add(CFA_XSP16, literal(-13)))
          CFI (cfiCond218) V7 load(1, XDATA, add(CFA_XSP16, literal(-12)))
          CFI (cfiCond218) V8 load(1, XDATA, add(CFA_XSP16, literal(-11)))
          CFI (cfiCond218) V9 load(1, XDATA, add(CFA_XSP16, literal(-10)))
          CFI (cfiCond218) V10 load(1, XDATA, add(CFA_XSP16, literal(-9)))
          CFI (cfiCond218) V11 load(1, XDATA, add(CFA_XSP16, literal(-8)))
          CFI (cfiCond218) V12 load(1, XDATA, add(CFA_XSP16, literal(-7)))
          CFI (cfiCond218) R7 load(1, XDATA, add(CFA_XSP16, literal(-6)))
          CFI (cfiCond218) ?RET_LOW load(1, XDATA, add(CFA_XSP16, literal(-5)))
          CFI (cfiCond218) ?RET_HIGH load(1, XDATA, add(CFA_XSP16, literal(-4)))
          CFI (cfiCond218) ?BRET_EXT load(1, XDATA, add(CFA_XSP16, literal(-3)))
          CFI (cfiCond218) DPL0 load(1, XDATA, add(CFA_XSP16, literal(-2)))
          CFI (cfiCond218) DPH0 load(1, XDATA, add(CFA_XSP16, literal(-1)))
          CFI (cfiCond218) CFA_SP SP+-2
          CFI (cfiCond218) CFA_XSP16 add(XSP16, 21)
          CFI Block cfiCond219 Using cfiCommon0
          CFI (cfiCond219) Function MT_AfDataRetrieve
          CFI (cfiCond219) Conditional ??CrossCallReturnLabel_24
          CFI (cfiCond219) R6 load(1, XDATA, add(CFA_XSP16, literal(-21)))
          CFI (cfiCond219) VB load(1, XDATA, add(CFA_XSP16, literal(-20)))
          CFI (cfiCond219) V0 load(1, XDATA, add(CFA_XSP16, literal(-19)))
          CFI (cfiCond219) V1 load(1, XDATA, add(CFA_XSP16, literal(-18)))
          CFI (cfiCond219) V2 load(1, XDATA, add(CFA_XSP16, literal(-17)))
          CFI (cfiCond219) V3 load(1, XDATA, add(CFA_XSP16, literal(-16)))
          CFI (cfiCond219) V4 load(1, XDATA, add(CFA_XSP16, literal(-15)))
          CFI (cfiCond219) V5 load(1, XDATA, add(CFA_XSP16, literal(-14)))
          CFI (cfiCond219) V6 load(1, XDATA, add(CFA_XSP16, literal(-13)))
          CFI (cfiCond219) V7 load(1, XDATA, add(CFA_XSP16, literal(-12)))
          CFI (cfiCond219) V8 load(1, XDATA, add(CFA_XSP16, literal(-11)))
          CFI (cfiCond219) V9 load(1, XDATA, add(CFA_XSP16, literal(-10)))
          CFI (cfiCond219) V10 load(1, XDATA, add(CFA_XSP16, literal(-9)))
          CFI (cfiCond219) V11 load(1, XDATA, add(CFA_XSP16, literal(-8)))
          CFI (cfiCond219) V12 load(1, XDATA, add(CFA_XSP16, literal(-7)))
          CFI (cfiCond219) R7 load(1, XDATA, add(CFA_XSP16, literal(-6)))
          CFI (cfiCond219) ?RET_LOW load(1, XDATA, add(CFA_XSP16, literal(-5)))
          CFI (cfiCond219) ?RET_HIGH load(1, XDATA, add(CFA_XSP16, literal(-4)))
          CFI (cfiCond219) ?BRET_EXT load(1, XDATA, add(CFA_XSP16, literal(-3)))
          CFI (cfiCond219) DPL0 load(1, XDATA, add(CFA_XSP16, literal(-2)))
          CFI (cfiCond219) DPH0 load(1, XDATA, add(CFA_XSP16, literal(-1)))
          CFI (cfiCond219) CFA_SP SP+-2
          CFI (cfiCond219) CFA_XSP16 add(XSP16, 21)
          CFI Block cfiPicker220 Using cfiCommon1
          CFI (cfiPicker220) NoFunction
          CFI (cfiPicker220) Picker
        MOVX    A,@DPTR
        MOV     ?V2,A
        INC     DPTR
        MOVX    A,@DPTR
        MOV     ?V3,A
        RET
          CFI EndBlock cfiCond217
          CFI EndBlock cfiCond218
          CFI EndBlock cfiCond219
          CFI EndBlock cfiPicker220

        RSEG BANKED_CODE:CODE:NOROOT(0)
?Subroutine4:
          CFI Block cfiCond221 Using cfiCommon0
          CFI Function MT_AfDataRequestSrcRtg
          CFI Conditional ??CrossCallReturnLabel_0
          CFI R6 load(1, XDATA, add(CFA_XSP16, literal(-20)))
          CFI VB load(1, XDATA, add(CFA_XSP16, literal(-19)))
          CFI V0 load(1, XDATA, add(CFA_XSP16, literal(-18)))
          CFI V1 load(1, XDATA, add(CFA_XSP16, literal(-17)))
          CFI V2 load(1, XDATA, add(CFA_XSP16, literal(-16)))
          CFI V3 load(1, XDATA, add(CFA_XSP16, literal(-15)))
          CFI V4 load(1, XDATA, add(CFA_XSP16, literal(-14)))
          CFI V5 load(1, XDATA, add(CFA_XSP16, literal(-13)))
          CFI V6 load(1, XDATA, add(CFA_XSP16, literal(-12)))
          CFI V7 load(1, XDATA, add(CFA_XSP16, literal(-11)))
          CFI V8 load(1, XDATA, add(CFA_XSP16, literal(-10)))
          CFI V9 load(1, XDATA, add(CFA_XSP16, literal(-9)))
          CFI V10 load(1, XDATA, add(CFA_XSP16, literal(-8)))
          CFI V11 load(1, XDATA, add(CFA_XSP16, literal(-7)))
          CFI R7 load(1, XDATA, add(CFA_XSP16, literal(-6)))
          CFI ?RET_LOW load(1, XDATA, add(CFA_XSP16, literal(-5)))
          CFI ?RET_HIGH load(1, XDATA, add(CFA_XSP16, literal(-4)))
          CFI ?BRET_EXT load(1, XDATA, add(CFA_XSP16, literal(-3)))
          CFI DPL0 load(1, XDATA, add(CFA_XSP16, literal(-2)))
          CFI DPH0 load(1, XDATA, add(CFA_XSP16, literal(-1)))
          CFI CFA_SP SP+-2
          CFI CFA_XSP16 add(XSP16, 34)
          CFI Block cfiCond222 Using cfiCommon0
          CFI (cfiCond222) Function MT_AfDataRetrieve
          CFI (cfiCond222) Conditional ??CrossCallReturnLabel_1
          CFI (cfiCond222) R6 load(1, XDATA, add(CFA_XSP16, literal(-21)))
          CFI (cfiCond222) VB load(1, XDATA, add(CFA_XSP16, literal(-20)))
          CFI (cfiCond222) V0 load(1, XDATA, add(CFA_XSP16, literal(-19)))
          CFI (cfiCond222) V1 load(1, XDATA, add(CFA_XSP16, literal(-18)))
          CFI (cfiCond222) V2 load(1, XDATA, add(CFA_XSP16, literal(-17)))
          CFI (cfiCond222) V3 load(1, XDATA, add(CFA_XSP16, literal(-16)))
          CFI (cfiCond222) V4 load(1, XDATA, add(CFA_XSP16, literal(-15)))
          CFI (cfiCond222) V5 load(1, XDATA, add(CFA_XSP16, literal(-14)))
          CFI (cfiCond222) V6 load(1, XDATA, add(CFA_XSP16, literal(-13)))
          CFI (cfiCond222) V7 load(1, XDATA, add(CFA_XSP16, literal(-12)))
          CFI (cfiCond222) V8 load(1, XDATA, add(CFA_XSP16, literal(-11)))
          CFI (cfiCond222) V9 load(1, XDATA, add(CFA_XSP16, literal(-10)))
          CFI (cfiCond222) V10 load(1, XDATA, add(CFA_XSP16, literal(-9)))
          CFI (cfiCond222) V11 load(1, XDATA, add(CFA_XSP16, literal(-8)))
          CFI (cfiCond222) V12 load(1, XDATA, add(CFA_XSP16, literal(-7)))
          CFI (cfiCond222) R7 load(1, XDATA, add(CFA_XSP16, literal(-6)))
          CFI (cfiCond222) ?RET_LOW load(1, XDATA, add(CFA_XSP16, literal(-5)))
          CFI (cfiCond222) ?RET_HIGH load(1, XDATA, add(CFA_XSP16, literal(-4)))
          CFI (cfiCond222) ?BRET_EXT load(1, XDATA, add(CFA_XSP16, literal(-3)))
          CFI (cfiCond222) DPL0 load(1, XDATA, add(CFA_XSP16, literal(-2)))
          CFI (cfiCond222) DPH0 load(1, XDATA, add(CFA_XSP16, literal(-1)))
          CFI (cfiCond222) CFA_SP SP+-2
          CFI (cfiCond222) CFA_XSP16 add(XSP16, 21)
          CFI Block cfiPicker223 Using cfiCommon1
          CFI (cfiPicker223) NoFunction
          CFI (cfiPicker223) Picker
        MOVX    A,@DPTR
        MOV     R2,A
        INC     DPTR
        MOVX    A,@DPTR
        MOV     R0,A
        CLR     A
        XCH     A,R0
        MOV     R1,A
        MOV     A,R2
        ADD     A,R0
        MOV     ?V4,A
        CLR     A
        ADDC    A,R1
        MOV     ?V5,A
        RET
          CFI EndBlock cfiCond221
          CFI EndBlock cfiCond222
          CFI EndBlock cfiPicker223
//  922 
//  923 /**************************************************************************************************
//  924  * @fn          MT_AfDataStore
//  925  *
//  926  * @brief   Process AF Data Store command to incrementally store the data buffer for very large
//  927  *          outgoing AF message.
//  928  *
//  929  * input parameters
//  930  *
//  931  * @param pBuf - pointer to the received buffer
//  932  *
//  933  * output parameters
//  934  *
//  935  * @param rtrn - AF-Status of the operation.
//  936  *
//  937  * @return      None.
//  938  **************************************************************************************************
//  939  */

        RSEG BANKED_CODE:CODE:NOROOT(0)
//  940 void MT_AfDataStore(uint8 *pBuf)
MT_AfDataStore:
          CFI Block cfiBlock224 Using cfiCommon0
          CFI Function MT_AfDataStore
        CODE
//  941 {
        FUNCALL MT_AfDataStore, AF_DataRequest
        LOCFRAME ISTACK, 0, STACK
        LOCFRAME PSTACK, 0, STACK
        LOCFRAME XSTACK, 21, STACK
        LOCFRAME IOVERLAY, 0, STATIC
        LOCFRAME DOVERLAY, 0, STATIC
        ARGFRAME ISTACK, 0, STACK
        ARGFRAME PSTACK, 0, STACK
        ARGFRAME XSTACK, 21, STACK
        ARGFRAME IOVERLAY, 0, STATIC
        ARGFRAME DOVERLAY, 0, STATIC
        FUNCALL MT_AfDataStore, osal_mem_free
        LOCFRAME ISTACK, 0, STACK
        LOCFRAME PSTACK, 0, STACK
        LOCFRAME XSTACK, 12, STACK
        LOCFRAME IOVERLAY, 0, STATIC
        LOCFRAME DOVERLAY, 0, STATIC
        ARGFRAME ISTACK, 0, STACK
        ARGFRAME PSTACK, 0, STACK
        ARGFRAME XSTACK, 12, STACK
        ARGFRAME IOVERLAY, 0, STATIC
        ARGFRAME DOVERLAY, 0, STATIC
        FUNCALL MT_AfDataStore, osal_memcpy
        LOCFRAME ISTACK, 0, STACK
        LOCFRAME PSTACK, 0, STACK
        LOCFRAME XSTACK, 15, STACK
        LOCFRAME IOVERLAY, 0, STATIC
        LOCFRAME DOVERLAY, 0, STATIC
        ARGFRAME ISTACK, 0, STACK
        ARGFRAME PSTACK, 0, STACK
        ARGFRAME XSTACK, 15, STACK
        ARGFRAME IOVERLAY, 0, STATIC
        ARGFRAME DOVERLAY, 0, STATIC
        FUNCALL MT_AfDataStore, MT_BuildAndSendZToolResponse
        LOCFRAME ISTACK, 0, STACK
        LOCFRAME PSTACK, 0, STACK
        LOCFRAME XSTACK, 12, STACK
        LOCFRAME IOVERLAY, 0, STATIC
        LOCFRAME DOVERLAY, 0, STATIC
        ARGFRAME ISTACK, 0, STACK
        ARGFRAME PSTACK, 0, STACK
        ARGFRAME XSTACK, 12, STACK
        ARGFRAME IOVERLAY, 0, STATIC
        ARGFRAME DOVERLAY, 0, STATIC
        REQUIRE ?V0
        REQUIRE ?V1
        REQUIRE ?V2
        MOV     A,#-0xb
        LCALL   ?BANKED_ENTER_XDATA
          CFI DPH0 load(1, XDATA, add(CFA_XSP16, literal(-1)))
          CFI DPL0 load(1, XDATA, add(CFA_XSP16, literal(-2)))
          CFI ?BRET_EXT load(1, XDATA, add(CFA_XSP16, literal(-3)))
          CFI ?RET_HIGH load(1, XDATA, add(CFA_XSP16, literal(-4)))
          CFI ?RET_LOW load(1, XDATA, add(CFA_XSP16, literal(-5)))
          CFI R7 load(1, XDATA, add(CFA_XSP16, literal(-6)))
          CFI V2 load(1, XDATA, add(CFA_XSP16, literal(-7)))
          CFI V1 load(1, XDATA, add(CFA_XSP16, literal(-8)))
          CFI V0 load(1, XDATA, add(CFA_XSP16, literal(-9)))
          CFI VB load(1, XDATA, add(CFA_XSP16, literal(-10)))
          CFI R6 load(1, XDATA, add(CFA_XSP16, literal(-11)))
          CFI CFA_SP SP+0
          CFI CFA_XSP16 add(XSP16, 11)
        ; Saved register size: 11
        ; Auto size: 1
        MOV     A,#-0x1
        LCALL   ?ALLOC_XSTACK8
          CFI CFA_XSP16 add(XSP16, 12)
//  942   uint16 idx;
//  943   uint8 len, rtrn = afStatus_FAILED;
        MOV     DPL,?XSP + 0
        MOV     DPH,?XSP + 1
        MOV     A,#0x1
        MOVX    @DPTR,A
//  944 
//  945   pBuf += MT_RPC_FRAME_HDR_SZ;
        MOV     A,R2
        ADD     A,#0x3
        MOV     R2,A
        JNC     ??MT_AfDataStore_0
        INC     R3
//  946   idx = BUILD_UINT16(pBuf[0], pBuf[1]);
??MT_AfDataStore_0:
        MOV     DPL,R2
        MOV     DPH,R3
        MOVX    A,@DPTR
        MOV     R4,A
        INC     DPTR
        MOVX    A,@DPTR
        MOV     R0,A
        CLR     A
        XCH     A,R0
        MOV     R1,A
        MOV     A,R4
        ADD     A,R0
        MOV     R6,A
        CLR     A
        ADDC    A,R1
        MOV     R7,A
//  947   len = pBuf[2];
        MOV     DPL,R2
        MOV     DPH,R3
        INC     DPTR
        INC     DPTR
        MOVX    A,@DPTR
        MOV     R4,A
//  948   pBuf += 3;
        MOV     A,R2
        ADD     A,#0x3
        MOV     R2,A
        JNC     ??MT_AfDataStore_1
        INC     R3
//  949 
//  950   if (pMtAfDataReq == NULL)
??MT_AfDataStore_1:
        LCALL   ?Subroutine3 & 0xFFFF
??CrossCallReturnLabel_98:
        JNZ     ??MT_AfDataStore_2
//  951   {
//  952     rtrn = afStatus_MEM_FAIL;
        MOV     DPL,?XSP + 0
        MOV     DPH,?XSP + 1
        MOV     A,#0x10
        LJMP    ??MT_AfDataStore_3 & 0xFFFF
//  953   }
//  954   else if (len == 0)  // Indication to send the message.
??MT_AfDataStore_2:
        MOV     A,R4
        JNZ     ??MT_AfDataStore_4
//  955   {
//  956     rtrn = AF_DataRequest(&(pMtAfDataReq->dstAddr), pMtAfDataReq->epDesc, pMtAfDataReq->cId,
//  957                             pMtAfDataReq->dataLen,  pMtAfDataReq->data,
//  958                           &(pMtAfDataReq->transId), pMtAfDataReq->txOpts, pMtAfDataReq->radius);
        ; Setup parameters for call to function AF_DataRequest
        LCALL   ?Subroutine16 & 0xFFFF
??CrossCallReturnLabel_26:
        MOVX    A,@DPTR
        MOV     ?V0,A
        MOV     R0,#?V0
        LCALL   ?PUSH_XSTACK_I_ONE
          CFI CFA_XSP16 add(XSP16, 13)
        MOV     DPTR,#pMtAfDataReq
        MOVX    A,@DPTR
        ADD     A,#0x14
        MOV     ?V0,A
        INC     DPTR
        MOVX    A,@DPTR
        ADDC    A,#0x0
        MOV     ?V1,A
        MOV     R0,#?V0
        LCALL   ?PUSH_XSTACK_I_TWO
          CFI CFA_XSP16 add(XSP16, 15)
        LCALL   ?Subroutine9 & 0xFFFF
??CrossCallReturnLabel_12:
        LCALL   ?PUSH_XSTACK8_X_TWO
          CFI CFA_XSP16 add(XSP16, 17)
        LCALL   ?Subroutine12 & 0xFFFF
??CrossCallReturnLabel_19:
        LCALL   ?PUSH_XSTACK8_X_TWO
          CFI CFA_XSP16 add(XSP16, 19)
        LCALL   ?Subroutine11 & 0xFFFF
??CrossCallReturnLabel_17:
        LCALL   ?PUSH_XSTACK8_X_TWO
          CFI CFA_XSP16 add(XSP16, 21)
        LCALL   ?Subroutine13 & 0xFFFF
??CrossCallReturnLabel_21:
        MOVX    A,@DPTR
        MOV     R1,A
        LCALL   ?Subroutine10 & 0xFFFF
??CrossCallReturnLabel_15:
        MOVX    A,@DPTR
        MOV     R4,A
        INC     DPTR
        MOVX    A,@DPTR
        MOV     R5,A
        LCALL   ?Subroutine18 & 0xFFFF
??CrossCallReturnLabel_28:
        LCALL   ??AF_DataRequest?relay; Banked call to: AF_DataRequest
        MOV     A,#0x9
        LCALL   ?DEALLOC_XSTACK8
          CFI CFA_XSP16 add(XSP16, 12)
        MOV     A,R1
        MOV     DPL,?XSP + 0
        MOV     DPH,?XSP + 1
        MOVX    @DPTR,A
//  959     (void)osal_mem_free(pMtAfDataReq);
        ; Setup parameters for call to function osal_mem_free
        LCALL   ?Subroutine17 & 0xFFFF
??CrossCallReturnLabel_112:
        LCALL   ??osal_mem_free?relay; Banked call to: osal_mem_free
//  960     pMtAfDataReq = NULL;
        MOV     DPTR,#pMtAfDataReq
        CLR     A
        MOVX    @DPTR,A
        INC     DPTR
        SJMP    ??MT_AfDataStore_3
//  961   }
//  962   else
//  963   {
//  964     (void)osal_memcpy(pMtAfDataReq->data+idx, pBuf, len);
??MT_AfDataStore_4:
        ; Setup parameters for call to function osal_memcpy
        MOV     ?V0,R2
        MOV     ?V1,R3
        MOV     ?V2,#0x0
        MOV     R0,#?V0
        LCALL   ?PUSH_XSTACK_I_THREE
          CFI CFA_XSP16 add(XSP16, 15)
        MOV     R5,#0x0
        LCALL   ?Subroutine9 & 0xFFFF
??CrossCallReturnLabel_13:
        MOVX    A,@DPTR
        ADD     A,R6
        MOV     R2,A
        INC     DPTR
        MOVX    A,@DPTR
        ADDC    A,R7
        MOV     R3,A
        LCALL   ??osal_memcpy?relay  ; Banked call to: osal_memcpy
        MOV     A,#0x3
        LCALL   ?DEALLOC_XSTACK8
          CFI CFA_XSP16 add(XSP16, 12)
//  965     rtrn = afStatus_SUCCESS;
        MOV     DPL,?XSP + 0
        MOV     DPH,?XSP + 1
        CLR     A
//  966   }
??MT_AfDataStore_3:
        LCALL   ?Subroutine30 & 0xFFFF
//  967 
//  968   MT_BuildAndSendZToolResponse(((uint8)MT_RPC_CMD_SRSP | (uint8)MT_RPC_SYS_AF),
//  969                                                                 MT_AF_DATA_STORE, 1, &rtrn);
??CrossCallReturnLabel_55:
        MOV     R3,#0x1
        MOV     R2,#0x11
        MOV     R1,#0x64
        LCALL   ??MT_BuildAndSendZToolResponse?relay; Banked call to: MT_BuildAndSendZToolResponse
//  970 }
        MOV     A,#0x1
        LCALL   ?DEALLOC_XSTACK8
          CFI CFA_XSP16 add(XSP16, 11)
        MOV     R7,#0x3
        LJMP    ?BANKED_LEAVE_XDATA
          CFI EndBlock cfiBlock224

        RSEG BANKED_CODE:CODE:NOROOT(0)
?Subroutine18:
          CFI Block cfiCond225 Using cfiCommon0
          CFI Function MT_AfDataRequest
          CFI Conditional ??CrossCallReturnLabel_27
          CFI R6 load(1, XDATA, add(CFA_XSP16, literal(-22)))
          CFI VB load(1, XDATA, add(CFA_XSP16, literal(-21)))
          CFI V0 load(1, XDATA, add(CFA_XSP16, literal(-20)))
          CFI V1 load(1, XDATA, add(CFA_XSP16, literal(-19)))
          CFI V2 load(1, XDATA, add(CFA_XSP16, literal(-18)))
          CFI V3 load(1, XDATA, add(CFA_XSP16, literal(-17)))
          CFI V4 load(1, XDATA, add(CFA_XSP16, literal(-16)))
          CFI V5 load(1, XDATA, add(CFA_XSP16, literal(-15)))
          CFI V6 load(1, XDATA, add(CFA_XSP16, literal(-14)))
          CFI V7 load(1, XDATA, add(CFA_XSP16, literal(-13)))
          CFI V8 load(1, XDATA, add(CFA_XSP16, literal(-12)))
          CFI V9 load(1, XDATA, add(CFA_XSP16, literal(-11)))
          CFI V10 load(1, XDATA, add(CFA_XSP16, literal(-10)))
          CFI V11 load(1, XDATA, add(CFA_XSP16, literal(-9)))
          CFI V12 load(1, XDATA, add(CFA_XSP16, literal(-8)))
          CFI V13 load(1, XDATA, add(CFA_XSP16, literal(-7)))
          CFI R7 load(1, XDATA, add(CFA_XSP16, literal(-6)))
          CFI ?RET_LOW load(1, XDATA, add(CFA_XSP16, literal(-5)))
          CFI ?RET_HIGH load(1, XDATA, add(CFA_XSP16, literal(-4)))
          CFI ?BRET_EXT load(1, XDATA, add(CFA_XSP16, literal(-3)))
          CFI DPL0 load(1, XDATA, add(CFA_XSP16, literal(-2)))
          CFI DPH0 load(1, XDATA, add(CFA_XSP16, literal(-1)))
          CFI CFA_SP SP+-2
          CFI CFA_XSP16 add(XSP16, 39)
          CFI Block cfiCond226 Using cfiCommon0
          CFI (cfiCond226) Function MT_AfDataStore
          CFI (cfiCond226) Conditional ??CrossCallReturnLabel_28
          CFI (cfiCond226) R6 load(1, XDATA, add(CFA_XSP16, literal(-11)))
          CFI (cfiCond226) VB load(1, XDATA, add(CFA_XSP16, literal(-10)))
          CFI (cfiCond226) V0 load(1, XDATA, add(CFA_XSP16, literal(-9)))
          CFI (cfiCond226) V1 load(1, XDATA, add(CFA_XSP16, literal(-8)))
          CFI (cfiCond226) V2 load(1, XDATA, add(CFA_XSP16, literal(-7)))
          CFI (cfiCond226) R7 load(1, XDATA, add(CFA_XSP16, literal(-6)))
          CFI (cfiCond226) ?RET_LOW load(1, XDATA, add(CFA_XSP16, literal(-5)))
          CFI (cfiCond226) ?RET_HIGH load(1, XDATA, add(CFA_XSP16, literal(-4)))
          CFI (cfiCond226) ?BRET_EXT load(1, XDATA, add(CFA_XSP16, literal(-3)))
          CFI (cfiCond226) DPL0 load(1, XDATA, add(CFA_XSP16, literal(-2)))
          CFI (cfiCond226) DPH0 load(1, XDATA, add(CFA_XSP16, literal(-1)))
          CFI (cfiCond226) CFA_SP SP+-2
          CFI (cfiCond226) CFA_XSP16 add(XSP16, 21)
          CFI Block cfiPicker227 Using cfiCommon1
          CFI (cfiPicker227) NoFunction
          CFI (cfiPicker227) Picker
        MOV     DPTR,#pMtAfDataReq
        MOVX    A,@DPTR
        ADD     A,#0x2
        MOV     R2,A
        INC     DPTR
        MOVX    A,@DPTR
        ADDC    A,#0x0
        MOV     R3,A
        RET
          CFI EndBlock cfiCond225
          CFI EndBlock cfiCond226
          CFI EndBlock cfiPicker227

        RSEG BANKED_CODE:CODE:NOROOT(0)
?Subroutine16:
          CFI Block cfiCond228 Using cfiCommon0
          CFI Function MT_AfDataRequest
          CFI Conditional ??CrossCallReturnLabel_25
          CFI R6 load(1, XDATA, add(CFA_XSP16, literal(-22)))
          CFI VB load(1, XDATA, add(CFA_XSP16, literal(-21)))
          CFI V0 load(1, XDATA, add(CFA_XSP16, literal(-20)))
          CFI V1 load(1, XDATA, add(CFA_XSP16, literal(-19)))
          CFI V2 load(1, XDATA, add(CFA_XSP16, literal(-18)))
          CFI V3 load(1, XDATA, add(CFA_XSP16, literal(-17)))
          CFI V4 load(1, XDATA, add(CFA_XSP16, literal(-16)))
          CFI V5 load(1, XDATA, add(CFA_XSP16, literal(-15)))
          CFI V6 load(1, XDATA, add(CFA_XSP16, literal(-14)))
          CFI V7 load(1, XDATA, add(CFA_XSP16, literal(-13)))
          CFI V8 load(1, XDATA, add(CFA_XSP16, literal(-12)))
          CFI V9 load(1, XDATA, add(CFA_XSP16, literal(-11)))
          CFI V10 load(1, XDATA, add(CFA_XSP16, literal(-10)))
          CFI V11 load(1, XDATA, add(CFA_XSP16, literal(-9)))
          CFI V12 load(1, XDATA, add(CFA_XSP16, literal(-8)))
          CFI V13 load(1, XDATA, add(CFA_XSP16, literal(-7)))
          CFI R7 load(1, XDATA, add(CFA_XSP16, literal(-6)))
          CFI ?RET_LOW load(1, XDATA, add(CFA_XSP16, literal(-5)))
          CFI ?RET_HIGH load(1, XDATA, add(CFA_XSP16, literal(-4)))
          CFI ?BRET_EXT load(1, XDATA, add(CFA_XSP16, literal(-3)))
          CFI DPL0 load(1, XDATA, add(CFA_XSP16, literal(-2)))
          CFI DPH0 load(1, XDATA, add(CFA_XSP16, literal(-1)))
          CFI CFA_SP SP+-2
          CFI CFA_XSP16 add(XSP16, 36)
          CFI Block cfiCond229 Using cfiCommon0
          CFI (cfiCond229) Function MT_AfDataStore
          CFI (cfiCond229) Conditional ??CrossCallReturnLabel_26
          CFI (cfiCond229) R6 load(1, XDATA, add(CFA_XSP16, literal(-11)))
          CFI (cfiCond229) VB load(1, XDATA, add(CFA_XSP16, literal(-10)))
          CFI (cfiCond229) V0 load(1, XDATA, add(CFA_XSP16, literal(-9)))
          CFI (cfiCond229) V1 load(1, XDATA, add(CFA_XSP16, literal(-8)))
          CFI (cfiCond229) V2 load(1, XDATA, add(CFA_XSP16, literal(-7)))
          CFI (cfiCond229) R7 load(1, XDATA, add(CFA_XSP16, literal(-6)))
          CFI (cfiCond229) ?RET_LOW load(1, XDATA, add(CFA_XSP16, literal(-5)))
          CFI (cfiCond229) ?RET_HIGH load(1, XDATA, add(CFA_XSP16, literal(-4)))
          CFI (cfiCond229) ?BRET_EXT load(1, XDATA, add(CFA_XSP16, literal(-3)))
          CFI (cfiCond229) DPL0 load(1, XDATA, add(CFA_XSP16, literal(-2)))
          CFI (cfiCond229) DPH0 load(1, XDATA, add(CFA_XSP16, literal(-1)))
          CFI (cfiCond229) CFA_SP SP+-2
          CFI (cfiCond229) CFA_XSP16 add(XSP16, 12)
          CFI Block cfiPicker230 Using cfiCommon1
          CFI (cfiPicker230) NoFunction
          CFI (cfiPicker230) Picker
        MOVX    A,@DPTR
        XCH     A,R0
        ADD     A,#0x16
        MOV     DPL,A
        CLR     A
        ADDC    A,R0
        MOV     DPH,A
        RET
          CFI EndBlock cfiCond228
          CFI EndBlock cfiCond229
          CFI EndBlock cfiPicker230

        RSEG BANKED_CODE:CODE:NOROOT(0)
?Subroutine13:
          CFI Block cfiCond231 Using cfiCommon0
          CFI Function MT_AfDataRequest
          CFI Conditional ??CrossCallReturnLabel_20
          CFI R6 load(1, XDATA, add(CFA_XSP16, literal(-22)))
          CFI VB load(1, XDATA, add(CFA_XSP16, literal(-21)))
          CFI V0 load(1, XDATA, add(CFA_XSP16, literal(-20)))
          CFI V1 load(1, XDATA, add(CFA_XSP16, literal(-19)))
          CFI V2 load(1, XDATA, add(CFA_XSP16, literal(-18)))
          CFI V3 load(1, XDATA, add(CFA_XSP16, literal(-17)))
          CFI V4 load(1, XDATA, add(CFA_XSP16, literal(-16)))
          CFI V5 load(1, XDATA, add(CFA_XSP16, literal(-15)))
          CFI V6 load(1, XDATA, add(CFA_XSP16, literal(-14)))
          CFI V7 load(1, XDATA, add(CFA_XSP16, literal(-13)))
          CFI V8 load(1, XDATA, add(CFA_XSP16, literal(-12)))
          CFI V9 load(1, XDATA, add(CFA_XSP16, literal(-11)))
          CFI V10 load(1, XDATA, add(CFA_XSP16, literal(-10)))
          CFI V11 load(1, XDATA, add(CFA_XSP16, literal(-9)))
          CFI V12 load(1, XDATA, add(CFA_XSP16, literal(-8)))
          CFI V13 load(1, XDATA, add(CFA_XSP16, literal(-7)))
          CFI R7 load(1, XDATA, add(CFA_XSP16, literal(-6)))
          CFI ?RET_LOW load(1, XDATA, add(CFA_XSP16, literal(-5)))
          CFI ?RET_HIGH load(1, XDATA, add(CFA_XSP16, literal(-4)))
          CFI ?BRET_EXT load(1, XDATA, add(CFA_XSP16, literal(-3)))
          CFI DPL0 load(1, XDATA, add(CFA_XSP16, literal(-2)))
          CFI DPH0 load(1, XDATA, add(CFA_XSP16, literal(-1)))
          CFI CFA_SP SP+-2
          CFI CFA_XSP16 add(XSP16, 36)
          CFI Block cfiCond232 Using cfiCommon0
          CFI (cfiCond232) Function MT_AfDataStore
          CFI (cfiCond232) Conditional ??CrossCallReturnLabel_21
          CFI (cfiCond232) R6 load(1, XDATA, add(CFA_XSP16, literal(-11)))
          CFI (cfiCond232) VB load(1, XDATA, add(CFA_XSP16, literal(-10)))
          CFI (cfiCond232) V0 load(1, XDATA, add(CFA_XSP16, literal(-9)))
          CFI (cfiCond232) V1 load(1, XDATA, add(CFA_XSP16, literal(-8)))
          CFI (cfiCond232) V2 load(1, XDATA, add(CFA_XSP16, literal(-7)))
          CFI (cfiCond232) R7 load(1, XDATA, add(CFA_XSP16, literal(-6)))
          CFI (cfiCond232) ?RET_LOW load(1, XDATA, add(CFA_XSP16, literal(-5)))
          CFI (cfiCond232) ?RET_HIGH load(1, XDATA, add(CFA_XSP16, literal(-4)))
          CFI (cfiCond232) ?BRET_EXT load(1, XDATA, add(CFA_XSP16, literal(-3)))
          CFI (cfiCond232) DPL0 load(1, XDATA, add(CFA_XSP16, literal(-2)))
          CFI (cfiCond232) DPH0 load(1, XDATA, add(CFA_XSP16, literal(-1)))
          CFI (cfiCond232) CFA_SP SP+-2
          CFI (cfiCond232) CFA_XSP16 add(XSP16, 21)
          CFI Block cfiPicker233 Using cfiCommon1
          CFI (cfiPicker233) NoFunction
          CFI (cfiPicker233) Picker
        LCALL   ?Subroutine35 & 0xFFFF
??CrossCallReturnLabel_75:
        ADD     A,#0x15
        MOV     DPL,A
        CLR     A
        ADDC    A,R0
        MOV     DPH,A
        RET
          CFI EndBlock cfiCond231
          CFI EndBlock cfiCond232
          CFI EndBlock cfiPicker233

        RSEG BANKED_CODE:CODE:NOROOT(0)
?Subroutine12:
          CFI Block cfiCond234 Using cfiCommon0
          CFI Function MT_AfDataRequest
          CFI Conditional ??CrossCallReturnLabel_18
          CFI R6 load(1, XDATA, add(CFA_XSP16, literal(-22)))
          CFI VB load(1, XDATA, add(CFA_XSP16, literal(-21)))
          CFI V0 load(1, XDATA, add(CFA_XSP16, literal(-20)))
          CFI V1 load(1, XDATA, add(CFA_XSP16, literal(-19)))
          CFI V2 load(1, XDATA, add(CFA_XSP16, literal(-18)))
          CFI V3 load(1, XDATA, add(CFA_XSP16, literal(-17)))
          CFI V4 load(1, XDATA, add(CFA_XSP16, literal(-16)))
          CFI V5 load(1, XDATA, add(CFA_XSP16, literal(-15)))
          CFI V6 load(1, XDATA, add(CFA_XSP16, literal(-14)))
          CFI V7 load(1, XDATA, add(CFA_XSP16, literal(-13)))
          CFI V8 load(1, XDATA, add(CFA_XSP16, literal(-12)))
          CFI V9 load(1, XDATA, add(CFA_XSP16, literal(-11)))
          CFI V10 load(1, XDATA, add(CFA_XSP16, literal(-10)))
          CFI V11 load(1, XDATA, add(CFA_XSP16, literal(-9)))
          CFI V12 load(1, XDATA, add(CFA_XSP16, literal(-8)))
          CFI V13 load(1, XDATA, add(CFA_XSP16, literal(-7)))
          CFI R7 load(1, XDATA, add(CFA_XSP16, literal(-6)))
          CFI ?RET_LOW load(1, XDATA, add(CFA_XSP16, literal(-5)))
          CFI ?RET_HIGH load(1, XDATA, add(CFA_XSP16, literal(-4)))
          CFI ?BRET_EXT load(1, XDATA, add(CFA_XSP16, literal(-3)))
          CFI DPL0 load(1, XDATA, add(CFA_XSP16, literal(-2)))
          CFI DPH0 load(1, XDATA, add(CFA_XSP16, literal(-1)))
          CFI CFA_SP SP+-2
          CFI CFA_XSP16 add(XSP16, 36)
          CFI Block cfiCond235 Using cfiCommon0
          CFI (cfiCond235) Function MT_AfDataStore
          CFI (cfiCond235) Conditional ??CrossCallReturnLabel_19
          CFI (cfiCond235) R6 load(1, XDATA, add(CFA_XSP16, literal(-11)))
          CFI (cfiCond235) VB load(1, XDATA, add(CFA_XSP16, literal(-10)))
          CFI (cfiCond235) V0 load(1, XDATA, add(CFA_XSP16, literal(-9)))
          CFI (cfiCond235) V1 load(1, XDATA, add(CFA_XSP16, literal(-8)))
          CFI (cfiCond235) V2 load(1, XDATA, add(CFA_XSP16, literal(-7)))
          CFI (cfiCond235) R7 load(1, XDATA, add(CFA_XSP16, literal(-6)))
          CFI (cfiCond235) ?RET_LOW load(1, XDATA, add(CFA_XSP16, literal(-5)))
          CFI (cfiCond235) ?RET_HIGH load(1, XDATA, add(CFA_XSP16, literal(-4)))
          CFI (cfiCond235) ?BRET_EXT load(1, XDATA, add(CFA_XSP16, literal(-3)))
          CFI (cfiCond235) DPL0 load(1, XDATA, add(CFA_XSP16, literal(-2)))
          CFI (cfiCond235) DPH0 load(1, XDATA, add(CFA_XSP16, literal(-1)))
          CFI (cfiCond235) CFA_SP SP+-2
          CFI (cfiCond235) CFA_XSP16 add(XSP16, 17)
          CFI Block cfiPicker236 Using cfiCommon1
          CFI (cfiPicker236) NoFunction
          CFI (cfiPicker236) Picker
        LCALL   ?Subroutine35 & 0xFFFF
??CrossCallReturnLabel_74:
        ADD     A,#0x12
        MOV     DPL,A
        CLR     A
        ADDC    A,R0
        MOV     DPH,A
        RET
          CFI EndBlock cfiCond234
          CFI EndBlock cfiCond235
          CFI EndBlock cfiPicker236

        RSEG BANKED_CODE:CODE:NOROOT(0)
?Subroutine35:
          CFI Block cfiCond237 Using cfiCommon0
          CFI Function MT_AfDataRequest
          CFI Conditional ??CrossCallReturnLabel_70
          CFI R6 load(1, XDATA, add(CFA_XSP16, literal(-22)))
          CFI VB load(1, XDATA, add(CFA_XSP16, literal(-21)))
          CFI V0 load(1, XDATA, add(CFA_XSP16, literal(-20)))
          CFI V1 load(1, XDATA, add(CFA_XSP16, literal(-19)))
          CFI V2 load(1, XDATA, add(CFA_XSP16, literal(-18)))
          CFI V3 load(1, XDATA, add(CFA_XSP16, literal(-17)))
          CFI V4 load(1, XDATA, add(CFA_XSP16, literal(-16)))
          CFI V5 load(1, XDATA, add(CFA_XSP16, literal(-15)))
          CFI V6 load(1, XDATA, add(CFA_XSP16, literal(-14)))
          CFI V7 load(1, XDATA, add(CFA_XSP16, literal(-13)))
          CFI V8 load(1, XDATA, add(CFA_XSP16, literal(-12)))
          CFI V9 load(1, XDATA, add(CFA_XSP16, literal(-11)))
          CFI V10 load(1, XDATA, add(CFA_XSP16, literal(-10)))
          CFI V11 load(1, XDATA, add(CFA_XSP16, literal(-9)))
          CFI V12 load(1, XDATA, add(CFA_XSP16, literal(-8)))
          CFI V13 load(1, XDATA, add(CFA_XSP16, literal(-7)))
          CFI R7 load(1, XDATA, add(CFA_XSP16, literal(-6)))
          CFI ?RET_LOW load(1, XDATA, add(CFA_XSP16, literal(-5)))
          CFI ?RET_HIGH load(1, XDATA, add(CFA_XSP16, literal(-4)))
          CFI ?BRET_EXT load(1, XDATA, add(CFA_XSP16, literal(-3)))
          CFI DPL0 load(1, XDATA, add(CFA_XSP16, literal(-2)))
          CFI DPH0 load(1, XDATA, add(CFA_XSP16, literal(-1)))
          CFI CFA_XSP16 add(XSP16, 36)
          CFI Block cfiCond238 Using cfiCommon0
          CFI (cfiCond238) Function MT_AfExec
          CFI (cfiCond238) Conditional ??CrossCallReturnLabel_71, ??CrossCallReturnLabel_10
          CFI (cfiCond238) R6 load(1, XDATA, add(CFA_XSP16, literal(-9)))
          CFI (cfiCond238) VB load(1, XDATA, add(CFA_XSP16, literal(-8)))
          CFI (cfiCond238) V0 load(1, XDATA, add(CFA_XSP16, literal(-7)))
          CFI (cfiCond238) R7 load(1, XDATA, add(CFA_XSP16, literal(-6)))
          CFI (cfiCond238) ?RET_LOW load(1, XDATA, add(CFA_XSP16, literal(-5)))
          CFI (cfiCond238) ?RET_HIGH load(1, XDATA, add(CFA_XSP16, literal(-4)))
          CFI (cfiCond238) ?BRET_EXT load(1, XDATA, add(CFA_XSP16, literal(-3)))
          CFI (cfiCond238) DPL0 load(1, XDATA, add(CFA_XSP16, literal(-2)))
          CFI (cfiCond238) DPH0 load(1, XDATA, add(CFA_XSP16, literal(-1)))
          CFI (cfiCond238) CFA_SP SP+-4
          CFI (cfiCond238) CFA_XSP16 add(XSP16, 9)
          CFI Block cfiCond239 Using cfiCommon0
          CFI (cfiCond239) Function MT_AfDataRequest
          CFI (cfiCond239) Conditional ??CrossCallReturnLabel_71, ??CrossCallReturnLabel_9
          CFI (cfiCond239) R6 load(1, XDATA, add(CFA_XSP16, literal(-22)))
          CFI (cfiCond239) VB load(1, XDATA, add(CFA_XSP16, literal(-21)))
          CFI (cfiCond239) V0 load(1, XDATA, add(CFA_XSP16, literal(-20)))
          CFI (cfiCond239) V1 load(1, XDATA, add(CFA_XSP16, literal(-19)))
          CFI (cfiCond239) V2 load(1, XDATA, add(CFA_XSP16, literal(-18)))
          CFI (cfiCond239) V3 load(1, XDATA, add(CFA_XSP16, literal(-17)))
          CFI (cfiCond239) V4 load(1, XDATA, add(CFA_XSP16, literal(-16)))
          CFI (cfiCond239) V5 load(1, XDATA, add(CFA_XSP16, literal(-15)))
          CFI (cfiCond239) V6 load(1, XDATA, add(CFA_XSP16, literal(-14)))
          CFI (cfiCond239) V7 load(1, XDATA, add(CFA_XSP16, literal(-13)))
          CFI (cfiCond239) V8 load(1, XDATA, add(CFA_XSP16, literal(-12)))
          CFI (cfiCond239) V9 load(1, XDATA, add(CFA_XSP16, literal(-11)))
          CFI (cfiCond239) V10 load(1, XDATA, add(CFA_XSP16, literal(-10)))
          CFI (cfiCond239) V11 load(1, XDATA, add(CFA_XSP16, literal(-9)))
          CFI (cfiCond239) V12 load(1, XDATA, add(CFA_XSP16, literal(-8)))
          CFI (cfiCond239) V13 load(1, XDATA, add(CFA_XSP16, literal(-7)))
          CFI (cfiCond239) R7 load(1, XDATA, add(CFA_XSP16, literal(-6)))
          CFI (cfiCond239) ?RET_LOW load(1, XDATA, add(CFA_XSP16, literal(-5)))
          CFI (cfiCond239) ?RET_HIGH load(1, XDATA, add(CFA_XSP16, literal(-4)))
          CFI (cfiCond239) ?BRET_EXT load(1, XDATA, add(CFA_XSP16, literal(-3)))
          CFI (cfiCond239) DPL0 load(1, XDATA, add(CFA_XSP16, literal(-2)))
          CFI (cfiCond239) DPH0 load(1, XDATA, add(CFA_XSP16, literal(-1)))
          CFI (cfiCond239) CFA_SP SP+-4
          CFI (cfiCond239) CFA_XSP16 add(XSP16, 36)
          CFI Block cfiCond240 Using cfiCommon0
          CFI (cfiCond240) Function MT_AfDataRequest
          CFI (cfiCond240) Conditional ??CrossCallReturnLabel_75, ??CrossCallReturnLabel_20
          CFI (cfiCond240) R6 load(1, XDATA, add(CFA_XSP16, literal(-22)))
          CFI (cfiCond240) VB load(1, XDATA, add(CFA_XSP16, literal(-21)))
          CFI (cfiCond240) V0 load(1, XDATA, add(CFA_XSP16, literal(-20)))
          CFI (cfiCond240) V1 load(1, XDATA, add(CFA_XSP16, literal(-19)))
          CFI (cfiCond240) V2 load(1, XDATA, add(CFA_XSP16, literal(-18)))
          CFI (cfiCond240) V3 load(1, XDATA, add(CFA_XSP16, literal(-17)))
          CFI (cfiCond240) V4 load(1, XDATA, add(CFA_XSP16, literal(-16)))
          CFI (cfiCond240) V5 load(1, XDATA, add(CFA_XSP16, literal(-15)))
          CFI (cfiCond240) V6 load(1, XDATA, add(CFA_XSP16, literal(-14)))
          CFI (cfiCond240) V7 load(1, XDATA, add(CFA_XSP16, literal(-13)))
          CFI (cfiCond240) V8 load(1, XDATA, add(CFA_XSP16, literal(-12)))
          CFI (cfiCond240) V9 load(1, XDATA, add(CFA_XSP16, literal(-11)))
          CFI (cfiCond240) V10 load(1, XDATA, add(CFA_XSP16, literal(-10)))
          CFI (cfiCond240) V11 load(1, XDATA, add(CFA_XSP16, literal(-9)))
          CFI (cfiCond240) V12 load(1, XDATA, add(CFA_XSP16, literal(-8)))
          CFI (cfiCond240) V13 load(1, XDATA, add(CFA_XSP16, literal(-7)))
          CFI (cfiCond240) R7 load(1, XDATA, add(CFA_XSP16, literal(-6)))
          CFI (cfiCond240) ?RET_LOW load(1, XDATA, add(CFA_XSP16, literal(-5)))
          CFI (cfiCond240) ?RET_HIGH load(1, XDATA, add(CFA_XSP16, literal(-4)))
          CFI (cfiCond240) ?BRET_EXT load(1, XDATA, add(CFA_XSP16, literal(-3)))
          CFI (cfiCond240) DPL0 load(1, XDATA, add(CFA_XSP16, literal(-2)))
          CFI (cfiCond240) DPH0 load(1, XDATA, add(CFA_XSP16, literal(-1)))
          CFI (cfiCond240) CFA_SP SP+-4
          CFI (cfiCond240) CFA_XSP16 add(XSP16, 36)
          CFI Block cfiCond241 Using cfiCommon0
          CFI (cfiCond241) Function MT_AfDataStore
          CFI (cfiCond241) Conditional ??CrossCallReturnLabel_75, ??CrossCallReturnLabel_21
          CFI (cfiCond241) R6 load(1, XDATA, add(CFA_XSP16, literal(-11)))
          CFI (cfiCond241) VB load(1, XDATA, add(CFA_XSP16, literal(-10)))
          CFI (cfiCond241) V0 load(1, XDATA, add(CFA_XSP16, literal(-9)))
          CFI (cfiCond241) V1 load(1, XDATA, add(CFA_XSP16, literal(-8)))
          CFI (cfiCond241) V2 load(1, XDATA, add(CFA_XSP16, literal(-7)))
          CFI (cfiCond241) R7 load(1, XDATA, add(CFA_XSP16, literal(-6)))
          CFI (cfiCond241) ?RET_LOW load(1, XDATA, add(CFA_XSP16, literal(-5)))
          CFI (cfiCond241) ?RET_HIGH load(1, XDATA, add(CFA_XSP16, literal(-4)))
          CFI (cfiCond241) ?BRET_EXT load(1, XDATA, add(CFA_XSP16, literal(-3)))
          CFI (cfiCond241) DPL0 load(1, XDATA, add(CFA_XSP16, literal(-2)))
          CFI (cfiCond241) DPH0 load(1, XDATA, add(CFA_XSP16, literal(-1)))
          CFI (cfiCond241) CFA_SP SP+-4
          CFI (cfiCond241) CFA_XSP16 add(XSP16, 21)
          CFI Block cfiCond242 Using cfiCommon0
          CFI (cfiCond242) Function MT_AfDataRequest
          CFI (cfiCond242) Conditional ??CrossCallReturnLabel_74, ??CrossCallReturnLabel_18
          CFI (cfiCond242) R6 load(1, XDATA, add(CFA_XSP16, literal(-22)))
          CFI (cfiCond242) VB load(1, XDATA, add(CFA_XSP16, literal(-21)))
          CFI (cfiCond242) V0 load(1, XDATA, add(CFA_XSP16, literal(-20)))
          CFI (cfiCond242) V1 load(1, XDATA, add(CFA_XSP16, literal(-19)))
          CFI (cfiCond242) V2 load(1, XDATA, add(CFA_XSP16, literal(-18)))
          CFI (cfiCond242) V3 load(1, XDATA, add(CFA_XSP16, literal(-17)))
          CFI (cfiCond242) V4 load(1, XDATA, add(CFA_XSP16, literal(-16)))
          CFI (cfiCond242) V5 load(1, XDATA, add(CFA_XSP16, literal(-15)))
          CFI (cfiCond242) V6 load(1, XDATA, add(CFA_XSP16, literal(-14)))
          CFI (cfiCond242) V7 load(1, XDATA, add(CFA_XSP16, literal(-13)))
          CFI (cfiCond242) V8 load(1, XDATA, add(CFA_XSP16, literal(-12)))
          CFI (cfiCond242) V9 load(1, XDATA, add(CFA_XSP16, literal(-11)))
          CFI (cfiCond242) V10 load(1, XDATA, add(CFA_XSP16, literal(-10)))
          CFI (cfiCond242) V11 load(1, XDATA, add(CFA_XSP16, literal(-9)))
          CFI (cfiCond242) V12 load(1, XDATA, add(CFA_XSP16, literal(-8)))
          CFI (cfiCond242) V13 load(1, XDATA, add(CFA_XSP16, literal(-7)))
          CFI (cfiCond242) R7 load(1, XDATA, add(CFA_XSP16, literal(-6)))
          CFI (cfiCond242) ?RET_LOW load(1, XDATA, add(CFA_XSP16, literal(-5)))
          CFI (cfiCond242) ?RET_HIGH load(1, XDATA, add(CFA_XSP16, literal(-4)))
          CFI (cfiCond242) ?BRET_EXT load(1, XDATA, add(CFA_XSP16, literal(-3)))
          CFI (cfiCond242) DPL0 load(1, XDATA, add(CFA_XSP16, literal(-2)))
          CFI (cfiCond242) DPH0 load(1, XDATA, add(CFA_XSP16, literal(-1)))
          CFI (cfiCond242) CFA_SP SP+-4
          CFI (cfiCond242) CFA_XSP16 add(XSP16, 36)
          CFI Block cfiCond243 Using cfiCommon0
          CFI (cfiCond243) Function MT_AfDataStore
          CFI (cfiCond243) Conditional ??CrossCallReturnLabel_74, ??CrossCallReturnLabel_19
          CFI (cfiCond243) R6 load(1, XDATA, add(CFA_XSP16, literal(-11)))
          CFI (cfiCond243) VB load(1, XDATA, add(CFA_XSP16, literal(-10)))
          CFI (cfiCond243) V0 load(1, XDATA, add(CFA_XSP16, literal(-9)))
          CFI (cfiCond243) V1 load(1, XDATA, add(CFA_XSP16, literal(-8)))
          CFI (cfiCond243) V2 load(1, XDATA, add(CFA_XSP16, literal(-7)))
          CFI (cfiCond243) R7 load(1, XDATA, add(CFA_XSP16, literal(-6)))
          CFI (cfiCond243) ?RET_LOW load(1, XDATA, add(CFA_XSP16, literal(-5)))
          CFI (cfiCond243) ?RET_HIGH load(1, XDATA, add(CFA_XSP16, literal(-4)))
          CFI (cfiCond243) ?BRET_EXT load(1, XDATA, add(CFA_XSP16, literal(-3)))
          CFI (cfiCond243) DPL0 load(1, XDATA, add(CFA_XSP16, literal(-2)))
          CFI (cfiCond243) DPH0 load(1, XDATA, add(CFA_XSP16, literal(-1)))
          CFI (cfiCond243) CFA_SP SP+-4
          CFI (cfiCond243) CFA_XSP16 add(XSP16, 17)
          CFI Block cfiCond244 Using cfiCommon0
          CFI (cfiCond244) Function MT_AfDataRequest
          CFI (cfiCond244) Conditional ??CrossCallReturnLabel_73, ??CrossCallReturnLabel_16
          CFI (cfiCond244) R6 load(1, XDATA, add(CFA_XSP16, literal(-22)))
          CFI (cfiCond244) VB load(1, XDATA, add(CFA_XSP16, literal(-21)))
          CFI (cfiCond244) V0 load(1, XDATA, add(CFA_XSP16, literal(-20)))
          CFI (cfiCond244) V1 load(1, XDATA, add(CFA_XSP16, literal(-19)))
          CFI (cfiCond244) V2 load(1, XDATA, add(CFA_XSP16, literal(-18)))
          CFI (cfiCond244) V3 load(1, XDATA, add(CFA_XSP16, literal(-17)))
          CFI (cfiCond244) V4 load(1, XDATA, add(CFA_XSP16, literal(-16)))
          CFI (cfiCond244) V5 load(1, XDATA, add(CFA_XSP16, literal(-15)))
          CFI (cfiCond244) V6 load(1, XDATA, add(CFA_XSP16, literal(-14)))
          CFI (cfiCond244) V7 load(1, XDATA, add(CFA_XSP16, literal(-13)))
          CFI (cfiCond244) V8 load(1, XDATA, add(CFA_XSP16, literal(-12)))
          CFI (cfiCond244) V9 load(1, XDATA, add(CFA_XSP16, literal(-11)))
          CFI (cfiCond244) V10 load(1, XDATA, add(CFA_XSP16, literal(-10)))
          CFI (cfiCond244) V11 load(1, XDATA, add(CFA_XSP16, literal(-9)))
          CFI (cfiCond244) V12 load(1, XDATA, add(CFA_XSP16, literal(-8)))
          CFI (cfiCond244) V13 load(1, XDATA, add(CFA_XSP16, literal(-7)))
          CFI (cfiCond244) R7 load(1, XDATA, add(CFA_XSP16, literal(-6)))
          CFI (cfiCond244) ?RET_LOW load(1, XDATA, add(CFA_XSP16, literal(-5)))
          CFI (cfiCond244) ?RET_HIGH load(1, XDATA, add(CFA_XSP16, literal(-4)))
          CFI (cfiCond244) ?BRET_EXT load(1, XDATA, add(CFA_XSP16, literal(-3)))
          CFI (cfiCond244) DPL0 load(1, XDATA, add(CFA_XSP16, literal(-2)))
          CFI (cfiCond244) DPH0 load(1, XDATA, add(CFA_XSP16, literal(-1)))
          CFI (cfiCond244) CFA_SP SP+-4
          CFI (cfiCond244) CFA_XSP16 add(XSP16, 36)
          CFI Block cfiCond245 Using cfiCommon0
          CFI (cfiCond245) Function MT_AfDataStore
          CFI (cfiCond245) Conditional ??CrossCallReturnLabel_73, ??CrossCallReturnLabel_17
          CFI (cfiCond245) R6 load(1, XDATA, add(CFA_XSP16, literal(-11)))
          CFI (cfiCond245) VB load(1, XDATA, add(CFA_XSP16, literal(-10)))
          CFI (cfiCond245) V0 load(1, XDATA, add(CFA_XSP16, literal(-9)))
          CFI (cfiCond245) V1 load(1, XDATA, add(CFA_XSP16, literal(-8)))
          CFI (cfiCond245) V2 load(1, XDATA, add(CFA_XSP16, literal(-7)))
          CFI (cfiCond245) R7 load(1, XDATA, add(CFA_XSP16, literal(-6)))
          CFI (cfiCond245) ?RET_LOW load(1, XDATA, add(CFA_XSP16, literal(-5)))
          CFI (cfiCond245) ?RET_HIGH load(1, XDATA, add(CFA_XSP16, literal(-4)))
          CFI (cfiCond245) ?BRET_EXT load(1, XDATA, add(CFA_XSP16, literal(-3)))
          CFI (cfiCond245) DPL0 load(1, XDATA, add(CFA_XSP16, literal(-2)))
          CFI (cfiCond245) DPH0 load(1, XDATA, add(CFA_XSP16, literal(-1)))
          CFI (cfiCond245) CFA_SP SP+-4
          CFI (cfiCond245) CFA_XSP16 add(XSP16, 19)
          CFI Block cfiCond246 Using cfiCommon0
          CFI (cfiCond246) Function MT_AfDataRequest
          CFI (cfiCond246) Conditional ??CrossCallReturnLabel_72, ??CrossCallReturnLabel_14
          CFI (cfiCond246) R6 load(1, XDATA, add(CFA_XSP16, literal(-22)))
          CFI (cfiCond246) VB load(1, XDATA, add(CFA_XSP16, literal(-21)))
          CFI (cfiCond246) V0 load(1, XDATA, add(CFA_XSP16, literal(-20)))
          CFI (cfiCond246) V1 load(1, XDATA, add(CFA_XSP16, literal(-19)))
          CFI (cfiCond246) V2 load(1, XDATA, add(CFA_XSP16, literal(-18)))
          CFI (cfiCond246) V3 load(1, XDATA, add(CFA_XSP16, literal(-17)))
          CFI (cfiCond246) V4 load(1, XDATA, add(CFA_XSP16, literal(-16)))
          CFI (cfiCond246) V5 load(1, XDATA, add(CFA_XSP16, literal(-15)))
          CFI (cfiCond246) V6 load(1, XDATA, add(CFA_XSP16, literal(-14)))
          CFI (cfiCond246) V7 load(1, XDATA, add(CFA_XSP16, literal(-13)))
          CFI (cfiCond246) V8 load(1, XDATA, add(CFA_XSP16, literal(-12)))
          CFI (cfiCond246) V9 load(1, XDATA, add(CFA_XSP16, literal(-11)))
          CFI (cfiCond246) V10 load(1, XDATA, add(CFA_XSP16, literal(-10)))
          CFI (cfiCond246) V11 load(1, XDATA, add(CFA_XSP16, literal(-9)))
          CFI (cfiCond246) V12 load(1, XDATA, add(CFA_XSP16, literal(-8)))
          CFI (cfiCond246) V13 load(1, XDATA, add(CFA_XSP16, literal(-7)))
          CFI (cfiCond246) R7 load(1, XDATA, add(CFA_XSP16, literal(-6)))
          CFI (cfiCond246) ?RET_LOW load(1, XDATA, add(CFA_XSP16, literal(-5)))
          CFI (cfiCond246) ?RET_HIGH load(1, XDATA, add(CFA_XSP16, literal(-4)))
          CFI (cfiCond246) ?BRET_EXT load(1, XDATA, add(CFA_XSP16, literal(-3)))
          CFI (cfiCond246) DPL0 load(1, XDATA, add(CFA_XSP16, literal(-2)))
          CFI (cfiCond246) DPH0 load(1, XDATA, add(CFA_XSP16, literal(-1)))
          CFI (cfiCond246) CFA_SP SP+-4
          CFI (cfiCond246) CFA_XSP16 add(XSP16, 36)
          CFI Block cfiCond247 Using cfiCommon0
          CFI (cfiCond247) Function MT_AfDataStore
          CFI (cfiCond247) Conditional ??CrossCallReturnLabel_72, ??CrossCallReturnLabel_15
          CFI (cfiCond247) R6 load(1, XDATA, add(CFA_XSP16, literal(-11)))
          CFI (cfiCond247) VB load(1, XDATA, add(CFA_XSP16, literal(-10)))
          CFI (cfiCond247) V0 load(1, XDATA, add(CFA_XSP16, literal(-9)))
          CFI (cfiCond247) V1 load(1, XDATA, add(CFA_XSP16, literal(-8)))
          CFI (cfiCond247) V2 load(1, XDATA, add(CFA_XSP16, literal(-7)))
          CFI (cfiCond247) R7 load(1, XDATA, add(CFA_XSP16, literal(-6)))
          CFI (cfiCond247) ?RET_LOW load(1, XDATA, add(CFA_XSP16, literal(-5)))
          CFI (cfiCond247) ?RET_HIGH load(1, XDATA, add(CFA_XSP16, literal(-4)))
          CFI (cfiCond247) ?BRET_EXT load(1, XDATA, add(CFA_XSP16, literal(-3)))
          CFI (cfiCond247) DPL0 load(1, XDATA, add(CFA_XSP16, literal(-2)))
          CFI (cfiCond247) DPH0 load(1, XDATA, add(CFA_XSP16, literal(-1)))
          CFI (cfiCond247) CFA_SP SP+-4
          CFI (cfiCond247) CFA_XSP16 add(XSP16, 21)
          CFI Block cfiPicker248 Using cfiCommon1
          CFI (cfiPicker248) NoFunction
          CFI (cfiPicker248) Picker
        MOV     DPTR,#pMtAfDataReq
        MOVX    A,@DPTR
        MOV     R0,A
        INC     DPTR
        MOVX    A,@DPTR
        XCH     A,R0
        RET
          CFI EndBlock cfiCond237
          CFI EndBlock cfiCond238
          CFI EndBlock cfiCond239
          CFI EndBlock cfiCond240
          CFI EndBlock cfiCond241
          CFI EndBlock cfiCond242
          CFI EndBlock cfiCond243
          CFI EndBlock cfiCond244
          CFI EndBlock cfiCond245
          CFI EndBlock cfiCond246
          CFI EndBlock cfiCond247
          CFI EndBlock cfiPicker248

        RSEG BANKED_CODE:CODE:NOROOT(0)
?Subroutine11:
          CFI Block cfiCond249 Using cfiCommon0
          CFI Function MT_AfDataRequest
          CFI Conditional ??CrossCallReturnLabel_16
          CFI R6 load(1, XDATA, add(CFA_XSP16, literal(-22)))
          CFI VB load(1, XDATA, add(CFA_XSP16, literal(-21)))
          CFI V0 load(1, XDATA, add(CFA_XSP16, literal(-20)))
          CFI V1 load(1, XDATA, add(CFA_XSP16, literal(-19)))
          CFI V2 load(1, XDATA, add(CFA_XSP16, literal(-18)))
          CFI V3 load(1, XDATA, add(CFA_XSP16, literal(-17)))
          CFI V4 load(1, XDATA, add(CFA_XSP16, literal(-16)))
          CFI V5 load(1, XDATA, add(CFA_XSP16, literal(-15)))
          CFI V6 load(1, XDATA, add(CFA_XSP16, literal(-14)))
          CFI V7 load(1, XDATA, add(CFA_XSP16, literal(-13)))
          CFI V8 load(1, XDATA, add(CFA_XSP16, literal(-12)))
          CFI V9 load(1, XDATA, add(CFA_XSP16, literal(-11)))
          CFI V10 load(1, XDATA, add(CFA_XSP16, literal(-10)))
          CFI V11 load(1, XDATA, add(CFA_XSP16, literal(-9)))
          CFI V12 load(1, XDATA, add(CFA_XSP16, literal(-8)))
          CFI V13 load(1, XDATA, add(CFA_XSP16, literal(-7)))
          CFI R7 load(1, XDATA, add(CFA_XSP16, literal(-6)))
          CFI ?RET_LOW load(1, XDATA, add(CFA_XSP16, literal(-5)))
          CFI ?RET_HIGH load(1, XDATA, add(CFA_XSP16, literal(-4)))
          CFI ?BRET_EXT load(1, XDATA, add(CFA_XSP16, literal(-3)))
          CFI DPL0 load(1, XDATA, add(CFA_XSP16, literal(-2)))
          CFI DPH0 load(1, XDATA, add(CFA_XSP16, literal(-1)))
          CFI CFA_SP SP+-2
          CFI CFA_XSP16 add(XSP16, 36)
          CFI Block cfiCond250 Using cfiCommon0
          CFI (cfiCond250) Function MT_AfDataStore
          CFI (cfiCond250) Conditional ??CrossCallReturnLabel_17
          CFI (cfiCond250) R6 load(1, XDATA, add(CFA_XSP16, literal(-11)))
          CFI (cfiCond250) VB load(1, XDATA, add(CFA_XSP16, literal(-10)))
          CFI (cfiCond250) V0 load(1, XDATA, add(CFA_XSP16, literal(-9)))
          CFI (cfiCond250) V1 load(1, XDATA, add(CFA_XSP16, literal(-8)))
          CFI (cfiCond250) V2 load(1, XDATA, add(CFA_XSP16, literal(-7)))
          CFI (cfiCond250) R7 load(1, XDATA, add(CFA_XSP16, literal(-6)))
          CFI (cfiCond250) ?RET_LOW load(1, XDATA, add(CFA_XSP16, literal(-5)))
          CFI (cfiCond250) ?RET_HIGH load(1, XDATA, add(CFA_XSP16, literal(-4)))
          CFI (cfiCond250) ?BRET_EXT load(1, XDATA, add(CFA_XSP16, literal(-3)))
          CFI (cfiCond250) DPL0 load(1, XDATA, add(CFA_XSP16, literal(-2)))
          CFI (cfiCond250) DPH0 load(1, XDATA, add(CFA_XSP16, literal(-1)))
          CFI (cfiCond250) CFA_SP SP+-2
          CFI (cfiCond250) CFA_XSP16 add(XSP16, 19)
          CFI Block cfiPicker251 Using cfiCommon1
          CFI (cfiPicker251) NoFunction
          CFI (cfiPicker251) Picker
        LCALL   ?Subroutine35 & 0xFFFF
??CrossCallReturnLabel_73:
        ADD     A,#0x10
        MOV     DPL,A
        CLR     A
        ADDC    A,R0
        MOV     DPH,A
        RET
          CFI EndBlock cfiCond249
          CFI EndBlock cfiCond250
          CFI EndBlock cfiPicker251

        RSEG BANKED_CODE:CODE:NOROOT(0)
?Subroutine10:
          CFI Block cfiCond252 Using cfiCommon0
          CFI Function MT_AfDataRequest
          CFI Conditional ??CrossCallReturnLabel_14
          CFI R6 load(1, XDATA, add(CFA_XSP16, literal(-22)))
          CFI VB load(1, XDATA, add(CFA_XSP16, literal(-21)))
          CFI V0 load(1, XDATA, add(CFA_XSP16, literal(-20)))
          CFI V1 load(1, XDATA, add(CFA_XSP16, literal(-19)))
          CFI V2 load(1, XDATA, add(CFA_XSP16, literal(-18)))
          CFI V3 load(1, XDATA, add(CFA_XSP16, literal(-17)))
          CFI V4 load(1, XDATA, add(CFA_XSP16, literal(-16)))
          CFI V5 load(1, XDATA, add(CFA_XSP16, literal(-15)))
          CFI V6 load(1, XDATA, add(CFA_XSP16, literal(-14)))
          CFI V7 load(1, XDATA, add(CFA_XSP16, literal(-13)))
          CFI V8 load(1, XDATA, add(CFA_XSP16, literal(-12)))
          CFI V9 load(1, XDATA, add(CFA_XSP16, literal(-11)))
          CFI V10 load(1, XDATA, add(CFA_XSP16, literal(-10)))
          CFI V11 load(1, XDATA, add(CFA_XSP16, literal(-9)))
          CFI V12 load(1, XDATA, add(CFA_XSP16, literal(-8)))
          CFI V13 load(1, XDATA, add(CFA_XSP16, literal(-7)))
          CFI R7 load(1, XDATA, add(CFA_XSP16, literal(-6)))
          CFI ?RET_LOW load(1, XDATA, add(CFA_XSP16, literal(-5)))
          CFI ?RET_HIGH load(1, XDATA, add(CFA_XSP16, literal(-4)))
          CFI ?BRET_EXT load(1, XDATA, add(CFA_XSP16, literal(-3)))
          CFI DPL0 load(1, XDATA, add(CFA_XSP16, literal(-2)))
          CFI DPH0 load(1, XDATA, add(CFA_XSP16, literal(-1)))
          CFI CFA_SP SP+-2
          CFI CFA_XSP16 add(XSP16, 36)
          CFI Block cfiCond253 Using cfiCommon0
          CFI (cfiCond253) Function MT_AfDataStore
          CFI (cfiCond253) Conditional ??CrossCallReturnLabel_15
          CFI (cfiCond253) R6 load(1, XDATA, add(CFA_XSP16, literal(-11)))
          CFI (cfiCond253) VB load(1, XDATA, add(CFA_XSP16, literal(-10)))
          CFI (cfiCond253) V0 load(1, XDATA, add(CFA_XSP16, literal(-9)))
          CFI (cfiCond253) V1 load(1, XDATA, add(CFA_XSP16, literal(-8)))
          CFI (cfiCond253) V2 load(1, XDATA, add(CFA_XSP16, literal(-7)))
          CFI (cfiCond253) R7 load(1, XDATA, add(CFA_XSP16, literal(-6)))
          CFI (cfiCond253) ?RET_LOW load(1, XDATA, add(CFA_XSP16, literal(-5)))
          CFI (cfiCond253) ?RET_HIGH load(1, XDATA, add(CFA_XSP16, literal(-4)))
          CFI (cfiCond253) ?BRET_EXT load(1, XDATA, add(CFA_XSP16, literal(-3)))
          CFI (cfiCond253) DPL0 load(1, XDATA, add(CFA_XSP16, literal(-2)))
          CFI (cfiCond253) DPH0 load(1, XDATA, add(CFA_XSP16, literal(-1)))
          CFI (cfiCond253) CFA_SP SP+-2
          CFI (cfiCond253) CFA_XSP16 add(XSP16, 21)
          CFI Block cfiPicker254 Using cfiCommon1
          CFI (cfiPicker254) NoFunction
          CFI (cfiPicker254) Picker
        LCALL   ?Subroutine35 & 0xFFFF
??CrossCallReturnLabel_72:
        ADD     A,#0xe
        MOV     DPL,A
        CLR     A
        ADDC    A,R0
        MOV     DPH,A
        RET
          CFI EndBlock cfiCond252
          CFI EndBlock cfiCond253
          CFI EndBlock cfiPicker254

        RSEG BANKED_CODE:CODE:NOROOT(0)
?Subroutine9:
          CFI Block cfiCond255 Using cfiCommon0
          CFI Function MT_AfDataRequest
          CFI Conditional ??CrossCallReturnLabel_11
          CFI R6 load(1, XDATA, add(CFA_XSP16, literal(-22)))
          CFI VB load(1, XDATA, add(CFA_XSP16, literal(-21)))
          CFI V0 load(1, XDATA, add(CFA_XSP16, literal(-20)))
          CFI V1 load(1, XDATA, add(CFA_XSP16, literal(-19)))
          CFI V2 load(1, XDATA, add(CFA_XSP16, literal(-18)))
          CFI V3 load(1, XDATA, add(CFA_XSP16, literal(-17)))
          CFI V4 load(1, XDATA, add(CFA_XSP16, literal(-16)))
          CFI V5 load(1, XDATA, add(CFA_XSP16, literal(-15)))
          CFI V6 load(1, XDATA, add(CFA_XSP16, literal(-14)))
          CFI V7 load(1, XDATA, add(CFA_XSP16, literal(-13)))
          CFI V8 load(1, XDATA, add(CFA_XSP16, literal(-12)))
          CFI V9 load(1, XDATA, add(CFA_XSP16, literal(-11)))
          CFI V10 load(1, XDATA, add(CFA_XSP16, literal(-10)))
          CFI V11 load(1, XDATA, add(CFA_XSP16, literal(-9)))
          CFI V12 load(1, XDATA, add(CFA_XSP16, literal(-8)))
          CFI V13 load(1, XDATA, add(CFA_XSP16, literal(-7)))
          CFI R7 load(1, XDATA, add(CFA_XSP16, literal(-6)))
          CFI ?RET_LOW load(1, XDATA, add(CFA_XSP16, literal(-5)))
          CFI ?RET_HIGH load(1, XDATA, add(CFA_XSP16, literal(-4)))
          CFI ?BRET_EXT load(1, XDATA, add(CFA_XSP16, literal(-3)))
          CFI DPL0 load(1, XDATA, add(CFA_XSP16, literal(-2)))
          CFI DPH0 load(1, XDATA, add(CFA_XSP16, literal(-1)))
          CFI CFA_SP SP+-2
          CFI CFA_XSP16 add(XSP16, 36)
          CFI Block cfiCond256 Using cfiCommon0
          CFI (cfiCond256) Function MT_AfDataStore
          CFI (cfiCond256) Conditional ??CrossCallReturnLabel_12
          CFI (cfiCond256) R6 load(1, XDATA, add(CFA_XSP16, literal(-11)))
          CFI (cfiCond256) VB load(1, XDATA, add(CFA_XSP16, literal(-10)))
          CFI (cfiCond256) V0 load(1, XDATA, add(CFA_XSP16, literal(-9)))
          CFI (cfiCond256) V1 load(1, XDATA, add(CFA_XSP16, literal(-8)))
          CFI (cfiCond256) V2 load(1, XDATA, add(CFA_XSP16, literal(-7)))
          CFI (cfiCond256) R7 load(1, XDATA, add(CFA_XSP16, literal(-6)))
          CFI (cfiCond256) ?RET_LOW load(1, XDATA, add(CFA_XSP16, literal(-5)))
          CFI (cfiCond256) ?RET_HIGH load(1, XDATA, add(CFA_XSP16, literal(-4)))
          CFI (cfiCond256) ?BRET_EXT load(1, XDATA, add(CFA_XSP16, literal(-3)))
          CFI (cfiCond256) DPL0 load(1, XDATA, add(CFA_XSP16, literal(-2)))
          CFI (cfiCond256) DPH0 load(1, XDATA, add(CFA_XSP16, literal(-1)))
          CFI (cfiCond256) CFA_SP SP+-2
          CFI (cfiCond256) CFA_XSP16 add(XSP16, 15)
          CFI Block cfiCond257 Using cfiCommon0
          CFI (cfiCond257) Function MT_AfDataStore
          CFI (cfiCond257) Conditional ??CrossCallReturnLabel_13
          CFI (cfiCond257) R6 load(1, XDATA, add(CFA_XSP16, literal(-11)))
          CFI (cfiCond257) VB load(1, XDATA, add(CFA_XSP16, literal(-10)))
          CFI (cfiCond257) V0 load(1, XDATA, add(CFA_XSP16, literal(-9)))
          CFI (cfiCond257) V1 load(1, XDATA, add(CFA_XSP16, literal(-8)))
          CFI (cfiCond257) V2 load(1, XDATA, add(CFA_XSP16, literal(-7)))
          CFI (cfiCond257) R7 load(1, XDATA, add(CFA_XSP16, literal(-6)))
          CFI (cfiCond257) ?RET_LOW load(1, XDATA, add(CFA_XSP16, literal(-5)))
          CFI (cfiCond257) ?RET_HIGH load(1, XDATA, add(CFA_XSP16, literal(-4)))
          CFI (cfiCond257) ?BRET_EXT load(1, XDATA, add(CFA_XSP16, literal(-3)))
          CFI (cfiCond257) DPL0 load(1, XDATA, add(CFA_XSP16, literal(-2)))
          CFI (cfiCond257) DPH0 load(1, XDATA, add(CFA_XSP16, literal(-1)))
          CFI (cfiCond257) CFA_SP SP+-2
          CFI (cfiCond257) CFA_XSP16 add(XSP16, 15)
          CFI Block cfiPicker258 Using cfiCommon1
          CFI (cfiPicker258) NoFunction
          CFI (cfiPicker258) Picker
        MOV     DPTR,#pMtAfDataReq
        MOVX    A,@DPTR
        MOV     R0,A
        INC     DPTR
        MOVX    A,@DPTR
        MOV     DPH,A
        MOV     DPL,R0
        RET
          CFI EndBlock cfiCond255
          CFI EndBlock cfiCond256
          CFI EndBlock cfiCond257
          CFI EndBlock cfiPicker258

        RSEG BANK_RELAYS:CODE:REORDER:NOROOT(0)
??MT_AfExec?relay:
        CODE
        LCALL   ?BDISPATCH
        DATA24
        DC24    MT_AfExec

        RSEG BANK_RELAYS:CODE:REORDER:NOROOT(0)
??MT_AfCommandProcessing?relay:
        CODE
        LCALL   ?BDISPATCH
        DATA24
        DC24    MT_AfCommandProcessing

        RSEG BANK_RELAYS:CODE:REORDER:NOROOT(0)
??MT_AfRegister?relay:
        CODE
        LCALL   ?BDISPATCH
        DATA24
        DC24    MT_AfRegister

        RSEG BANK_RELAYS:CODE:REORDER:NOROOT(0)
??MT_AfDelete?relay:
        CODE
        LCALL   ?BDISPATCH
        DATA24
        DC24    MT_AfDelete

        RSEG BANK_RELAYS:CODE:REORDER:NOROOT(0)
??MT_AfDataRequest?relay:
        CODE
        LCALL   ?BDISPATCH
        DATA24
        DC24    MT_AfDataRequest

        RSEG BANK_RELAYS:CODE:REORDER:NOROOT(0)
??MT_AfDataRequestSrcRtg?relay:
        CODE
        LCALL   ?BDISPATCH
        DATA24
        DC24    MT_AfDataRequestSrcRtg

        RSEG BANK_RELAYS:CODE:REORDER:NOROOT(0)
??MT_AfDataConfirm?relay:
        CODE
        LCALL   ?BDISPATCH
        DATA24
        DC24    MT_AfDataConfirm

        RSEG BANK_RELAYS:CODE:REORDER:NOROOT(0)
??MT_AfReflectError?relay:
        CODE
        LCALL   ?BDISPATCH
        DATA24
        DC24    MT_AfReflectError

        RSEG BANK_RELAYS:CODE:REORDER:NOROOT(0)
??MT_AfIncomingMsg?relay:
        CODE
        LCALL   ?BDISPATCH
        DATA24
        DC24    MT_AfIncomingMsg

        RSEG BANK_RELAYS:CODE:REORDER:NOROOT(0)
??MT_AfDataRetrieve?relay:
        CODE
        LCALL   ?BDISPATCH
        DATA24
        DC24    MT_AfDataRetrieve

        RSEG BANK_RELAYS:CODE:REORDER:NOROOT(0)
??MT_AfDataStore?relay:
        CODE
        LCALL   ?BDISPATCH
        DATA24
        DC24    MT_AfDataStore

        RSEG XDATA_ROM_C:CONST:REORDER:NOROOT(0)
        DATA16
`?<Constant {0, 0}>`:
        DATA8
        DB 0
        DB 0

        RSEG XDATA_ROM_C:CONST:REORDER:NOROOT(0)
        DATA32
__Constant_3e8:
        DD 1000

        END
//  971 
//  972 /**************************************************************************************************
//  973  * @fn          MT_AfAPSF_ConfigSet
//  974  *
//  975  * @brief       This function is the MT proxy for afAPSF_ConfigSet().
//  976  *
//  977  * input parameters
//  978  *
//  979  * @param       pBuf - Pointer to the received buffer.
//  980  *
//  981  * output parameters
//  982  *
//  983  * None.
//  984  *
//  985  * @return      None.
//  986  */
//  987 static void MT_AfAPSF_ConfigSet(uint8 *pBuf)
//  988 {
//  989   afAPSF_Config_t cfg = { pBuf[MT_RPC_POS_DAT0+1], pBuf[MT_RPC_POS_DAT0+2] };
//  990   afStatus_t rtrn = afAPSF_ConfigSet(pBuf[MT_RPC_POS_DAT0], &cfg);
//  991 
//  992   MT_BuildAndSendZToolResponse(((uint8)MT_RPC_CMD_SRSP | (uint8)MT_RPC_SYS_AF),
//  993                                        MT_AF_APSF_CONFIG_SET, 1, (uint8 *)&rtrn);
//  994 }
//  995 
//  996 /**************************************************************************************************
//  997  * @fn          MT_AfAPSF_ConfigGet
//  998  *
//  999  * @brief       This function is the MT proxy for afAPSF_ConfigGet().
// 1000  *
// 1001  * input parameters
// 1002  *
// 1003  * @param       pBuf - Pointer to the received buffer.
// 1004  *
// 1005  * output parameters
// 1006  *
// 1007  * None.
// 1008  *
// 1009  * @return      None.
// 1010  */
// 1011 static void MT_AfAPSF_ConfigGet(uint8 *pBuf)
// 1012 {
// 1013   afAPSF_Config_t cfg = { 0, 0 };
// 1014   uint8 buf[2];
// 1015 
// 1016   afAPSF_ConfigGet( pBuf[MT_RPC_POS_DAT0], &cfg );
// 1017 
// 1018   buf[0] = cfg.frameDelay;
// 1019   buf[1] = cfg.windowSize;
// 1020 
// 1021   MT_BuildAndSendZToolResponse(((uint8)MT_RPC_CMD_SRSP | (uint8)MT_RPC_SYS_AF),
// 1022                                        MT_AF_APSF_CONFIG_GET, 3, buf );
// 1023 }
// 1024 
// 1025 /***************************************************************************************************
// 1026 ***************************************************************************************************/
// 
// 3 482 bytes in segment BANKED_CODE
//    66 bytes in segment BANK_RELAYS
//     6 bytes in segment XDATA_ROM_C
//     4 bytes in segment XDATA_Z
// 
// 3 548 bytes of CODE  memory
//     2 bytes of CONST memory (+ 4 bytes shared)
//     4 bytes of XDATA memory
//
//Errors: none
//Warnings: none
