###############################################################################
#
# IAR C/C++ Compiler V9.10.1.2146 for 8051                14/Sep/2016  11:22:15
# Copyright 2004-2014 IAR Systems AB.
# Standalone license - IAR Embedded Workbench for 8051
#
#    Core               =  plain
#    Code model         =  banked
#    Data model         =  large
#    Calling convention =  xdata reentrant
#    Constant location  =  data_rom
#    Dptr setup         =  1,16
#                          
#    Source file        =  
#        C:\Texas Instruments\Z-Stack Mesh v1.0.0\Components\stack\zdo\ZDApp.c
#    Command line       =  
#        -f "C:\Texas Instruments\Z-Stack Mesh
#        v1.0.0\Projects\zstack\Samples\GenericApp\CC2530DB\..\..\..\Tools\CC2530DB\f8wCoord.cfg"
#        (-DCPU32MHZ -DROOT=__near_func -DMAC_CFG_APP_PENDING_QUEUE=TRUE
#        -DMAC_CFG_TX_DATA_MAX=5 -DMAC_CFG_TX_MAX=8 -DMAC_CFG_RX_MAX=5
#        -DZDO_COORDINATOR -DRTR_NWK) -f "C:\Texas Instruments\Z-Stack Mesh
#        v1.0.0\Projects\zstack\Samples\GenericApp\CC2530DB\..\..\..\Tools\CC2530DB\f8wConfig.cfg"
#        (-DZIGBEEPRO -DSECURE=0 -DZG_SECURE_DYNAMIC=0 -DREFLECTOR
#        -DDEFAULT_CHANLIST=0x00000800 -DZDAPP_CONFIG_PAN_ID=0xFFFF
#        -DNWK_START_DELAY=100 -DEXTENDED_JOINING_RANDOM_MASK=0x007F
#        -DBEACON_REQUEST_DELAY=100 -DBEACON_REQ_DELAY_MASK=0x00FF
#        -DLINK_STATUS_JITTER_MASK=0x007F -DROUTE_EXPIRY_TIME=30
#        -DAPSC_ACK_WAIT_DURATION_POLLED=3000 -DNWK_INDIRECT_MSG_TIMEOUT=7
#        -DMAX_RREQ_ENTRIES=8 -DAPSC_MAX_FRAME_RETRIES=3
#        -DNWK_MAX_DATA_RETRIES=2 -DMAX_POLL_FAILURE_RETRIES=2 -DMAX_BCAST=9
#        -DAPS_MAX_GROUPS=16 -DMAX_RTG_ENTRIES=40 -DNWK_MAX_BINDING_ENTRIES=4
#        -DMAX_BINDING_CLUSTER_IDS=4 "-DDEFAULT_KEY={0x01, 0x03, 0x05, 0x07,
#        0x09, 0x0B, 0x0D, 0x0F, 0x00, 0x02, 0x04, 0x06, 0x08, 0x0A, 0x0C,
#        0x0D}" -DMAC_MAX_FRAME_SIZE=116 -DZDNWKMGR_MIN_TRANSMISSIONS=20
#        "-DCONST=const __code" -DGENERIC=__generic -DRFD_RCVC_ALWAYS_ON=FALSE
#        -DPOLL_RATE=1000 -DQUEUED_POLL_RATE=100 -DRESPONSE_POLL_RATE=100
#        -DREJOIN_POLL_RATE=440) "C:\Texas Instruments\Z-Stack Mesh
#        v1.0.0\Components\stack\zdo\ZDApp.c" -D ZTOOL_P1 -D MT_TASK -D
#        MT_SYS_FUNC -D MT_ZDO_FUNC -D LCD_SUPPORTED=DEBUG -lC "C:\Texas
#        Instruments\Z-Stack Mesh
#        v1.0.0\Projects\zstack\Samples\GenericApp\CC2530DB\CoordinatorEB\List\"
#        -lA "C:\Texas Instruments\Z-Stack Mesh
#        v1.0.0\Projects\zstack\Samples\GenericApp\CC2530DB\CoordinatorEB\List\"
#        --diag_suppress Pe001,Pa010 -o "C:\Texas Instruments\Z-Stack Mesh
#        v1.0.0\Projects\zstack\Samples\GenericApp\CC2530DB\CoordinatorEB\Obj\"
#        -e --no_code_motion --debug --core=plain --dptr=16,1
#        --data_model=large --code_model=banked
#        --calling_convention=xdata_reentrant --place_constants=data_rom
#        --nr_virtual_regs 16 -I "C:\Texas Instruments\Z-Stack Mesh
#        v1.0.0\Projects\zstack\Samples\GenericApp\CC2530DB\" -I "C:\Texas
#        Instruments\Z-Stack Mesh
#        v1.0.0\Projects\zstack\Samples\GenericApp\CC2530DB\..\Source\" -I
#        "C:\Texas Instruments\Z-Stack Mesh
#        v1.0.0\Projects\zstack\Samples\GenericApp\CC2530DB\..\..\..\ZMain\TI2530DB\"
#        -I "C:\Texas Instruments\Z-Stack Mesh
#        v1.0.0\Projects\zstack\Samples\GenericApp\CC2530DB\..\..\..\..\..\Components\hal\include\"
#        -I "C:\Texas Instruments\Z-Stack Mesh
#        v1.0.0\Projects\zstack\Samples\GenericApp\CC2530DB\..\..\..\..\..\Components\hal\target\CC2530EB\"
#        -I "C:\Texas Instruments\Z-Stack Mesh
#        v1.0.0\Projects\zstack\Samples\GenericApp\CC2530DB\..\..\..\..\..\Components\mac\include\"
#        -I "C:\Texas Instruments\Z-Stack Mesh
#        v1.0.0\Projects\zstack\Samples\GenericApp\CC2530DB\..\..\..\..\..\Components\mac\high_level\"
#        -I "C:\Texas Instruments\Z-Stack Mesh
#        v1.0.0\Projects\zstack\Samples\GenericApp\CC2530DB\..\..\..\..\..\Components\mac\low_level\srf04\"
#        -I "C:\Texas Instruments\Z-Stack Mesh
#        v1.0.0\Projects\zstack\Samples\GenericApp\CC2530DB\..\..\..\..\..\Components\mac\low_level\srf04\single_chip\"
#        -I "C:\Texas Instruments\Z-Stack Mesh
#        v1.0.0\Projects\zstack\Samples\GenericApp\CC2530DB\..\..\..\..\..\Components\mt\"
#        -I "C:\Texas Instruments\Z-Stack Mesh
#        v1.0.0\Projects\zstack\Samples\GenericApp\CC2530DB\..\..\..\..\..\Components\osal\include\"
#        -I "C:\Texas Instruments\Z-Stack Mesh
#        v1.0.0\Projects\zstack\Samples\GenericApp\CC2530DB\..\..\..\..\..\Components\services\saddr\"
#        -I "C:\Texas Instruments\Z-Stack Mesh
#        v1.0.0\Projects\zstack\Samples\GenericApp\CC2530DB\..\..\..\..\..\Components\services\sdata\"
#        -I "C:\Texas Instruments\Z-Stack Mesh
#        v1.0.0\Projects\zstack\Samples\GenericApp\CC2530DB\..\..\..\..\..\Components\stack\af\"
#        -I "C:\Texas Instruments\Z-Stack Mesh
#        v1.0.0\Projects\zstack\Samples\GenericApp\CC2530DB\..\..\..\..\..\Components\stack\nwk\"
#        -I "C:\Texas Instruments\Z-Stack Mesh
#        v1.0.0\Projects\zstack\Samples\GenericApp\CC2530DB\..\..\..\..\..\Components\stack\sapi\"
#        -I "C:\Texas Instruments\Z-Stack Mesh
#        v1.0.0\Projects\zstack\Samples\GenericApp\CC2530DB\..\..\..\..\..\Components\stack\sec\"
#        -I "C:\Texas Instruments\Z-Stack Mesh
#        v1.0.0\Projects\zstack\Samples\GenericApp\CC2530DB\..\..\..\..\..\Components\stack\sys\"
#        -I "C:\Texas Instruments\Z-Stack Mesh
#        v1.0.0\Projects\zstack\Samples\GenericApp\CC2530DB\..\..\..\..\..\Components\stack\zdo\"
#        -I "C:\Texas Instruments\Z-Stack Mesh
#        v1.0.0\Projects\zstack\Samples\GenericApp\CC2530DB\..\..\..\..\..\Components\zmac\"
#        -I "C:\Texas Instruments\Z-Stack Mesh
#        v1.0.0\Projects\zstack\Samples\GenericApp\CC2530DB\..\..\..\..\..\Components\zmac\f8w\"
#        -Ohz --require_prototypes
#    List file          =  
#        C:\Texas Instruments\Z-Stack Mesh
#        v1.0.0\Projects\zstack\Samples\GenericApp\CC2530DB\CoordinatorEB\List\ZDApp.lst
#    Object file        =  
#        C:\Texas Instruments\Z-Stack Mesh
#        v1.0.0\Projects\zstack\Samples\GenericApp\CC2530DB\CoordinatorEB\Obj\ZDApp.r51
#
###############################################################################

C:\Texas Instruments\Z-Stack Mesh v1.0.0\Components\stack\zdo\ZDApp.c
      1          /**************************************************************************************************
      2            Filename:       ZDApp.c
      3            Revised:        $Date: 2014-06-03 18:29:46 -0700 (Tue, 03 Jun 2014) $
      4            Revision:       $Revision: 38789 $
      5          
      6            Description:    This file contains the interface to the Zigbee Device Application. This is the
      7                            Application part that the user can change. This also contains the Task functions.
      8          
      9          
     10            Copyright 2004-2014 Texas Instruments Incorporated. All rights reserved.
     11          
     12            IMPORTANT: Your use of this Software is limited to those specific rights
     13            granted under the terms of a software license agreement between the user
     14            who downloaded the software, his/her employer (which must be your employer)
     15            and Texas Instruments Incorporated (the "License"). You may not use this
     16            Software unless you agree to abide by the terms of the License. The License
     17            limits your use, and you acknowledge, that the Software may not be modified,
     18            copied or distributed unless embedded on a Texas Instruments microcontroller
     19            or used solely and exclusively in conjunction with a Texas Instruments radio
     20            frequency transceiver, which is integrated into your product. Other than for
     21            the foregoing purpose, you may not use, reproduce, copy, prepare derivative
     22            works of, modify, distribute, perform, display or sell this Software and/or
     23            its documentation for any purpose.
     24          
     25            YOU FURTHER ACKNOWLEDGE AND AGREE THAT THE SOFTWARE AND DOCUMENTATION ARE
     26            PROVIDED "AS IS" WITHOUT WARRANTY OF ANY KIND, EITHER EXPRESS OR IMPLIED,
     27            INCLUDING WITHOUT LIMITATION, ANY WARRANTY OF MERCHANTABILITY, TITLE,
     28            NON-INFRINGEMENT AND FITNESS FOR A PARTICULAR PURPOSE. IN NO EVENT SHALL
     29            TEXAS INSTRUMENTS OR ITS LICENSORS BE LIABLE OR OBLIGATED UNDER CONTRACT,
     30            NEGLIGENCE, STRICT LIABILITY, CONTRIBUTION, BREACH OF WARRANTY, OR OTHER
     31            LEGAL EQUITABLE THEORY ANY DIRECT OR INDIRECT DAMAGES OR EXPENSES
     32            INCLUDING BUT NOT LIMITED TO ANY INCIDENTAL, SPECIAL, INDIRECT, PUNITIVE
     33            OR CONSEQUENTIAL DAMAGES, LOST PROFITS OR LOST DATA, COST OF PROCUREMENT
     34            OF SUBSTITUTE GOODS, TECHNOLOGY, SERVICES, OR ANY CLAIMS BY THIRD PARTIES
     35            (INCLUDING BUT NOT LIMITED TO ANY DEFENSE THEREOF), OR OTHER SIMILAR COSTS.
     36          
     37            Should you have any questions regarding your right to use this Software,
     38            contact Texas Instruments Incorporated at www.TI.com.
     39          **************************************************************************************************/
     40          
     41          /*********************************************************************
     42           * INCLUDES
     43           */
     44          
     45          #include "ZComDef.h"
     46          #include "ZMAC.h"
     47          #include "OSAL.h"
     48          #include "OSAL_Tasks.h"
     49          #include "OSAL_PwrMgr.h"
     50          #include "OSAL_Nv.h"
     51          #include "AF.h"
     52          #include "APSMEDE.h"
     53          #include "NLMEDE.h"
     54          #include "AddrMgr.h"
     55          #include "ZDProfile.h"
     56          #include "ZDObject.h"
     57          #include "ZDConfig.h"
     58          #include "ZDSecMgr.h"
     59          #include "ZDApp.h"
     60          #include "DebugTrace.h"
     61          #include "nwk_util.h"
     62          #include "OnBoard.h"
     63          #include "ZGlobals.h"
     64          #include "ZDNwkMgr.h"
     65          #include "rtg.h"
     66          
     67          #include "ssp.h"
     68          
     69          /* HAL */
     70          #include "hal_led.h"
     71          #include "hal_lcd.h"
     72          #include "hal_key.h"
     73          
     74          #if defined( MT_MAC_FUNC ) || defined( MT_MAC_CB_FUNC )
     75            #error "ERROR! MT_MAC functionalities should be disabled on ZDO devices"
     76          #endif
     77          
     78          /*********************************************************************
     79           * CONSTANTS
     80           */
     81          
     82          #if !defined( NWK_START_DELAY )
     83            #define NWK_START_DELAY             100   // in milliseconds
     84          #endif
     85          
     86          #if !defined( LEAVE_RESET_DELAY )
     87            #define LEAVE_RESET_DELAY           5000  // in milliseconds
     88          #endif
     89          
     90          // Init ZDO, but hold and wait for application to start the joining or
     91          // forming network
     92          #define ZDO_INIT_HOLD_NWK_START       0xFFFF
     93          
     94          #if !defined( EXTENDED_JOINING_RANDOM_MASK )
     95            #define EXTENDED_JOINING_RANDOM_MASK 0x007F
     96          #endif
     97          
     98          #if !defined( BEACON_REQUEST_DELAY )
     99            #define BEACON_REQUEST_DELAY        100   // in milliseconds
    100          #endif
    101          
    102          #if !defined( BEACON_REQ_DELAY_MASK )
    103            #define BEACON_REQ_DELAY_MASK       0x007F
    104          #endif
    105          
    106          #define MAX_RESUME_RETRY            3
    107          
    108          #define MAX_DEVICE_UNAUTH_TIMEOUT   10000  // 10 seconds
    109          
    110          // Beacon Order Settings (see NLMEDE.h)
    111          #define DEFAULT_BEACON_ORDER        BEACON_ORDER_NO_BEACONS
    112          #define DEFAULT_SUPERFRAME_ORDER    DEFAULT_BEACON_ORDER
    113          
    114          #if !defined( NWK_FRAMECOUNTER_CHANGES_RESTORE_DELTA )
    115          // Additional counts to add to the frame counter when restoring from NV
    116          // This amount is in addition to MAX_NWK_FRAMECOUNTER_CHANGES
    117          #define NWK_FRAMECOUNTER_CHANGES_RESTORE_DELTA    250
    118          #endif
    119          
    120          // Leave control bits
    121          #define ZDAPP_LEAVE_CTRL_INIT 0
    122          #define ZDAPP_LEAVE_CTRL_SET  1
    123          #define ZDAPP_LEAVE_CTRL_RA   2
    124          
    125          // Address Manager Stub Implementation
    126          #define ZDApp_NwkWriteNVRequest AddrMgrWriteNVRequest
    127          
    128          
    129          #if !defined ZDO_NV_SAVE_RFDs
    130          #define ZDO_NV_SAVE_RFDs  TRUE
    131          #endif
    132          
    133          // Delay time before updating NWK NV data to force fewer writes during high activity.
    134          #if ZDO_NV_SAVE_RFDs
    135          #define ZDAPP_UPDATE_NWK_NV_TIME 700
    136          #else
    137          #define ZDAPP_UPDATE_NWK_NV_TIME 65000
    138          #endif
    139          
    140          // Timeout value to process New Devices
    141          #define ZDAPP_NEW_DEVICE_TIME     600   // in ms
    142          
    143          #if !defined ( ZDP_BIND_SKIP_VALIDATION )
    144          #if !defined MAX_PENDING_BIND_REQ
    145          #define MAX_PENDING_BIND_REQ 3
    146          #endif
    147          #endif
    148          
    149          /******************************************************************************
    150           * TYPEDEFS
    151           */
    152          typedef struct
    153          {
    154            void   *next;
    155            uint16 shortAddr;
    156            uint16 timeDelta;
    157          } ZDAppNewDevice_t;
    158          
    159          /*********************************************************************
    160           * GLOBAL VARIABLES
    161           */
    162          
    163          #if defined( LCD_SUPPORTED )

   \                                 In  segment XDATA_Z, align 1, keep-with-next
    164            uint8 MatchRsps = 0;
   \                     MatchRsps:
   \   000000                DS 1
   \   000001                REQUIRE __INIT_XDATA_Z
    165          #endif
    166          

   \                                 In  segment XDATA_I, align 1, keep-with-next
    167          uint8 zdoDiscCounter = 1;
   \                     zdoDiscCounter:
   \   000000                DS 1
   \   000001                REQUIRE `?<Initializer for zdoDiscCounter>`
   \   000001                REQUIRE __INIT_XDATA_I
    168          

   \                                 In  segment XDATA_Z, align 1, keep-with-next
    169          zAddrType_t ZDAppNwkAddr;
   \                     ZDAppNwkAddr:
   \   000000                DS 9
   \   000009                REQUIRE __INIT_XDATA_Z
    170          

   \                                 In  segment XDATA_Z, align 1, keep-with-next
    171          uint8 zdappMgmtNwkDiscRspTransSeq;
   \                     zdappMgmtNwkDiscRspTransSeq:
   \   000000                DS 1
   \   000001                REQUIRE __INIT_XDATA_Z

   \                                 In  segment XDATA_Z, align 1, keep-with-next
    172          uint8 zdappMgmtNwkDiscReqInProgress = FALSE;
   \                     zdappMgmtNwkDiscReqInProgress:
   \   000000                DS 1
   \   000001                REQUIRE __INIT_XDATA_Z

   \                                 In  segment XDATA_Z, align 1, keep-with-next
    173          zAddrType_t zdappMgmtNwkDiscRspAddr;
   \                     zdappMgmtNwkDiscRspAddr:
   \   000000                DS 9
   \   000009                REQUIRE __INIT_XDATA_Z

   \                                 In  segment XDATA_Z, align 1, keep-with-next
    174          uint8 zdappMgmtNwkDiscStartIndex;
   \                     zdappMgmtNwkDiscStartIndex:
   \   000000                DS 1
   \   000001                REQUIRE __INIT_XDATA_Z

   \                                 In  segment XDATA_Z, align 1, keep-with-next
    175          uint8 zdappMgmtSavedNwkState;
   \                     zdappMgmtSavedNwkState:
   \   000000                DS 1
   \   000001                REQUIRE __INIT_XDATA_Z
    176          

   \                                 In  segment XDATA_I, align 1, keep-with-next
    177          uint8 continueJoining = TRUE;
   \                     continueJoining:
   \   000000                DS 1
   \   000001                REQUIRE `?<Initializer for continueJoining>`
   \   000001                REQUIRE __INIT_XDATA_I
    178          

   \                                 In  segment XDATA_Z, align 1, keep-with-next
    179          uint8  _tmpRejoinState;
   \                     _tmpRejoinState:
   \   000000                DS 1
   \   000001                REQUIRE __INIT_XDATA_Z
    180          
    181          // The extended PanID used in ZDO layer for rejoin.

   \                                 In  segment XDATA_Z, align 1, keep-with-next
    182          uint8 ZDO_UseExtendedPANID[Z_EXTADDR_LEN];
   \                     ZDO_UseExtendedPANID:
   \   000000                DS 8
   \   000008                REQUIRE __INIT_XDATA_Z
    183          

   \                                 In  segment XDATA_Z, align 1, keep-with-next
    184          pfnZdoCb zdoCBFunc[MAX_ZDO_CB_FUNC];
   \                     zdoCBFunc:
   \   000000                DS 18
   \   000012                REQUIRE __INIT_XDATA_Z
    185          
    186          #if !defined ( ZDP_BIND_SKIP_VALIDATION )

   \                                 In  segment XDATA_Z, align 1, keep-with-next
    187          ZDO_PendingBindReq_t *ZDAppPendingBindReq = NULL;
   \                     ZDAppPendingBindReq:
   \   000000                DS 2
   \   000002                REQUIRE __INIT_XDATA_Z
    188          #endif
    189          
    190          /*********************************************************************
    191           * EXTERNAL VARIABLES
    192           */
    193          
    194          /*********************************************************************
    195           * EXTERNAL FUNCTIONS
    196           */
    197          
    198          /*********************************************************************
    199           * LOCAL FUNCTIONS
    200           */
    201          
    202          void ZDApp_NetworkStartEvt( void );
    203          void ZDApp_DeviceAuthEvt( void );
    204          void ZDApp_SaveNetworkStateEvt( void );
    205          
    206          uint8 ZDApp_ReadNetworkRestoreState( void );
    207          uint8 ZDApp_RestoreNetworkState( void );
    208          void ZDAppDetermineDeviceType( void );
    209          void ZDApp_InitUserDesc( void );
    210          void ZDAppCheckForHoldKey( void );
    211          void ZDApp_ProcessOSALMsg( osal_event_hdr_t *msgPtr );
    212          void ZDApp_ProcessNetworkJoin( void );
    213          void ZDApp_SetCoordAddress( uint8 endPoint, uint8 dstEP );
    214          uint8 ZDApp_RestoreNwkKey( void );
    215          networkDesc_t* ZDApp_NwkDescListProcessing(void);
    216          
    217          void ZDApp_SecInit( uint8 state );
    218          UINT16 ZDApp_ProcessSecEvent( uint8 task_id, UINT16 events );
    219          void ZDApp_ProcessSecMsg( osal_event_hdr_t *msgPtr );
    220          
    221          void ZDApp_SendMsg( uint8 taskID, uint8 cmd, uint8 len, uint8 *buf );
    222          
    223          void ZDApp_ResetTimerStart( uint16 delay );
    224          void ZDApp_ResetTimerCancel( void );
    225          void ZDApp_LeaveCtrlInit( void );
    226          void ZDApp_LeaveCtrlSet( uint8 ra );
    227          uint8 ZDApp_LeaveCtrlBypass( void );
    228          void ZDApp_LeaveCtrlStartup( devStates_t* state, uint16* startDelay );
    229          void ZDApp_LeaveUpdate( uint16 nwkAddr, uint8* extAddr,
    230                                  uint8 removeChildren );
    231          void ZDApp_NodeProfileSync( uint8 stackProfile );
    232          void ZDApp_ProcessMsgCBs( zdoIncomingMsg_t *inMsg );
    233          void ZDApp_RegisterCBs( void );
    234          void ZDApp_InitZdoCBFunc(void);
    235          #if !defined ( ZDP_BIND_SKIP_VALIDATION )
    236          void ZDApp_SetPendingBindDefault( ZDO_PendingBindReq_t *pendBindReq );
    237          void ZDApp_InitPendingBind( void );
    238          void ZDApp_ProcessPendingBindReq( uint8 *extAddr );
    239          void ZDApp_AgeOutPendingBindEntry( void );
    240          #endif
    241          
    242          /*********************************************************************
    243           * LOCAL VARIABLES
    244           */
    245          

   \                                 In  segment XDATA_Z, align 1, keep-with-next
    246          uint8 ZDAppTaskID;
   \                     ZDAppTaskID:
   \   000000                DS 1
   \   000001                REQUIRE __INIT_XDATA_Z

   \                                 In  segment XDATA_Z, align 1, keep-with-next
    247          uint8 nwkStatus;
   \                     nwkStatus:
   \   000000                DS 1
   \   000001                REQUIRE __INIT_XDATA_Z

   \                                 In  segment XDATA_Z, align 1, keep-with-next
    248          endPointDesc_t *ZDApp_AutoFindMode_epDesc = (endPointDesc_t *)NULL;
   \                     ZDApp_AutoFindMode_epDesc:
   \   000000                DS 2
   \   000002                REQUIRE __INIT_XDATA_Z

   \                                 In  segment XDATA_Z, align 1, keep-with-next
    249          uint8 ZDApp_LeaveCtrl;
   \                     ZDApp_LeaveCtrl:
   \   000000                DS 1
   \   000001                REQUIRE __INIT_XDATA_Z
    250          
    251          #if defined( HOLD_AUTO_START )
    252            devStates_t devState = DEV_HOLD;
    253          #else

   \                                 In  segment XDATA_I, align 1, keep-with-next
    254            devStates_t devState = DEV_INIT;
   \                     devState:
   \   000000                DS 1
   \   000001                REQUIRE `?<Initializer for devState>`
   \   000001                REQUIRE __INIT_XDATA_I
    255          #endif
    256          
    257          #if ( ZG_BUILD_RTRONLY_TYPE ) || ( ZG_BUILD_ENDDEVICE_TYPE )
    258            devStartModes_t devStartMode = MODE_JOIN;     // Assume joining
    259            //devStartModes_t devStartMode = MODE_RESUME; // if already "directly joined"
    260                                  // to parent. Set to make the device do an Orphan scan.
    261          #else
    262            // Set the default to coodinator

   \                                 In  segment XDATA_I, align 1, keep-with-next
    263            devStartModes_t devStartMode = MODE_HARD;
   \                     devStartMode:
   \   000000                DS 1
   \   000001                REQUIRE `?<Initializer for devStartMode>`
   \   000001                REQUIRE __INIT_XDATA_I
    264          #endif
    265          

   \                                 In  segment XDATA_Z, align 1, keep-with-next
    266          uint8 retryCnt;
   \                     retryCnt:
   \   000000                DS 1
   \   000001                REQUIRE __INIT_XDATA_Z
    267          

   \                                 In  segment XDATA_I, align 1, keep-with-next
    268          endPointDesc_t ZDApp_epDesc =
   \                     ZDApp_epDesc:
   \   000000                DS 6
   \   000006                REQUIRE `?<Initializer for ZDApp_epDesc>`
   \   000006                REQUIRE __INIT_XDATA_I
    269          {
    270            ZDO_EP,
    271            &ZDAppTaskID,
    272            (SimpleDescriptionFormat_t *)NULL,  // No Simple description for ZDO
    273            (afNetworkLatencyReq_t)0            // No Network Latency req
    274          };
    275          

   \                                 In  segment XDATA_I, align 1, keep-with-next
    276          uint16 ZDApp_SavedPollRate = POLL_RATE;
   \                     ZDApp_SavedPollRate:
   \   000000                DS 2
   \   000002                REQUIRE `?<Initializer for ZDApp_SavedPollRate>`
   \   000002                REQUIRE __INIT_XDATA_I
    277          

   \                                 In  segment XDATA_Z, align 1, keep-with-next
    278          ZDAppNewDevice_t *ZDApp_NewDeviceList = NULL;
   \                     ZDApp_NewDeviceList:
   \   000000                DS 2
   \   000002                REQUIRE __INIT_XDATA_Z
    279          
    280          /* "Hold Key" status saved during ZDAppCheckForHoldKey() */

   \                                 In  segment XDATA_Z, align 1, keep-with-next
    281          static uint8 zdappHoldKeys;
   \                     zdappHoldKeys:
   \   000000                DS 1
   \   000001                REQUIRE __INIT_XDATA_Z
    282          
    283          /*********************************************************************
    284           * @fn      ZDApp_Init
    285           *
    286           * @brief   ZDApp Initialization function.
    287           *
    288           * @param   task_id - ZDApp Task ID
    289           *
    290           * @return  None
    291           */

   \                                 In  segment BANKED_CODE, align 1, keep-with-next
    292          void ZDApp_Init( uint8 task_id )
   \                     ZDApp_Init:
    293          {
   \   000000   74F7         MOV     A,#-0x9
   \   000002   12....       LCALL   ?BANKED_ENTER_XDATA
   \   000005                ; Saved register size: 9
   \   000005                ; Auto size: 0
   \   000005   E9           MOV     A,R1
    294            // Save the task ID
    295            ZDAppTaskID = task_id;
   \   000006   90....       MOV     DPTR,#ZDAppTaskID
   \   000009   F0           MOVX    @DPTR,A
    296          
    297            // Initialize the ZDO global device short address storage
    298            ZDAppNwkAddr.addrMode = Addr16Bit;
   \   00000A   90....       MOV     DPTR,#ZDAppNwkAddr + 8
   \   00000D   7402         MOV     A,#0x2
   \   00000F   F0           MOVX    @DPTR,A
    299            ZDAppNwkAddr.addr.shortAddr = INVALID_NODE_ADDR;
   \   000010   90....       MOV     DPTR,#ZDAppNwkAddr
   \   000013   74FE         MOV     A,#-0x2
   \   000015   F0           MOVX    @DPTR,A
   \   000016   A3           INC     DPTR
   \   000017   04           INC     A
   \   000018   F0           MOVX    @DPTR,A
    300            (void)NLME_GetExtAddr();  // Load the saveExtAddr pointer.
   \   000019                ; Setup parameters for call to function NLME_GetExtAddr
   \   000019   12....       LCALL   ??NLME_GetExtAddr?relay; Banked call to: NLME_GetExtAddr
    301          
    302            // Check for manual "Hold Auto Start"
    303            ZDAppCheckForHoldKey();
   \   00001C                ; Setup parameters for call to function ZDAppCheckForHoldKey
   \   00001C   12....       LCALL   ??ZDAppCheckForHoldKey?relay; Banked call to: ZDAppCheckForHoldKey
    304          
    305            // Initialize ZDO items and setup the device - type of device to create.
    306            ZDO_Init();
   \   00001F                ; Setup parameters for call to function ZDO_Init
   \   00001F   12....       LCALL   ??ZDO_Init?relay     ; Banked call to: ZDO_Init
    307          
    308            // Register the endpoint description with the AF
    309            // This task doesn't have a Simple description, but we still need
    310            // to register the endpoint.
    311            afRegister( (endPointDesc_t *)&ZDApp_epDesc );
   \   000022                ; Setup parameters for call to function afRegister
   \   000022   7A..         MOV     R2,#ZDApp_epDesc & 0xff
   \   000024   7B..         MOV     R3,#(ZDApp_epDesc >> 8) & 0xff
   \   000026   12....       LCALL   ??afRegister?relay   ; Banked call to: afRegister
    312          
    313          #if defined( ZDO_USERDESC_RESPONSE )
    314            ZDApp_InitUserDesc();
   \   000029                ; Setup parameters for call to function ZDApp_InitUserDesc
   \   000029   12....       LCALL   ??ZDApp_InitUserDesc?relay; Banked call to: ZDApp_InitUserDesc
    315          #endif // ZDO_USERDESC_RESPONSE
    316          
    317            // Start the device?
    318            if ( devState != DEV_HOLD )
   \   00002C   90....       MOV     DPTR,#devState
   \   00002F   E0           MOVX    A,@DPTR
   \   000030   6009         JZ      ??ZDApp_Init_0
    319            {
    320              ZDOInitDevice( 0 );
   \   000032                ; Setup parameters for call to function ZDOInitDevice
   \   000032   7A00         MOV     R2,#0x0
   \   000034   7B00         MOV     R3,#0x0
   \   000036   12....       LCALL   ??ZDOInitDevice?relay; Banked call to: ZDOInitDevice
   \   000039   8014         SJMP    ??ZDApp_Init_1
    321            }
    322            else
    323            {
    324              ZDOInitDevice( ZDO_INIT_HOLD_NWK_START );
   \                     ??ZDApp_Init_0:
   \   00003B                ; Setup parameters for call to function ZDOInitDevice
   \   00003B   7AFF         MOV     R2,#-0x1
   \   00003D   7BFF         MOV     R3,#-0x1
   \   00003F   12....       LCALL   ??ZDOInitDevice?relay; Banked call to: ZDOInitDevice
    325              // Blink LED to indicate HOLD_START
    326              HalLedBlink ( HAL_LED_4, 0, 50, 500 );
   \   000042                ; Setup parameters for call to function HalLedBlink
   \   000042   7CF4         MOV     R4,#-0xc
   \   000044   7D01         MOV     R5,#0x1
   \   000046   7B32         MOV     R3,#0x32
   \   000048   7A00         MOV     R2,#0x0
   \   00004A   7908         MOV     R1,#0x8
   \   00004C   12....       LCALL   ??HalLedBlink?relay  ; Banked call to: HalLedBlink
    327            }
    328          
    329            // Initialize the ZDO callback function pointers zdoCBFunc[]
    330            ZDApp_InitZdoCBFunc();
   \                     ??ZDApp_Init_1:
   \   00004F                ; Setup parameters for call to function ZDApp_InitZdoCBFunc
   \   00004F   12....       LCALL   ??ZDApp_InitZdoCBFunc?relay; Banked call to: ZDApp_InitZdoCBFunc
    331          
    332            ZDApp_RegisterCBs();
   \   000052                ; Setup parameters for call to function ZDApp_RegisterCBs
   \   000052   12....       LCALL   ??ZDApp_RegisterCBs?relay; Banked call to: ZDApp_RegisterCBs
    333          
    334          #if !defined ( ZDP_BIND_SKIP_VALIDATION )
    335          #if defined ( REFLECTOR )
    336            ZDApp_InitPendingBind();
   \   000055                ; Setup parameters for call to function ZDApp_InitPendingBind
   \   000055   12....       LCALL   ??ZDApp_InitPendingBind?relay; Banked call to: ZDApp_InitPendingBind
    337          #endif
    338          #endif
    339          } /* ZDApp_Init() */
   \   000058   02....       LJMP    ??Subroutine56_0 & 0xFFFF

   \                                 In  segment BANKED_CODE, align 1, keep-with-next
   \                     ??Subroutine56_0:
   \   000000   7F01         MOV     R7,#0x1
   \   000002   02....       LJMP    ?BANKED_LEAVE_XDATA
    340          
    341          /*********************************************************************
    342           * @fn          ZDApp_SecInit
    343           *
    344           * @brief       ZDApp initialize security.
    345           *
    346           * @param       state - device initialization state
    347           *
    348           * @return      none
    349           */

   \                                 In  segment BANKED_CODE, align 1, keep-with-next
    350          void ZDApp_SecInit( uint8 state )
   \                     ZDApp_SecInit:
    351          {
   \   000000   74F7         MOV     A,#-0x9
   \   000002   12....       LCALL   ?BANKED_ENTER_XDATA
   \   000005                ; Saved register size: 9
   \   000005                ; Auto size: 0
    352            uint8 zgPreConfigKey[SEC_KEY_LEN];
    353          
    354            if ( ZG_SECURE_ENABLED && ZG_BUILD_COORDINATOR_TYPE && ZG_DEVICE_COORDINATOR_TYPE )
    355            {
    356              // Set the Trust Center bit
    357              ZDO_Config_Node_Descriptor.ServerMask |= PRIM_TRUST_CENTER;
    358            }
    359          
    360            // Initialize ZigBee Device Security Manager
    361            ZDSecMgrInit(state);
   \   000005                ; Setup parameters for call to function ZDSecMgrInit
   \   000005   12....       LCALL   ??ZDSecMgrInit?relay ; Banked call to: ZDSecMgrInit
    362          
    363            if ( ZG_SECURE_ENABLED )
    364            {
    365              if ( state != ZDO_INITDEV_RESTORED_NETWORK_STATE )
    366              {
    367                nwkFrameCounter = 0;
    368          
    369                if( _NIB.nwkKeyLoaded == FALSE )
    370                {
    371                  if ( ( ZG_BUILD_COORDINATOR_TYPE && ZG_DEVICE_COORDINATOR_TYPE          ) ||
    372                       ( ( zgSecurityMode == ZG_SECURITY_RESIDENTIAL ) && zgPreConfigKeys )    )
    373                  {
    374                      ZDSecMgrReadKeyFromNv(ZCD_NV_PRECFGKEY, zgPreConfigKey);
    375                      SSP_UpdateNwkKey( zgPreConfigKey, 0);
    376                      SSP_SwitchNwkKey( 0 );
    377          
    378                      // clear local copy of key
    379                      osal_memset(zgPreConfigKey, 0x00, SEC_KEY_LEN);
    380                  }
    381                }
    382              }
    383          
    384              // clean the new devices list when Security module is initialized
    385              if ( ZDApp_NewDeviceList != NULL )
    386              {
    387                ZDAppNewDevice_t *pNewDeviceNext;
    388          
    389                while ( ZDApp_NewDeviceList )
    390                {
    391                  pNewDeviceNext = (ZDAppNewDevice_t *) ZDApp_NewDeviceList->next;
    392                  osal_mem_free( ZDApp_NewDeviceList );
    393                  ZDApp_NewDeviceList = pNewDeviceNext;
    394                }
    395              }
    396            }
    397          }
   \   000008   02....       LJMP    ??Subroutine56_0 & 0xFFFF
    398          
    399          /*********************************************************************
    400           * @fn      ZDApp_event_loop()
    401           *
    402           * @brief   Main event loop for Zigbee device objects task. This function
    403           *          should be called at periodic intervals.
    404           *
    405           * @param   task_id - Task ID
    406           * @param   events  - Bitmap of events
    407           *
    408           * @return  none
    409           */

   \                                 In  segment BANKED_CODE, align 1, keep-with-next
    410          UINT16 ZDApp_event_loop( uint8 task_id, UINT16 events )
   \                     ZDApp_event_loop:
    411          {
   \   000000                REQUIRE ?V0
   \   000000                REQUIRE ?V1
   \   000000                REQUIRE ?V2
   \   000000                REQUIRE ?V3
   \   000000   74F4         MOV     A,#-0xc
   \   000002   12....       LCALL   ?BANKED_ENTER_XDATA
   \   000005                ; Saved register size: 12
   \   000005                ; Auto size: 0
   \   000005   EA           MOV     A,R2
   \   000006   FE           MOV     R6,A
   \   000007   EB           MOV     A,R3
   \   000008   FF           MOV     R7,A
    412            uint8 *msg_ptr;
    413          
    414            if ( events & SYS_EVENT_MSG )
   \   000009   5480         ANL     A,#0x80
   \   00000B   7033         JNZ     ??ZDApp_event_loop_0
    415            {
    416              while ( (msg_ptr = osal_msg_receive( ZDAppTaskID )) )
    417              {
    418                ZDApp_ProcessOSALMsg( (osal_event_hdr_t *)msg_ptr );
    419          
    420                // Release the memory
    421                osal_msg_deallocate( msg_ptr );
    422              }
    423          
    424              // Return unprocessed events
    425              return (events ^ SYS_EVENT_MSG);
    426            }
    427          
    428            if ( events & ZDO_NETWORK_INIT )
   \   00000D   EE           MOV     A,R6
   \   00000E   A2E0         MOV     C,0xE0 /* A   */.0
   \   000010   5047         JNC     ??ZDApp_event_loop_1
    429            {
    430              // Initialize apps and start the network
    431              devState = DEV_INIT;
   \   000012   90....       MOV     DPTR,#devState
   \   000015   7401         MOV     A,#0x1
   \   000017   12....       LCALL   ??Subroutine48_0 & 0xFFFF
    432              osal_set_event( ZDAppTaskID, ZDO_STATE_CHANGE_EVT );
   \                     ??CrossCallReturnLabel_70:
   \   00001A   12....       LCALL   ??osal_set_event?relay; Banked call to: osal_set_event
    433          
    434              ZDO_StartDevice( (uint8)ZDO_Config_Node_Descriptor.LogicalType, devStartMode,
    435                               DEFAULT_BEACON_ORDER, DEFAULT_SUPERFRAME_ORDER );
   \   00001D                ; Setup parameters for call to function ZDO_StartDevice
   \   00001D   7C0F         MOV     R4,#0xf
   \   00001F   7B0F         MOV     R3,#0xf
   \   000021   90....       MOV     DPTR,#devStartMode
   \   000024   E0           MOVX    A,@DPTR
   \   000025   FA           MOV     R2,A
   \   000026   90....       MOV     DPTR,#ZDO_Config_Node_Descriptor
   \   000029   E0           MOVX    A,@DPTR
   \   00002A   5407         ANL     A,#0x7
   \   00002C   F9           MOV     R1,A
   \   00002D   12....       LCALL   ??ZDO_StartDevice?relay; Banked call to: ZDO_StartDevice
    436          
    437              // Return unprocessed events
    438              return (events ^ ZDO_NETWORK_INIT);
   \   000030   EE           MOV     A,R6
   \   000031   6401         XRL     A,#0x1
   \   000033   02....       LJMP    ??ZDApp_event_loop_2 & 0xFFFF
    439            }
   \                     ??ZDApp_event_loop_3:
   \   000036                ; Setup parameters for call to function ZDApp_ProcessOSALMsg
   \   000036   12....       LCALL   ??ZDApp_ProcessOSALMsg?relay; Banked call to: ZDApp_ProcessOSALMsg
   \   000039                ; Setup parameters for call to function osal_msg_deallocate
   \   000039   AA..         MOV     R2,?V0
   \   00003B   AB..         MOV     R3,?V1
   \   00003D   12....       LCALL   ??osal_msg_deallocate?relay; Banked call to: osal_msg_deallocate
   \                     ??ZDApp_event_loop_0:
   \   000040                ; Setup parameters for call to function osal_msg_receive
   \   000040   90....       MOV     DPTR,#ZDAppTaskID
   \   000043   E0           MOVX    A,@DPTR
   \   000044   F9           MOV     R1,A
   \   000045   12....       LCALL   ??osal_msg_receive?relay; Banked call to: osal_msg_receive
   \   000048   8A..         MOV     ?V0,R2
   \   00004A   8B..         MOV     ?V1,R3
   \   00004C   EA           MOV     A,R2
   \   00004D   45..         ORL     A,?V1
   \   00004F   70E5         JNZ     ??ZDApp_event_loop_3
   \   000051   EE           MOV     A,R6
   \   000052   FA           MOV     R2,A
   \   000053   EF           MOV     A,R7
   \   000054   6480         XRL     A,#0x80
   \   000056   02....       LJMP    ??ZDApp_event_loop_4 & 0xFFFF
    440          
    441            if ( ZSTACK_ROUTER_BUILD )
    442            {
    443              if ( events & ZDO_NETWORK_START )
   \                     ??ZDApp_event_loop_1:
   \   000059   5402         ANL     A,#0x2
   \   00005B   6008         JZ      ??ZDApp_event_loop_5
    444              {
    445                ZDApp_NetworkStartEvt();
   \   00005D                ; Setup parameters for call to function ZDApp_NetworkStartEvt
   \   00005D   12....       LCALL   ??ZDApp_NetworkStartEvt?relay; Banked call to: ZDApp_NetworkStartEvt
    446          
    447                // Return unprocessed events
    448                return (events ^ ZDO_NETWORK_START);
   \   000060   EE           MOV     A,R6
   \   000061   6402         XRL     A,#0x2
   \   000063   805B         SJMP    ??ZDApp_event_loop_2
    449              }
    450          
    451              if ( events & ZDO_ROUTER_START )
   \                     ??ZDApp_event_loop_5:
   \   000065   EE           MOV     A,R6
   \   000066   5420         ANL     A,#0x20
   \   000068   6027         JZ      ??ZDApp_event_loop_6
    452              {
    453                if ( nwkStatus == ZSuccess )
   \   00006A   90....       MOV     DPTR,#nwkStatus
   \   00006D   E0           MOVX    A,@DPTR
   \   00006E   7010         JNZ     ??ZDApp_event_loop_7
    454                {
    455                  if ( devState == DEV_END_DEVICE )
   \   000070   90....       MOV     DPTR,#devState
   \   000073   E0           MOVX    A,@DPTR
   \   000074   6406         XRL     A,#0x6
   \   000076   7003         JNZ     ??ZDApp_event_loop_8
    456                    devState = DEV_ROUTER;
   \   000078   7407         MOV     A,#0x7
   \   00007A   F0           MOVX    @DPTR,A
    457          
    458                  osal_pwrmgr_device( PWRMGR_ALWAYS_ON );
   \                     ??ZDApp_event_loop_8:
   \   00007B                ; Setup parameters for call to function osal_pwrmgr_device
   \   00007B   7900         MOV     R1,#0x0
   \   00007D   12....       LCALL   ??osal_pwrmgr_device?relay; Banked call to: osal_pwrmgr_device
    459                }
    460                else
    461                {
    462                  // remain as end device
    463                }
    464                osal_set_event( ZDAppTaskID, ZDO_STATE_CHANGE_EVT );
   \                     ??ZDApp_event_loop_7:
   \   000080                ; Setup parameters for call to function osal_set_event
   \   000080   7A10         MOV     R2,#0x10
   \   000082   7B00         MOV     R3,#0x0
   \   000084   90....       MOV     DPTR,#ZDAppTaskID
   \   000087   E0           MOVX    A,@DPTR
   \   000088   F9           MOV     R1,A
   \   000089   12....       LCALL   ??osal_set_event?relay; Banked call to: osal_set_event
    465          
    466                // Return unprocessed events
    467                return (events ^ ZDO_ROUTER_START);
   \   00008C   EE           MOV     A,R6
   \   00008D   6420         XRL     A,#0x20
   \   00008F   802F         SJMP    ??ZDApp_event_loop_2
    468              }
    469            }
    470          
    471            if ( events & ZDO_STATE_CHANGE_EVT )
   \                     ??ZDApp_event_loop_6:
   \   000091   EE           MOV     A,R6
   \   000092   5410         ANL     A,#0x10
   \   000094   602E         JZ      ??ZDApp_event_loop_9
    472            {
    473              ZDO_UpdateNwkStatus( devState );
   \   000096                ; Setup parameters for call to function ZDO_UpdateNwkStatus
   \   000096   90....       MOV     DPTR,#devState
   \   000099   E0           MOVX    A,@DPTR
   \   00009A   F9           MOV     R1,A
   \   00009B   12....       LCALL   ??ZDO_UpdateNwkStatus?relay; Banked call to: ZDO_UpdateNwkStatus
    474          
    475              // At start up, do one MTO route discovery if the device is a concentrator
    476              if ( zgConcentratorEnable == TRUE )
   \   00009E   90....       MOV     DPTR,#zgConcentratorEnable
   \   0000A1   E0           MOVX    A,@DPTR
   \   0000A2   6401         XRL     A,#0x1
   \   0000A4   7017         JNZ     ??ZDApp_event_loop_10
    477              {
    478                // Start next event
    479                osal_start_timerEx( NWK_TaskID, NWK_MTO_RTG_REQ_EVT, 100 );
   \   0000A6                ; Setup parameters for call to function osal_start_timerEx
   \   0000A6   90....       MOV     DPTR,#__Constant_64
   \   0000A9   12....       LCALL   ?PUSH_XSTACK8_X_FOUR
   \   0000AC   7A00         MOV     R2,#0x0
   \   0000AE   7B08         MOV     R3,#0x8
   \   0000B0   90....       MOV     DPTR,#NWK_TaskID
   \   0000B3   E0           MOVX    A,@DPTR
   \   0000B4   F9           MOV     R1,A
   \   0000B5   12....       LCALL   ??osal_start_timerEx?relay; Banked call to: osal_start_timerEx
   \   0000B8   7404         MOV     A,#0x4
   \   0000BA   12....       LCALL   ?DEALLOC_XSTACK8
    480              }
    481          
    482              // Return unprocessed events
    483              return (events ^ ZDO_STATE_CHANGE_EVT);
   \                     ??ZDApp_event_loop_10:
   \   0000BD   EE           MOV     A,R6
   \   0000BE   6410         XRL     A,#0x10
   \                     ??ZDApp_event_loop_2:
   \   0000C0   FA           MOV     R2,A
   \   0000C1   EF           MOV     A,R7
   \   0000C2   8031         SJMP    ??ZDApp_event_loop_4
    484            }
    485          
    486            if ( events & ZDO_COMMAND_CNF )
   \                     ??ZDApp_event_loop_9:
   \   0000C4   EE           MOV     A,R6
   \   0000C5   5408         ANL     A,#0x8
   \   0000C7   6006         JZ      ??ZDApp_event_loop_11
    487            {
    488              // User defined logic
    489          
    490              // Return unprocessed events
    491              return (events ^ ZDO_COMMAND_CNF);
   \   0000C9   EE           MOV     A,R6
   \   0000CA   6408         XRL     A,#0x8
   \   0000CC   FA           MOV     R2,A
   \   0000CD   802D         SJMP    ??ZDApp_event_loop_12
    492            }
    493          
    494            if ( events & ZDO_NWK_UPDATE_NV )
   \                     ??ZDApp_event_loop_11:
   \   0000CF   EF           MOV     A,R7
   \   0000D0   5401         ANL     A,#0x1
   \   0000D2   6005         JZ      ??ZDApp_event_loop_13
    495            {
    496              ZDApp_SaveNetworkStateEvt();
    497          
    498              // Return unprocessed events
    499              return (events ^ ZDO_NWK_UPDATE_NV);
   \   0000D4   EF           MOV     A,R7
   \   0000D5   6401         XRL     A,#0x1
   \   0000D7   801C         SJMP    ??ZDApp_event_loop_4
    500            }
    501          
    502            if ( events & ZDO_DEVICE_RESET )
   \                     ??ZDApp_event_loop_13:
   \   0000D9   EE           MOV     A,R6
   \   0000DA   5404         ANL     A,#0x4
   \   0000DC   600A         JZ      ??ZDApp_event_loop_14
    503            {
    504          #ifdef ZBA_FALLBACK_NWKKEY
    505              if ( devState == DEV_END_DEVICE_UNAUTH )
    506              {
    507                ZDSecMgrFallbackNwkKey();
    508              }
    509              else
    510          #endif
    511              {
    512                // Set the NV startup option to force a "new" join.
    513                zgWriteStartupOptions( ZG_STARTUP_SET, ZCD_STARTOPT_DEFAULT_NETWORK_STATE );
   \   0000DE                ; Setup parameters for call to function zgWriteStartupOptions
   \   0000DE   7A02         MOV     R2,#0x2
   \   0000E0   79FF         MOV     R1,#-0x1
   \   0000E2   12....       LCALL   ??zgWriteStartupOptions?relay; Banked call to: zgWriteStartupOptions
    514          
    515                // The device has been in the UNAUTH state, so reset
    516                // Note: there will be no return from this call
    517                SystemResetSoft();
   \   0000E5                ; Setup parameters for call to function Onboard_soft_reset
   \   0000E5   12....       LCALL   Onboard_soft_reset & 0xFFFF
    518              }
    519            }
    520          
    521          #if !defined ( ZDP_BIND_SKIP_VALIDATION )
    522            if ( events & ZDO_PENDING_BIND_REQ_EVT )
   \                     ??ZDApp_event_loop_14:
   \   0000E8   EF           MOV     A,R7
   \   0000E9   5410         ANL     A,#0x10
   \   0000EB   600B         JZ      ??ZDApp_event_loop_15
    523            {
    524          #if defined ( REFLECTOR )
    525              ZDApp_AgeOutPendingBindEntry();
   \   0000ED                ; Setup parameters for call to function ZDApp_AgeOutPendingBindEntry
   \   0000ED   12....       LCALL   ??ZDApp_AgeOutPendingBindEntry?relay; Banked call to: ZDApp_AgeOutPendingBindEntry
    526          #endif
    527              // Return unprocessed events
    528              return (events ^ ZDO_PENDING_BIND_REQ_EVT);
   \   0000F0   EE           MOV     A,R6
   \   0000F1   FA           MOV     R2,A
   \   0000F2   EF           MOV     A,R7
   \   0000F3   6410         XRL     A,#0x10
   \                     ??ZDApp_event_loop_4:
   \   0000F5   FB           MOV     R3,A
   \   0000F6   8004         SJMP    ??ZDApp_event_loop_12
    529            }
    530          #endif
    531          
    532            if ( ZG_SECURE_ENABLED )
    533            {
    534              return ( ZDApp_ProcessSecEvent( task_id, events ) );
    535            }
    536            else
    537            {
    538              // Discard or make more handlers
    539              return 0;
   \                     ??ZDApp_event_loop_15:
   \   0000F8   7A00         MOV     R2,#0x0
   \   0000FA   7B00         MOV     R3,#0x0
    540            }
   \                     ??ZDApp_event_loop_12:
   \   0000FC   80..         SJMP    ??Subroutine45_0
    541          }

   \                                 In  segment BANKED_CODE, align 1, keep-with-next
   \                     ??Subroutine45_0:
   \   000000   7F04         MOV     R7,#0x4
   \   000002   02....       LJMP    ?BANKED_LEAVE_XDATA

   \                                 In  segment BANKED_CODE, align 1, keep-with-next
   \                     ??Subroutine48_0:
   \   000000   F0           MOVX    @DPTR,A
   \   000001                ; Setup parameters for call to function osal_set_event
   \   000001                ; Setup parameters for call to function osal_set_event
   \   000001                ; Setup parameters for call to function osal_set_event
   \   000001   7A10         MOV     R2,#0x10
   \   000003   7B00         MOV     R3,#0x0
   \   000005   90....       MOV     DPTR,#ZDAppTaskID
   \   000008   E0           MOVX    A,@DPTR
   \   000009   F9           MOV     R1,A
   \   00000A   22           RET
    542          
    543          /*********************************************************************
    544           * @fn      ZDApp_ProcessSecEvent()
    545           *
    546           * @brief   Process incoming security events.
    547           *
    548           * @param   task_id - Task ID
    549           * @param   events  - Bitmap of events
    550           *
    551           * @return  none
    552           */

   \                                 In  segment BANKED_CODE, align 1, keep-with-next
    553          UINT16 ZDApp_ProcessSecEvent( uint8 task_id, UINT16 events )
   \                     ZDApp_ProcessSecEvent:
    554          {
   \   000000                REQUIRE ?V0
   \   000000                REQUIRE ?V1
   \   000000                REQUIRE ?V4
   \   000000                REQUIRE ?V5
   \   000000                REQUIRE ?V6
   \   000000                REQUIRE ?V7
   \   000000   74F0         MOV     A,#-0x10
   \   000002   12....       LCALL   ?BANKED_ENTER_XDATA
   \   000005                ; Saved register size: 16
   \   000005                ; Auto size: 0
   \   000005   EA           MOV     A,R2
   \   000006   FE           MOV     R6,A
   \   000007   EB           MOV     A,R3
   \   000008   FF           MOV     R7,A
    555            (void)task_id;  // Intentionally unreferenced parameter
    556          
    557            if ( ZSTACK_ROUTER_BUILD )
    558            {
    559              if ( events & ZDO_NEW_DEVICE )
   \   000009   EE           MOV     A,R6
   \   00000A   5440         ANL     A,#0x40
   \   00000C   7003         JNZ     $+5
   \   00000E   02....       LJMP    ??ZDApp_ProcessSecEvent_0 & 0xFFFF
    560              {
    561                // process the new device event
    562                if ( ZDApp_NewDeviceList )
   \   000011   90....       MOV     DPTR,#ZDApp_NewDeviceList
   \   000014   12....       LCALL   ??Subroutine55_0 & 0xFFFF
   \                     ??CrossCallReturnLabel_86:
   \   000017   7003         JNZ     $+5
   \   000019   02....       LJMP    ??ZDApp_ProcessSecEvent_1 & 0xFFFF
    563                {
    564                  ZDAppNewDevice_t *pNewDevice;
    565                  uint16 timeDelta;
    566          
    567                  (void) ZDSecMgrNewDeviceEvent( ZDApp_NewDeviceList->shortAddr );
   \   00001C                ; Setup parameters for call to function ZDSecMgrNewDeviceEvent
   \   00001C   12....       LCALL   ??Subroutine57_0 & 0xFFFF
   \                     ??CrossCallReturnLabel_104:
   \   00001F   A3           INC     DPTR
   \   000020   12....       LCALL   ?Subroutine29 & 0xFFFF
   \                     ??CrossCallReturnLabel_66:
   \   000023   12....       LCALL   ??ZDSecMgrNewDeviceEvent?relay; Banked call to: ZDSecMgrNewDeviceEvent
    568          
    569                  pNewDevice = (ZDAppNewDevice_t *) ZDApp_NewDeviceList->next;
   \   000026   90....       MOV     DPTR,#ZDApp_NewDeviceList
   \   000029   12....       LCALL   ??Subroutine49_0 & 0xFFFF
   \                     ??CrossCallReturnLabel_71:
   \   00002C   F5..         MOV     ?V0,A
   \   00002E   A3           INC     DPTR
   \   00002F   E0           MOVX    A,@DPTR
   \   000030   F5..         MOV     ?V1,A
    570                  osal_mem_free( ZDApp_NewDeviceList );
   \   000032                ; Setup parameters for call to function osal_mem_free
   \   000032   90....       MOV     DPTR,#ZDApp_NewDeviceList
   \   000035   12....       LCALL   ??Subroutine47_0 & 0xFFFF
   \                     ??CrossCallReturnLabel_62:
   \   000038   12....       LCALL   ??osal_mem_free?relay; Banked call to: osal_mem_free
    571                  ZDApp_NewDeviceList = pNewDevice;
   \   00003B   90....       MOV     DPTR,#ZDApp_NewDeviceList
   \   00003E   E5..         MOV     A,?V0
   \   000040   F0           MOVX    @DPTR,A
   \   000041   A3           INC     DPTR
   \   000042   E5..         MOV     A,?V1
   \   000044   F0           MOVX    @DPTR,A
    572          
    573                  if ( pNewDevice )
   \   000045   E5..         MOV     A,?V0
   \   000047   45..         ORL     A,?V1
   \   000049   6055         JZ      ??ZDApp_ProcessSecEvent_1
    574                  {
    575                    timeDelta = pNewDevice->timeDelta;
   \   00004B   85..82       MOV     DPL,?V0
   \   00004E   85..83       MOV     DPH,?V1
   \   000051   A3           INC     DPTR
   \   000052   A3           INC     DPTR
   \   000053   A3           INC     DPTR
   \   000054   A3           INC     DPTR
   \   000055   E0           MOVX    A,@DPTR
   \   000056   F5..         MOV     ?V4,A
   \   000058   A3           INC     DPTR
   \   000059   E0           MOVX    A,@DPTR
   \   00005A   F5..         MOV     ?V5,A
    576                    pNewDevice = pNewDevice->next;
   \   00005C   8014         SJMP    ??ZDApp_ProcessSecEvent_2
    577          
    578                    while ( pNewDevice )
    579                    {
    580                      pNewDevice->timeDelta -= timeDelta;
   \                     ??ZDApp_ProcessSecEvent_3:
   \   00005E   85..82       MOV     DPL,?V0
   \   000061   85..83       MOV     DPH,?V1
   \   000064   A3           INC     DPTR
   \   000065   A3           INC     DPTR
   \   000066   A3           INC     DPTR
   \   000067   A3           INC     DPTR
   \   000068   C3           CLR     C
   \   000069   E0           MOVX    A,@DPTR
   \   00006A   95..         SUBB    A,?V4
   \   00006C   F0           MOVX    @DPTR,A
   \   00006D   A3           INC     DPTR
   \   00006E   E0           MOVX    A,@DPTR
   \   00006F   95..         SUBB    A,?V5
   \   000071   F0           MOVX    @DPTR,A
    581                      pNewDevice = pNewDevice->next;
   \                     ??ZDApp_ProcessSecEvent_2:
   \   000072   85..82       MOV     DPL,?V0
   \   000075   85..83       MOV     DPH,?V1
   \   000078   E0           MOVX    A,@DPTR
   \   000079   F5..         MOV     ?V0,A
   \   00007B   A3           INC     DPTR
   \   00007C   E0           MOVX    A,@DPTR
   \   00007D   F5..         MOV     ?V1,A
    582                    }
   \   00007F   E5..         MOV     A,?V0
   \   000081   45..         ORL     A,?V1
   \   000083   70D9         JNZ     ??ZDApp_ProcessSecEvent_3
    583          
    584                    osal_start_timerEx( ZDAppTaskID, ZDO_NEW_DEVICE, timeDelta );
   \   000085                ; Setup parameters for call to function osal_start_timerEx
   \   000085   E4           CLR     A
   \   000086   F5..         MOV     ?V6,A
   \   000088   F5..         MOV     ?V7,A
   \   00008A   78..         MOV     R0,#?V4
   \   00008C   12....       LCALL   ?PUSH_XSTACK_I_FOUR
   \   00008F   7A40         MOV     R2,#0x40
   \   000091   7B00         MOV     R3,#0x0
   \   000093   90....       MOV     DPTR,#ZDAppTaskID
   \   000096   E0           MOVX    A,@DPTR
   \   000097   F9           MOV     R1,A
   \   000098   12....       LCALL   ??osal_start_timerEx?relay; Banked call to: osal_start_timerEx
   \   00009B   7404         MOV     A,#0x4
   \   00009D   12....       LCALL   ?DEALLOC_XSTACK8
    585                  }
    586                }
    587          
    588                // Return unprocessed events
    589                return (events ^ ZDO_NEW_DEVICE);
   \                     ??ZDApp_ProcessSecEvent_1:
   \   0000A0   EE           MOV     A,R6
   \   0000A1   6440         XRL     A,#0x40
   \   0000A3   800B         SJMP    ??ZDApp_ProcessSecEvent_4
    590              }
    591            }
    592          
    593            if ( events & ZDO_DEVICE_AUTH )
   \                     ??ZDApp_ProcessSecEvent_0:
   \   0000A5   EE           MOV     A,R6
   \   0000A6   5480         ANL     A,#0x80
   \   0000A8   600A         JZ      ??ZDApp_ProcessSecEvent_5
    594            {
    595              ZDApp_DeviceAuthEvt();
   \   0000AA                ; Setup parameters for call to function ZDApp_DeviceAuthEvt
   \   0000AA   12....       LCALL   ??ZDApp_DeviceAuthEvt?relay; Banked call to: ZDApp_DeviceAuthEvt
    596          
    597              // Return unprocessed events
    598              return (events ^ ZDO_DEVICE_AUTH);
   \   0000AD   EE           MOV     A,R6
   \   0000AE   6480         XRL     A,#0x80
   \                     ??ZDApp_ProcessSecEvent_4:
   \   0000B0   FA           MOV     R2,A
   \   0000B1   EF           MOV     A,R7
   \   0000B2   8026         SJMP    ??ZDApp_ProcessSecEvent_6
    599            }
    600          
    601            if ( events & ZDO_FRAMECOUNTER_CHANGE )
   \                     ??ZDApp_ProcessSecEvent_5:
   \   0000B4   EF           MOV     A,R7
   \   0000B5   5402         ANL     A,#0x2
   \   0000B7   600A         JZ      ??ZDApp_ProcessSecEvent_7
    602            {
    603              ZDApp_SaveNwkKey();
   \   0000B9                ; Setup parameters for call to function ZDApp_SaveNwkKey
   \   0000B9   12....       LCALL   ??ZDApp_SaveNwkKey?relay; Banked call to: ZDApp_SaveNwkKey
    604          
    605              // Return unprocessed events
    606              return (events ^ ZDO_FRAMECOUNTER_CHANGE);
   \   0000BC   EE           MOV     A,R6
   \   0000BD   FA           MOV     R2,A
   \   0000BE   EF           MOV     A,R7
   \   0000BF   6402         XRL     A,#0x2
   \   0000C1   8017         SJMP    ??ZDApp_ProcessSecEvent_6
    607            }
    608          
    609            if ( events & ZDO_APS_FRAMECOUNTER_CHANGE )
   \                     ??ZDApp_ProcessSecEvent_7:
   \   0000C3   EF           MOV     A,R7
   \   0000C4   5408         ANL     A,#0x8
   \   0000C6   6005         JZ      ??ZDApp_ProcessSecEvent_8
    610            {
    611          #if defined (NV_RESTORE)
    612              ZDSecMgrSaveApsLinkKey();
    613          #endif // (NV_RESTORE)
    614          
    615              // Return unprocessed events
    616              return (events ^ ZDO_APS_FRAMECOUNTER_CHANGE);
   \   0000C8   EF           MOV     A,R7
   \   0000C9   6408         XRL     A,#0x8
   \   0000CB   800D         SJMP    ??ZDApp_ProcessSecEvent_6
    617            }
    618          
    619            if ( events & ZDO_TCLK_FRAMECOUNTER_CHANGE )
   \                     ??ZDApp_ProcessSecEvent_8:
   \   0000CD   EF           MOV     A,R7
   \   0000CE   5404         ANL     A,#0x4
   \   0000D0   600B         JZ      ??ZDApp_ProcessSecEvent_9
    620            {
    621              ZDSecMgrSaveTCLinkKey();
   \   0000D2                ; Setup parameters for call to function ZDSecMgrSaveTCLinkKey
   \   0000D2   12....       LCALL   ??ZDSecMgrSaveTCLinkKey?relay; Banked call to: ZDSecMgrSaveTCLinkKey
    622          
    623              // Return unprocessed events
    624              return (events ^ ZDO_TCLK_FRAMECOUNTER_CHANGE);
   \   0000D5   EE           MOV     A,R6
   \   0000D6   FA           MOV     R2,A
   \   0000D7   EF           MOV     A,R7
   \   0000D8   6404         XRL     A,#0x4
   \                     ??ZDApp_ProcessSecEvent_6:
   \   0000DA   FB           MOV     R3,A
   \   0000DB   8004         SJMP    ??ZDApp_ProcessSecEvent_10
    625            }
    626          
    627            // Discard or make more handlers
    628            return 0;
   \                     ??ZDApp_ProcessSecEvent_9:
   \   0000DD   7A00         MOV     R2,#0x0
   \   0000DF   7B00         MOV     R3,#0x0
   \                     ??ZDApp_ProcessSecEvent_10:
   \   0000E1                REQUIRE ?Subroutine2
   \   0000E1                ; // Fall through to label ?Subroutine2
    629          }

   \                                 In  segment BANKED_CODE, align 1, keep-with-next
   \                     ?Subroutine2:
   \   000000   7F08         MOV     R7,#0x8
   \   000002   02....       LJMP    ?BANKED_LEAVE_XDATA

   \                                 In  segment BANKED_CODE, align 1, keep-with-next
   \                     ?Subroutine29:
   \   000000   A3           INC     DPTR
   \   000001                REQUIRE ??Subroutine47_0
   \   000001                ; // Fall through to label ??Subroutine47_0

   \                                 In  segment BANKED_CODE, align 1, keep-with-next
   \                     ??Subroutine47_0:
   \   000000   E0           MOVX    A,@DPTR
   \   000001   FA           MOV     R2,A
   \   000002   A3           INC     DPTR
   \   000003   E0           MOVX    A,@DPTR
   \   000004   FB           MOV     R3,A
   \   000005   22           RET

   \                                 In  segment BANKED_CODE, align 1, keep-with-next
   \                     ??Subroutine49_0:
   \   000000   E0           MOVX    A,@DPTR
   \   000001   F8           MOV     R0,A
   \   000002   A3           INC     DPTR
   \   000003   E0           MOVX    A,@DPTR
   \   000004   F583         MOV     DPH,A
   \   000006   8882         MOV     DPL,R0
   \   000008   E0           MOVX    A,@DPTR
   \   000009   22           RET

   \                                 In  segment BANKED_CODE, align 1, keep-with-next
   \                     ??Subroutine55_0:
   \   000000   E0           MOVX    A,@DPTR
   \   000001   F8           MOV     R0,A
   \   000002   A3           INC     DPTR
   \   000003   E0           MOVX    A,@DPTR
   \   000004   F9           MOV     R1,A
   \   000005   E8           MOV     A,R0
   \   000006   49           ORL     A,R1
   \   000007   22           RET

   \                                 In  segment BANKED_CODE, align 1, keep-with-next
   \                     ??Subroutine57_0:
   \   000000   E0           MOVX    A,@DPTR
   \   000001   F583         MOV     DPH,A
   \   000003   8882         MOV     DPL,R0
   \   000005   22           RET
    630          
    631          /*********************************************************************
    632           * Application Functions
    633           */
    634          
    635          /*********************************************************************
    636           * @fn      ZDOInitDevice
    637           *
    638           * @brief   Start the device in the network.  This function will read
    639           *   ZCD_NV_STARTUP_OPTION (NV item) to determine whether or not to
    640           *   restore the network state of the device.
    641           *
    642           * @param   startDelay - timeDelay to start device (in milliseconds).
    643           *                       There is a jitter added to this delay:
    644           *                       ((NWK_START_DELAY + startDelay)
    645           *                       + (osal_rand() & EXTENDED_JOINING_RANDOM_MASK))
    646           *                       When startDelay is set to ZDO_INIT_HOLD_NWK_START
    647           *                       this function will hold the network init. Application
    648           *                       can start the device.
    649           *
    650           * NOTE:    If the application would like to force a "new" join, the
    651           *          application should set the ZCD_STARTOPT_DEFAULT_NETWORK_STATE
    652           *          bit in the ZCD_NV_STARTUP_OPTION NV item before calling
    653           *          this function. "new" join means to not restore the network
    654           *          state of the device. Use zgWriteStartupOptions() to set these
    655           *          options.
    656           *
    657           * @return
    658           *    ZDO_INITDEV_RESTORED_NETWORK_STATE  - The device's network state was
    659           *          restored.
    660           *    ZDO_INITDEV_NEW_NETWORK_STATE - The network state was initialized.
    661           *          This could mean that ZCD_NV_STARTUP_OPTION said to not restore, or
    662           *          it could mean that there was no network state to restore.
    663           *    ZDO_INITDEV_LEAVE_NOT_STARTED - Before the reset, a network leave was issued
    664           *          with the rejoin option set to TRUE.  So, the device was not
    665           *          started in the network (one time only).  The next time this
    666           *          function is called it will start.
    667           */

   \                                 In  segment BANKED_CODE, align 1, keep-with-next
    668          uint8 ZDOInitDevice( uint16 startDelay )
   \                     ZDOInitDevice:
    669          {
   \   000000                REQUIRE ?V0
   \   000000                REQUIRE ?V1
   \   000000   74F6         MOV     A,#-0xa
   \   000002   12....       LCALL   ?BANKED_ENTER_XDATA
   \   000005                ; Saved register size: 10
   \   000005                ; Auto size: 2
   \   000005   74FE         MOV     A,#-0x2
   \   000007   12....       LCALL   ?ALLOC_XSTACK8
   \   00000A   12....       LCALL   ?Subroutine14 & 0xFFFF
    670            uint8 networkStateNV = ZDO_INITDEV_NEW_NETWORK_STATE;
    671            uint16 extendedDelay = 0;
    672          
    673            if ( devState == DEV_HOLD )
   \                     ??CrossCallReturnLabel_59:
   \   00000D   90....       MOV     DPTR,#devState
   \   000010   E0           MOVX    A,@DPTR
   \   000011   7005         JNZ     ??ZDOInitDevice_0
    674            {
    675              // Initialize the RAM items table, in case an NV item has been updated.
    676              zgInitItems( FALSE );
   \   000013                ; Setup parameters for call to function zgInitItems
   \   000013   7900         MOV     R1,#0x0
   \   000015   12....       LCALL   ??zgInitItems?relay  ; Banked call to: zgInitItems
    677            }
    678          
    679            ZDConfig_InitDescriptors();
   \                     ??ZDOInitDevice_0:
   \   000018                ; Setup parameters for call to function ZDConfig_InitDescriptors
   \   000018   12....       LCALL   ??ZDConfig_InitDescriptors?relay; Banked call to: ZDConfig_InitDescriptors
    680            //devtag.071807.todo - fix this temporary solution
    681            _NIB.CapabilityFlags = ZDO_Config_Node_Descriptor.CapabilityFlags;
   \   00001B   90....       MOV     DPTR,#ZDO_Config_Node_Descriptor + 2
   \   00001E   E0           MOVX    A,@DPTR
   \   00001F   90....       MOV     DPTR,#_NIB + 14
   \   000022   F0           MOVX    @DPTR,A
    682          
    683          #if defined ( NV_RESTORE )
    684            // Hold down the SW_BYPASS_NV key (defined in OnBoard.h)
    685            // while booting to skip past NV Restore.
    686            if ( zdappHoldKeys == SW_BYPASS_NV )
    687            {
    688              zdappHoldKeys = 0;   // Only once
    689              networkStateNV = ZDO_INITDEV_NEW_NETWORK_STATE;
    690            }
    691            else
    692            {
    693              // Determine if NV should be restored
    694              networkStateNV = ZDApp_ReadNetworkRestoreState();
    695            }
    696          
    697            if ( networkStateNV == ZDO_INITDEV_RESTORED_NETWORK_STATE )
    698            {
    699              networkStateNV = ZDApp_RestoreNetworkState();
    700            }
    701            else
    702            {
    703              // Wipe out the network state in NV
    704              NLME_InitNV();
    705              NLME_SetDefaultNV();
    706              // clear NWK key values
    707              ZDSecMgrClearNVKeyValues();
    708            }
    709          #endif
    710          
    711            if ( networkStateNV == ZDO_INITDEV_NEW_NETWORK_STATE )
    712            {
    713              ZDAppDetermineDeviceType();
   \   000023                ; Setup parameters for call to function ZDAppDetermineDeviceType
   \   000023   12....       LCALL   ??ZDAppDetermineDeviceType?relay; Banked call to: ZDAppDetermineDeviceType
    714          
    715              // Only delay if joining network - not restoring network state
    716              extendedDelay = (uint16)((NWK_START_DELAY + startDelay)
    717                        + (osal_rand() & EXTENDED_JOINING_RANDOM_MASK));
   \   000026                ; Setup parameters for call to function osal_rand
   \   000026   12....       LCALL   ??osal_rand?relay    ; Banked call to: osal_rand
   \   000029   85..82       MOV     DPL,?XSP + 0
   \   00002C   85..83       MOV     DPH,?XSP + 1
   \   00002F   EA           MOV     A,R2
   \   000030   547F         ANL     A,#0x7f
   \   000032   F8           MOV     R0,A
   \   000033   E0           MOVX    A,@DPTR
   \   000034   28           ADD     A,R0
   \   000035   F8           MOV     R0,A
   \   000036   A3           INC     DPTR
   \   000037   E0           MOVX    A,@DPTR
   \   000038   3400         ADDC    A,#0x0
   \   00003A   F9           MOV     R1,A
   \   00003B   E8           MOV     A,R0
   \   00003C   2464         ADD     A,#0x64
   \   00003E   FE           MOV     R6,A
   \   00003F   E4           CLR     A
   \   000040   39           ADDC    A,R1
   \   000041   FF           MOV     R7,A
    718            }
    719          
    720            // Initialize the security for type of device
    721            ZDApp_SecInit( networkStateNV );
   \   000042                ; Setup parameters for call to function ZDSecMgrInit
   \   000042   7901         MOV     R1,#0x1
   \   000044   12....       LCALL   ??ZDSecMgrInit?relay ; Banked call to: ZDSecMgrInit
    722          
    723            if( ZDO_INIT_HOLD_NWK_START != startDelay )
   \   000047   85..82       MOV     DPL,?XSP + 0
   \   00004A   85..83       MOV     DPH,?XSP + 1
   \   00004D   E0           MOVX    A,@DPTR
   \   00004E   F4           CPL     A
   \   00004F   7003         JNZ     ??ZDOInitDevice_1
   \   000051   A3           INC     DPTR
   \   000052   E0           MOVX    A,@DPTR
   \   000053   F4           CPL     A
   \                     ??ZDOInitDevice_1:
   \   000054   6038         JZ      ??ZDOInitDevice_2
    724            {
    725              devState = DEV_INIT;    // Remove the Hold state
   \   000056   90....       MOV     DPTR,#devState
   \   000059   7401         MOV     A,#0x1
   \   00005B   F0           MOVX    @DPTR,A
    726          
    727              // Initialize leave control logic
    728              ZDApp_LeaveCtrlInit();
   \   00005C                ; Setup parameters for call to function ZDApp_LeaveCtrlInit
   \   00005C   12....       LCALL   ??ZDApp_LeaveCtrlInit?relay; Banked call to: ZDApp_LeaveCtrlInit
    729          
    730              // Check leave control reset settings
    731              ZDApp_LeaveCtrlStartup( &devState, &startDelay );
   \   00005F                ; Setup parameters for call to function ZDApp_LeaveCtrlStartup
   \   00005F   AC..         MOV     R4,?XSP + 0
   \   000061   AD..         MOV     R5,?XSP + 1
   \   000063   7A..         MOV     R2,#devState & 0xff
   \   000065   7B..         MOV     R3,#(devState >> 8) & 0xff
   \   000067   12....       LCALL   ??ZDApp_LeaveCtrlStartup?relay; Banked call to: ZDApp_LeaveCtrlStartup
    732          
    733              // Leave may make the hold state come back
    734              if ( devState == DEV_HOLD )
   \   00006A   90....       MOV     DPTR,#devState
   \   00006D   E0           MOVX    A,@DPTR
   \   00006E   7017         JNZ     ??ZDOInitDevice_3
    735              {
    736                // Set the NV startup option to force a "new" join.
    737                zgWriteStartupOptions( ZG_STARTUP_SET, ZCD_STARTOPT_DEFAULT_NETWORK_STATE );
   \   000070                ; Setup parameters for call to function zgWriteStartupOptions
   \   000070   7A02         MOV     R2,#0x2
   \   000072   79FF         MOV     R1,#-0x1
   \   000074   12....       LCALL   ??zgWriteStartupOptions?relay; Banked call to: zgWriteStartupOptions
    738          
    739                // Notify the applications
    740                osal_set_event( ZDAppTaskID, ZDO_STATE_CHANGE_EVT );
   \   000077                ; Setup parameters for call to function osal_set_event
   \   000077   7A10         MOV     R2,#0x10
   \   000079   7B00         MOV     R3,#0x0
   \   00007B   90....       MOV     DPTR,#ZDAppTaskID
   \   00007E   E0           MOVX    A,@DPTR
   \   00007F   F9           MOV     R1,A
   \   000080   12....       LCALL   ??osal_set_event?relay; Banked call to: osal_set_event
    741          
    742                return ( ZDO_INITDEV_LEAVE_NOT_STARTED );   // Don't join - (one time).
   \   000083   7902         MOV     R1,#0x2
   \   000085   8011         SJMP    ??ZDOInitDevice_4
    743              }
    744          
    745              // Trigger the network start
    746              ZDApp_NetworkInit( extendedDelay );
   \                     ??ZDOInitDevice_3:
   \   000087                ; Setup parameters for call to function ZDApp_NetworkInit
   \   000087   EE           MOV     A,R6
   \   000088   FA           MOV     R2,A
   \   000089   EF           MOV     A,R7
   \   00008A   FB           MOV     R3,A
   \   00008B   12....       LCALL   ??ZDApp_NetworkInit?relay; Banked call to: ZDApp_NetworkInit
    747            }
    748          
    749            // set broadcast address mask to support broadcast filtering
    750            NLME_SetBroadcastFilter( ZDO_Config_Node_Descriptor.CapabilityFlags );
   \                     ??ZDOInitDevice_2:
   \   00008E                ; Setup parameters for call to function NLME_SetBroadcastFilter
   \   00008E   90....       MOV     DPTR,#ZDO_Config_Node_Descriptor + 2
   \   000091   E0           MOVX    A,@DPTR
   \   000092   F9           MOV     R1,A
   \   000093   12....       LCALL   ??NLME_SetBroadcastFilter?relay; Banked call to: NLME_SetBroadcastFilter
    751          
    752            return ( networkStateNV );
   \   000096   7901         MOV     R1,#0x1
   \                     ??ZDOInitDevice_4:
   \   000098   02....       LJMP    ?Subroutine9 & 0xFFFF
    753          }

   \                                 In  segment BANKED_CODE, align 1, keep-with-next
   \                     ?Subroutine14:
   \   000000   85..82       MOV     DPL,?XSP + 0
   \   000003   85..83       MOV     DPH,?XSP + 1
   \   000006                REQUIRE ??Subroutine46_0
   \   000006                ; // Fall through to label ??Subroutine46_0

   \                                 In  segment BANKED_CODE, align 1, keep-with-next
   \                     ??Subroutine46_0:
   \   000000   EA           MOV     A,R2
   \   000001   F0           MOVX    @DPTR,A
   \   000002   A3           INC     DPTR
   \   000003   EB           MOV     A,R3
   \   000004   F0           MOVX    @DPTR,A
   \   000005   22           RET

   \                                 In  segment BANKED_CODE, align 1, keep-with-next
   \                     ?Subroutine9:
   \   000000   7402         MOV     A,#0x2
   \   000002   80..         SJMP    ??Subroutine51_0

   \                                 In  segment BANKED_CODE, align 1, keep-with-next
   \                     ??Subroutine51_0:
   \   000000   12....       LCALL   ?DEALLOC_XSTACK8
   \   000003                REQUIRE ??Subroutine52_0
   \   000003                ; // Fall through to label ??Subroutine52_0

   \                                 In  segment BANKED_CODE, align 1, keep-with-next
   \                     ??Subroutine52_0:
   \   000000   7F02         MOV     R7,#0x2
   \   000002   02....       LJMP    ?BANKED_LEAVE_XDATA
    754          
    755          /*********************************************************************
    756           * @fn      ZDApp_ReadNetworkRestoreState
    757           *
    758           * @brief   Read the ZCD_NV_STARTUP_OPTION NV Item to state whether
    759           *          or not to restore the network state.
    760           *          If the read value has the ZCD_STARTOPT_DEFAULT_NETWORK_STATE
    761           *          bit set return the ZDO_INITDEV_NEW_NETWORK_STATE.
    762           *
    763           * @param   none
    764           *
    765           * @return  ZDO_INITDEV_NEW_NETWORK_STATE
    766           *          or ZDO_INITDEV_RESTORED_NETWORK_STATE based on whether or
    767           *          not ZCD_STARTOPT_DEFAULT_NETWORK_STATE bit is set in
    768           *          ZCD_NV_STARTUP_OPTION
    769           */

   \                                 In  segment BANKED_CODE, align 1, keep-with-next
    770          uint8 ZDApp_ReadNetworkRestoreState( void )
   \                     ZDApp_ReadNetworkRestoreState:
    771          {
   \   000000   74F7         MOV     A,#-0x9
   \   000002   12....       LCALL   ?BANKED_ENTER_XDATA
   \   000005                ; Saved register size: 9
   \   000005                ; Auto size: 0
    772            uint8 networkStateNV = ZDO_INITDEV_RESTORED_NETWORK_STATE;
   \   000005   7E00         MOV     R6,#0x0
    773          
    774            // Look for the New Network State option.
    775            if ( zgReadStartupOptions() & ZCD_STARTOPT_DEFAULT_NETWORK_STATE )
   \   000007                ; Setup parameters for call to function zgReadStartupOptions
   \   000007   12....       LCALL   ??zgReadStartupOptions?relay; Banked call to: zgReadStartupOptions
   \   00000A   E9           MOV     A,R1
   \   00000B   F8           MOV     R0,A
   \   00000C   A2E1         MOV     C,0xE0 /* A   */.1
   \   00000E   5002         JNC     ??ZDApp_ReadNetworkRestoreState_0
    776            {
    777              networkStateNV = ZDO_INITDEV_NEW_NETWORK_STATE;
   \   000010   7E01         MOV     R6,#0x1
    778            }
    779          
    780            return ( networkStateNV );
   \                     ??ZDApp_ReadNetworkRestoreState_0:
   \   000012   EE           MOV     A,R6
   \   000013   F9           MOV     R1,A
   \   000014   02....       LJMP    ??Subroutine56_0 & 0xFFFF
    781          }
    782          
    783          /*********************************************************************
    784           * @fn      ZDAppDetermineDeviceType()
    785           *
    786           * @brief   Determines the type of device to start.
    787           *
    788           *          Looks at zgDeviceLogicalType and determines what type of
    789           *          device to start.  The types are:
    790           *            ZG_DEVICETYPE_COORDINATOR
    791           *            ZG_DEVICETYPE_ROUTER
    792           *            ZG_DEVICETYPE_ENDDEVICE
    793           *
    794           * @param   none
    795           *
    796           * @return  none
    797           */

   \                                 In  segment BANKED_CODE, align 1, keep-with-next
    798          void ZDAppDetermineDeviceType( void )
   \                     ZDAppDetermineDeviceType:
    799          {
   \   000000   C082         PUSH    DPL
   \   000002   C083         PUSH    DPH
   \   000004                ; Saved register size: 2
   \   000004                ; Auto size: 0
    800            if ( zgDeviceLogicalType == ZG_DEVICETYPE_COORDINATOR )
   \   000004   90....       MOV     DPTR,#zgDeviceLogicalType
   \   000007   E0           MOVX    A,@DPTR
   \   000008   700E         JNZ     ??ZDAppDetermineDeviceType_0
    801            {
    802              devStartMode = MODE_HARD;     // Start as a coordinator
   \   00000A   90....       MOV     DPTR,#devStartMode
   \   00000D   7402         MOV     A,#0x2
   \   00000F   F0           MOVX    @DPTR,A
    803              ZDO_Config_Node_Descriptor.LogicalType = NODETYPE_COORDINATOR;
   \   000010   90....       MOV     DPTR,#ZDO_Config_Node_Descriptor
   \   000013   E0           MOVX    A,@DPTR
   \   000014   54F8         ANL     A,#0xf8
   \   000016   802E         SJMP    ??ZDAppDetermineDeviceType_1
    804            }
    805            else
    806            {
    807              if ( zgDeviceLogicalType == ZG_DEVICETYPE_ROUTER  )
   \                     ??ZDAppDetermineDeviceType_0:
   \   000018   6401         XRL     A,#0x1
   \   00001A   700A         JNZ     ??ZDAppDetermineDeviceType_2
    808                ZDO_Config_Node_Descriptor.LogicalType = NODETYPE_ROUTER;
   \   00001C   90....       MOV     DPTR,#ZDO_Config_Node_Descriptor
   \   00001F   E0           MOVX    A,@DPTR
   \   000020   54F8         ANL     A,#0xf8
   \   000022   4401         ORL     A,#0x1
   \   000024   800D         SJMP    ??ZDAppDetermineDeviceType_3
    809              else if ( zgDeviceLogicalType == ZG_DEVICETYPE_ENDDEVICE )
   \                     ??ZDAppDetermineDeviceType_2:
   \   000026   E0           MOVX    A,@DPTR
   \   000027   6402         XRL     A,#0x2
   \   000029   7009         JNZ     ??ZDAppDetermineDeviceType_4
    810                ZDO_Config_Node_Descriptor.LogicalType = NODETYPE_DEVICE;
   \   00002B   90....       MOV     DPTR,#ZDO_Config_Node_Descriptor
   \   00002E   E0           MOVX    A,@DPTR
   \   00002F   54F8         ANL     A,#0xf8
   \   000031   4402         ORL     A,#0x2
   \                     ??ZDAppDetermineDeviceType_3:
   \   000033   F0           MOVX    @DPTR,A
    811          
    812              // If AIB_apsUseExtendedPANID is set to a non-zero value by commissioning
    813              // The device shall do rejoin the network. Otherwise, do normal join
    814              if ( nwk_ExtPANIDValid( AIB_apsUseExtendedPANID ) == false )
   \                     ??ZDAppDetermineDeviceType_4:
   \   000034                ; Setup parameters for call to function nwk_ExtPANIDValid
   \   000034   7A..         MOV     R2,#AIB_apsUseExtendedPANID & 0xff
   \   000036   7B..         MOV     R3,#(AIB_apsUseExtendedPANID >> 8) & 0xff
   \   000038   12....       LCALL   ??nwk_ExtPANIDValid?relay; Banked call to: nwk_ExtPANIDValid
   \   00003B   E9           MOV     A,R1
   \   00003C   90....       MOV     DPTR,#devStartMode
   \   00003F   7003         JNZ     ??ZDAppDetermineDeviceType_5
    815              {
    816                devStartMode = MODE_JOIN;     // Assume joining
   \   000041   E4           CLR     A
   \   000042   8002         SJMP    ??ZDAppDetermineDeviceType_1
    817              }
    818              else
    819              {
    820                devStartMode = MODE_REJOIN;
   \                     ??ZDAppDetermineDeviceType_5:
   \   000044   7403         MOV     A,#0x3
   \                     ??ZDAppDetermineDeviceType_1:
   \   000046   F0           MOVX    @DPTR,A
    821              }
    822            }
    823          }
   \   000047   02....       LJMP    ??Subroutine50_0 & 0xFFFF

   \                                 In  segment BANKED_CODE, align 1, keep-with-next
   \                     ??Subroutine50_0:
   \   000000   D083         POP     DPH
   \   000002   D082         POP     DPL
   \   000004   02....       LJMP    ?BRET
    824          
    825          /*********************************************************************
    826           * @fn      ZDApp_NetworkStartEvt()
    827           *
    828           * @brief   Process the Network Start Event
    829           *
    830           * @param   none
    831           *
    832           * @return  none
    833           */

   \                                 In  segment BANKED_CODE, align 1, keep-with-next
    834          void ZDApp_NetworkStartEvt( void )
   \                     ZDApp_NetworkStartEvt:
    835          {
   \   000000   C082         PUSH    DPL
   \   000002   C083         PUSH    DPH
   \   000004                ; Saved register size: 2
   \   000004                ; Auto size: 0
    836            if ( nwkStatus == ZSuccess )
   \   000004   90....       MOV     DPTR,#nwkStatus
   \   000007   E0           MOVX    A,@DPTR
   \   000008   7012         JNZ     ??ZDApp_NetworkStartEvt_0
    837            {
    838              // Successfully started a ZigBee network
    839              if ( devState == DEV_COORD_STARTING )
   \   00000A   90....       MOV     DPTR,#devState
   \   00000D   E0           MOVX    A,@DPTR
   \   00000E   6408         XRL     A,#0x8
   \   000010   7003         JNZ     ??ZDApp_NetworkStartEvt_1
    840              {
    841                devState = DEV_ZB_COORD;
   \   000012   7409         MOV     A,#0x9
   \   000014   F0           MOVX    @DPTR,A
    842              }
    843          
    844              osal_pwrmgr_device( PWRMGR_ALWAYS_ON );
   \                     ??ZDApp_NetworkStartEvt_1:
   \   000015                ; Setup parameters for call to function osal_pwrmgr_device
   \   000015   7900         MOV     R1,#0x0
   \   000017   12....       LCALL   ??osal_pwrmgr_device?relay; Banked call to: osal_pwrmgr_device
    845              osal_set_event( ZDAppTaskID, ZDO_STATE_CHANGE_EVT );
   \   00001A                ; Setup parameters for call to function osal_set_event
   \   00001A   802E         SJMP    ??ZDApp_NetworkStartEvt_2
    846            }
    847            else
    848            {
    849              // Try again with a higher energy threshold
    850              if ( ( NLME_GetEnergyThreshold() + ENERGY_SCAN_INCREMENT ) < 0xff )
   \                     ??ZDApp_NetworkStartEvt_0:
   \   00001C                ; Setup parameters for call to function NLME_GetEnergyThreshold
   \   00001C   12....       LCALL   ??NLME_GetEnergyThreshold?relay; Banked call to: NLME_GetEnergyThreshold
   \   00001F   E9           MOV     A,R1
   \   000020   7900         MOV     R1,#0x0
   \   000022   2410         ADD     A,#0x10
   \   000024   5001         JNC     ??ZDApp_NetworkStartEvt_3
   \   000026   09           INC     R1
   \                     ??ZDApp_NetworkStartEvt_3:
   \   000027   C3           CLR     C
   \   000028   94FF         SUBB    A,#-0x1
   \   00002A   E9           MOV     A,R1
   \   00002B   9400         SUBB    A,#0x0
   \   00002D   A2D2         MOV     C,0xD0 /* PSW */.2
   \   00002F   65D0         XRL     A,PSW
   \   000031   33           RLC     A
   \   000032   5010         JNC     ??ZDApp_NetworkStartEvt_4
    851              {
    852                NLME_SetEnergyThreshold( (uint8)(NLME_GetEnergyThreshold() + ENERGY_SCAN_INCREMENT) );
   \   000034                ; Setup parameters for call to function NLME_GetEnergyThreshold
   \   000034   12....       LCALL   ??NLME_GetEnergyThreshold?relay; Banked call to: NLME_GetEnergyThreshold
   \   000037   E9           MOV     A,R1
   \   000038   F8           MOV     R0,A
   \   000039                ; Setup parameters for call to function NLME_SetEnergyThreshold
   \   000039   7410         MOV     A,#0x10
   \   00003B   29           ADD     A,R1
   \   00003C   F9           MOV     R1,A
   \   00003D   12....       LCALL   ??NLME_SetEnergyThreshold?relay; Banked call to: NLME_SetEnergyThreshold
    853                osal_set_event( ZDAppTaskID, ZDO_NETWORK_INIT );
   \   000040                ; Setup parameters for call to function osal_set_event
   \   000040   7A01         MOV     R2,#0x1
   \   000042   8008         SJMP    ??ZDApp_NetworkStartEvt_5
    854              }
    855              else
    856              {
    857                // Failed to start network. Enter a dormant state (until user intervenes)
    858                devState = DEV_INIT;
   \                     ??ZDApp_NetworkStartEvt_4:
   \   000044   90....       MOV     DPTR,#devState
   \   000047   7401         MOV     A,#0x1
   \   000049   F0           MOVX    @DPTR,A
    859                osal_set_event( ZDAppTaskID, ZDO_STATE_CHANGE_EVT );
   \   00004A                ; Setup parameters for call to function osal_set_event
   \                     ??ZDApp_NetworkStartEvt_2:
   \   00004A   7A10         MOV     R2,#0x10
   \                     ??ZDApp_NetworkStartEvt_5:
   \   00004C   7B00         MOV     R3,#0x0
   \   00004E   90....       MOV     DPTR,#ZDAppTaskID
   \   000051   E0           MOVX    A,@DPTR
   \   000052   F9           MOV     R1,A
   \   000053   12....       LCALL   ??osal_set_event?relay; Banked call to: osal_set_event
    860              }
    861            }
    862          }
   \   000056   02....       LJMP    ??Subroutine50_0 & 0xFFFF
    863          
    864          /*********************************************************************
    865           * @fn      ZDApp_DeviceAuthEvt()
    866           *
    867           * @brief   Process the Device Authentic Event
    868           *
    869           * @param   none
    870           *
    871           * @return  none
    872           */

   \                                 In  segment BANKED_CODE, align 1, keep-with-next
    873          void ZDApp_DeviceAuthEvt( void )
   \                     ZDApp_DeviceAuthEvt:
    874          {
   \   000000   C082         PUSH    DPL
   \   000002   C083         PUSH    DPH
   \   000004                ; Saved register size: 2
   \   000004                ; Auto size: 0
    875            // received authentication from trust center
    876            if ( devState == DEV_END_DEVICE_UNAUTH )
   \   000004   90....       MOV     DPTR,#devState
   \   000007   E0           MOVX    A,@DPTR
   \   000008   6405         XRL     A,#0x5
   \   00000A   7036         JNZ     ??ZDApp_DeviceAuthEvt_0
    877            {
    878              // Stop the reset timer so it doesn't reset
    879              ZDApp_ResetTimerCancel();
   \   00000C                ; Setup parameters for call to function ZDApp_ResetTimerCancel
   \   00000C   12....       LCALL   ??ZDApp_ResetTimerCancel?relay; Banked call to: ZDApp_ResetTimerCancel
    880          
    881              devState = DEV_END_DEVICE;
   \   00000F   12....       LCALL   ?Subroutine11 & 0xFFFF
    882              osal_set_event( ZDAppTaskID, ZDO_STATE_CHANGE_EVT );
   \                     ??CrossCallReturnLabel_68:
   \   000012   12....       LCALL   ??osal_set_event?relay; Banked call to: osal_set_event
    883          
    884              // Set the Power Manager Device
    885          #if defined ( POWER_SAVING )
    886              osal_pwrmgr_device( PWRMGR_BATTERY );
    887          #endif
    888          
    889              if ( ZSTACK_ROUTER_BUILD )
    890              {
    891                if ( ZDO_Config_Node_Descriptor.LogicalType != NODETYPE_DEVICE )
   \   000015   12....       LCALL   ?Subroutine24 & 0xFFFF
   \                     ??CrossCallReturnLabel_14:
   \   000018   6009         JZ      ??ZDApp_DeviceAuthEvt_1
    892                {
    893                  // NOTE: first two parameters are not used, see NLMEDE.h for details
    894                  NLME_StartRouterRequest( 0, 0, false );
   \   00001A                ; Setup parameters for call to function NLME_StartRouterRequest
   \   00001A   7B00         MOV     R3,#0x0
   \   00001C   7A00         MOV     R2,#0x0
   \   00001E   7900         MOV     R1,#0x0
   \   000020   12....       LCALL   ??NLME_StartRouterRequest?relay; Banked call to: NLME_StartRouterRequest
    895                }
    896              }
    897          
    898              // Notify to save info into NV
    899              ZDApp_NVUpdate();
    900          
    901              // Save off the security
    902              ZDApp_SaveNwkKey();
   \                     ??ZDApp_DeviceAuthEvt_1:
   \   000023                ; Setup parameters for call to function ZDApp_SaveNwkKey
   \   000023   12....       LCALL   ??ZDApp_SaveNwkKey?relay; Banked call to: ZDApp_SaveNwkKey
    903          
    904              ZDApp_AnnounceNewAddress();
   \   000026                ; Setup parameters for call to function ZDApp_AnnounceNewAddress
   \   000026   12....       LCALL   ??ZDApp_AnnounceNewAddress?relay; Banked call to: ZDApp_AnnounceNewAddress
    905          
    906              if ( ( (ZDO_Config_Node_Descriptor.CapabilityFlags & CAPINFO_RCVR_ON_IDLE) == 0 )
    907                  || ( (ZDO_Config_Node_Descriptor.CapabilityFlags & CAPINFO_RCVR_ON_IDLE)
    908          #if defined ( ZIGBEE_CHILD_AGING )
    909                    && (zgChildAgingEnable == TRUE)
    910          #endif // ZIGBEE_CHILD_AGING
    911                       ) )
   \   000029   90....       MOV     DPTR,#ZDO_Config_Node_Descriptor + 2
   \   00002C   E0           MOVX    A,@DPTR
   \   00002D   A2E3         MOV     C,0xE0 /* A   */.3
   \   00002F   5008         JNC     ??ZDApp_DeviceAuthEvt_2
   \   000031   90....       MOV     DPTR,#zgChildAgingEnable
   \   000034   E0           MOVX    A,@DPTR
   \   000035   6401         XRL     A,#0x1
   \   000037   7009         JNZ     ??ZDApp_DeviceAuthEvt_0
    912              {
    913                NLME_SetPollRate( ZDApp_SavedPollRate );
   \                     ??ZDApp_DeviceAuthEvt_2:
   \   000039                ; Setup parameters for call to function NLME_SetPollRate
   \   000039   90....       MOV     DPTR,#ZDApp_SavedPollRate
   \   00003C   12....       LCALL   ??Subroutine47_0 & 0xFFFF
    914              }
    915            }
   \                     ??CrossCallReturnLabel_63:
   \   00003F   12....       LCALL   ??NLME_SetPollRate?relay; Banked call to: NLME_SetPollRate
    916            else
    917            {
    918              ZDApp_NVUpdate();
    919            }
    920          }
   \                     ??ZDApp_DeviceAuthEvt_0:
   \   000042   02....       LJMP    ??Subroutine50_0 & 0xFFFF

   \                                 In  segment BANKED_CODE, align 1, keep-with-next
   \                     ?Subroutine11:
   \   000000   90....       MOV     DPTR,#devState
   \   000003   7406         MOV     A,#0x6
   \   000005                REQUIRE ??Subroutine48_0
   \   000005                ; // Fall through to label ??Subroutine48_0

   \                                 In  segment BANKED_CODE, align 1, keep-with-next
   \                     ?Subroutine24:
   \   000000   90....       MOV     DPTR,#ZDO_Config_Node_Descriptor
   \   000003   E0           MOVX    A,@DPTR
   \   000004   5407         ANL     A,#0x7
   \   000006   6402         XRL     A,#0x2
   \   000008   22           RET
    921          
    922          /*********************************************************************
    923           * @fn      ZDApp_SaveNetworkStateEvt()
    924           *
    925           * @brief   Process the Save the Network State Event
    926           *
    927           * @param   none
    928           *
    929           * @return  none
    930           */

   \                                 In  segment BANKED_CODE, align 1, keep-with-next
    931          void ZDApp_SaveNetworkStateEvt( void )
   \                     ZDApp_SaveNetworkStateEvt:
    932          {
   \   000000                ; Saved register size: 0
   \   000000                ; Auto size: 0
    933          #if defined ( NV_RESTORE )
    934           #if defined ( NV_TURN_OFF_RADIO )
    935            // Turn off the radio's receiver during an NV update
    936            uint8 RxOnIdle;
    937            uint8 x = false;
    938            ZMacGetReq( ZMacRxOnIdle, &RxOnIdle );
    939            ZMacSetReq( ZMacRxOnIdle, &x );
    940           #endif
    941          
    942            // Update the Network State in NV
    943            NLME_UpdateNV( NWK_NV_NIB_ENABLE        |
    944                           NWK_NV_DEVICELIST_ENABLE |
    945                           NWK_NV_BINDING_ENABLE    |
    946                           NWK_NV_ADDRMGR_ENABLE );
    947          
    948            // Reset the NV startup option to resume from NV by
    949            // clearing the "New" join option.
    950            zgWriteStartupOptions( FALSE, ZCD_STARTOPT_DEFAULT_NETWORK_STATE );
    951          
    952           #if defined ( NV_TURN_OFF_RADIO )
    953            ZMacSetReq( ZMacRxOnIdle, &RxOnIdle );
    954           #endif
    955          #endif // NV_RESTORE
    956          }
   \   000000   02....       LJMP    ?BRET
    957          
    958          #if defined ( NV_RESTORE )
    959          /*********************************************************************
    960           * @fn      ZDApp_RestoreNetworkState()
    961           *
    962           * @brief   This function will restore the network state of the
    963           *          device if the network state is stored in NV.
    964           *
    965           * @param   none
    966           *
    967           * @return
    968           *    ZDO_INITDEV_RESTORED_NETWORK_STATE  - The device's network state was
    969           *          restored.
    970           *    ZDO_INITDEV_NEW_NETWORK_STATE - The network state was not used.
    971           *          This could mean that zgStartupOption said to not restore, or
    972           *          it could mean that there was no network state to restore.
    973           *
    974           */
    975          uint8 ZDApp_RestoreNetworkState( void )
    976          {
    977            uint8 nvStat;
    978          
    979            // Initialize NWK NV items
    980            nvStat = NLME_InitNV();
    981          
    982            if ( nvStat != NV_OPER_FAILED )
    983            {
    984              if ( NLME_RestoreFromNV() )
    985              {
    986                // Are we a coordinator
    987                ZDAppNwkAddr.addr.shortAddr = NLME_GetShortAddr();
    988                if ( ZDAppNwkAddr.addr.shortAddr == 0 )
    989                  ZDO_Config_Node_Descriptor.LogicalType = NODETYPE_COORDINATOR;
    990                devStartMode = MODE_RESUME;
    991                osal_cpyExtAddr( ZDO_UseExtendedPANID, _NIB.extendedPANID );
    992              }
    993              else
    994                nvStat = NV_ITEM_UNINIT;
    995          
    996              if ( ZG_SECURE_ENABLED )
    997              {
    998                nwkFrameCounterChanges = 0;
    999          
   1000                if ( ZG_BUILD_COORDINATOR_TYPE && ZG_DEVICE_COORDINATOR_TYPE )
   1001                {
   1002                  ZDApp_RestoreNwkKey();
   1003                }
   1004              }
   1005          
   1006              // The default for RxOnWhenIdle is true for Routers and false for end devices
   1007              // [setup in the NLME_RestoreFromNV()].  Change it here if you want something
   1008              // other than default.
   1009            }
   1010          
   1011            if ( nvStat == ZSUCCESS )
   1012              return ( ZDO_INITDEV_RESTORED_NETWORK_STATE );
   1013            else
   1014              return ( ZDO_INITDEV_NEW_NETWORK_STATE );
   1015          }
   1016          #endif // NV_RESTORE
   1017          
   1018          /*********************************************************************
   1019           * @fn      ZDApp_InitUserDesc()
   1020           *
   1021           * @brief   Initialize the User Descriptor, the descriptor is read from NV
   1022           *          when needed.  If you want to initialize the User descriptor to
   1023           *          something other than all zero, do it here.
   1024           *
   1025           * @param   none
   1026           *
   1027           * @return  none
   1028           */

   \                                 In  segment BANKED_CODE, align 1, keep-with-next
   1029          void ZDApp_InitUserDesc( void )
   \                     ZDApp_InitUserDesc:
   1030          {
   \   000000                REQUIRE ?V0
   \   000000                REQUIRE ?V1
   \   000000   74F6         MOV     A,#-0xa
   \   000002   12....       LCALL   ?BANKED_ENTER_XDATA
   \   000005                ; Saved register size: 10
   \   000005                ; Auto size: 17
   \   000005   74EF         MOV     A,#-0x11
   \   000007   12....       LCALL   ?ALLOC_XSTACK8
   1031            UserDescriptorFormat_t ZDO_DefaultUserDescriptor;
   1032          
   1033            // Initialize the User Descriptor, the descriptor is read from NV
   1034            // when needed.  If you want to initialize the User descriptor to something
   1035            // other than all zero, do it here.
   1036            osal_memset( &ZDO_DefaultUserDescriptor, 0, sizeof( UserDescriptorFormat_t ) );
   \   00000A                ; Setup parameters for call to function osal_memset
   \   00000A   7C11         MOV     R4,#0x11
   \   00000C   7D00         MOV     R5,#0x0
   \   00000E   7900         MOV     R1,#0x0
   \   000010   AA..         MOV     R2,?XSP + 0
   \   000012   AB..         MOV     R3,?XSP + 1
   \   000014   12....       LCALL   ??osal_memset?relay  ; Banked call to: osal_memset
   1037            if ( ZSUCCESS == osal_nv_item_init( ZCD_NV_USERDESC,
   1038                   sizeof(UserDescriptorFormat_t), (void*)&ZDO_DefaultUserDescriptor ) )
   \   000017                ; Setup parameters for call to function osal_nv_item_init
   \   000017   A8..         MOV     R0,?XSP + 0
   \   000019   A9..         MOV     R1,?XSP + 1
   \   00001B   88..         MOV     ?V0,R0
   \   00001D   89..         MOV     ?V1,R1
   \   00001F   78..         MOV     R0,#?V0
   \   000021   12....       LCALL   ?PUSH_XSTACK_I_TWO
   \   000024   7C11         MOV     R4,#0x11
   \   000026   7D00         MOV     R5,#0x0
   \   000028   7A81         MOV     R2,#-0x7f
   \   00002A   7B00         MOV     R3,#0x0
   \   00002C   12....       LCALL   ??osal_nv_item_init?relay; Banked call to: osal_nv_item_init
   \   00002F   7402         MOV     A,#0x2
   \   000031   12....       LCALL   ?DEALLOC_XSTACK8
   \   000034   E9           MOV     A,R1
   \   000035   7033         JNZ     ??ZDApp_InitUserDesc_0
   1039            {
   1040              if ( ZSUCCESS == osal_nv_read( ZCD_NV_USERDESC, 0,
   1041                   sizeof(UserDescriptorFormat_t), (void*)&ZDO_DefaultUserDescriptor ) )
   \   000037                ; Setup parameters for call to function osal_nv_read
   \   000037   78..         MOV     R0,#?V0
   \   000039   12....       LCALL   ?PUSH_XSTACK_I_TWO
   \   00003C   75..11       MOV     ?V0,#0x11
   \   00003F   75..00       MOV     ?V1,#0x0
   \   000042   78..         MOV     R0,#?V0
   \   000044   12....       LCALL   ?PUSH_XSTACK_I_TWO
   \   000047   7C00         MOV     R4,#0x0
   \   000049   7D00         MOV     R5,#0x0
   \   00004B   7A81         MOV     R2,#-0x7f
   \   00004D   7B00         MOV     R3,#0x0
   \   00004F   12....       LCALL   ??osal_nv_read?relay ; Banked call to: osal_nv_read
   \   000052   7404         MOV     A,#0x4
   \   000054   12....       LCALL   ?DEALLOC_XSTACK8
   \   000057   E9           MOV     A,R1
   \   000058   7010         JNZ     ??ZDApp_InitUserDesc_0
   1042              {
   1043                if ( ZDO_DefaultUserDescriptor.len != 0 )
   \   00005A   85..82       MOV     DPL,?XSP + 0
   \   00005D   85..83       MOV     DPH,?XSP + 1
   \   000060   E0           MOVX    A,@DPTR
   \   000061   6007         JZ      ??ZDApp_InitUserDesc_0
   1044                {
   1045                  ZDO_Config_Node_Descriptor.UserDescAvail = TRUE;
   \   000063   90....       MOV     DPTR,#ZDO_Config_Node_Descriptor
   \   000066   E0           MOVX    A,@DPTR
   \   000067   D2E4         SETB    0xE0 /* A   */.4
   \   000069   F0           MOVX    @DPTR,A
   1046                }
   1047              }
   1048            }
   1049          }
   \                     ??ZDApp_InitUserDesc_0:
   \   00006A   7411         MOV     A,#0x11
   \   00006C   02....       LJMP    ??Subroutine51_0 & 0xFFFF
   1050          
   1051          /*********************************************************************
   1052           * @fn      ZDAppCheckForHoldKey()
   1053           *
   1054           * @brief   Check for key to set the device into Hold Auto Start
   1055           *
   1056           * @param   none
   1057           *
   1058           * @return  none
   1059           */

   \                                 In  segment BANKED_CODE, align 1, keep-with-next
   1060          void ZDAppCheckForHoldKey( void )
   \                     ZDAppCheckForHoldKey:
   1061          {
   \   000000   C082         PUSH    DPL
   \   000002   C083         PUSH    DPH
   \   000004                ; Saved register size: 2
   \   000004                ; Auto size: 0
   1062          #if (defined HAL_KEY) && (HAL_KEY == TRUE)
   1063            
   1064            // Get Keypad directly to see if a HOLD is needed
   1065            zdappHoldKeys = HalKeyRead();
   \   000004                ; Setup parameters for call to function HalKeyRead
   \   000004   12....       LCALL   ??HalKeyRead?relay   ; Banked call to: HalKeyRead
   \   000007   E9           MOV     A,R1
   \   000008   90....       MOV     DPTR,#zdappHoldKeys
   \   00000B   F0           MOVX    @DPTR,A
   1066            
   1067            // Hold down the SW_BYPASS_START key (see OnBoard.h)
   1068            // while booting to avoid starting up the device.
   1069            if ( zdappHoldKeys == SW_BYPASS_START )
   \   00000C   6401         XRL     A,#0x1
   \   00000E   7005         JNZ     ??ZDAppCheckForHoldKey_0
   1070            {
   1071              // Change the device state to HOLD on start up
   1072              devState = DEV_HOLD;
   \   000010   90....       MOV     DPTR,#devState
   \   000013   E4           CLR     A
   \   000014   F0           MOVX    @DPTR,A
   1073            }
   1074          #endif // HAL_KEY
   1075          }
   \                     ??ZDAppCheckForHoldKey_0:
   \   000015   02....       LJMP    ??Subroutine50_0 & 0xFFFF
   1076          
   1077          /*********************************************************************
   1078           * @fn      ZDApp_ProcessOSALMsg()
   1079           *
   1080           * @brief   Process the incoming task message.
   1081           *
   1082           * @param   msgPtr - message to process
   1083           *
   1084           * @return  none
   1085           */

   \                                 In  segment BANKED_CODE, align 1, keep-with-next
   1086          void ZDApp_ProcessOSALMsg( osal_event_hdr_t *msgPtr )
   \                     ZDApp_ProcessOSALMsg:
   1087          {
   \   000000   C082         PUSH    DPL
   \   000002   C083         PUSH    DPH
   \   000004                ; Saved register size: 2
   \   000004                ; Auto size: 0
   1088            // Data Confirmation message fields
   1089            uint8 sentEP;       // This should always be 0
   1090            uint8 sentStatus;
   1091            afDataConfirm_t *afDataConfirm;
   1092            uint8 tmp;
   1093          
   1094            switch ( msgPtr->event )
   \   000004   8A82         MOV     DPL,R2
   \   000006   8B83         MOV     DPH,R3
   \   000008   E0           MOVX    A,@DPTR
   \   000009   24E6         ADD     A,#-0x1a
   \   00000B   600A         JZ      ??ZDApp_ProcessOSALMsg_0
   \   00000D   2447         ADD     A,#0x47
   \   00000F   600B         JZ      ??ZDApp_ProcessOSALMsg_1
   \   000011   24D6         ADD     A,#-0x2a
   \   000013   600C         JZ      ??ZDApp_ProcessOSALMsg_2
   \   000015   8018         SJMP    ??ZDApp_ProcessOSALMsg_3
   1095            {
   1096              // Incoming ZDO Message
   1097              case AF_INCOMING_MSG_CMD:
   1098                ZDP_IncomingData( (afIncomingMSGPacket_t *)msgPtr );
   \                     ??ZDApp_ProcessOSALMsg_0:
   \   000017                ; Setup parameters for call to function ZDP_IncomingData
   \   000017   12....       LCALL   ??ZDP_IncomingData?relay; Banked call to: ZDP_IncomingData
   1099                break;
   \   00001A   8013         SJMP    ??ZDApp_ProcessOSALMsg_3
   1100          
   1101              case ZDO_CB_MSG:
   1102                ZDApp_ProcessMsgCBs( (zdoIncomingMsg_t *)msgPtr );
   \                     ??ZDApp_ProcessOSALMsg_1:
   \   00001C                ; Setup parameters for call to function ZDApp_ProcessMsgCBs
   \   00001C   12....       LCALL   ??ZDApp_ProcessMsgCBs?relay; Banked call to: ZDApp_ProcessMsgCBs
   1103                break;
   \   00001F   800E         SJMP    ??ZDApp_ProcessOSALMsg_3
   1104          
   1105              case AF_DATA_CONFIRM_CMD:
   1106                // This message is received as a confirmation of a data packet sent.
   1107                // The status is of ZStatus_t type [defined in NLMEDE.h]
   1108                // The message fields are defined in AF.h
   1109                afDataConfirm = (afDataConfirm_t *)msgPtr;
   1110                sentEP = afDataConfirm->endpoint;
   1111                sentStatus = afDataConfirm->hdr.status;
   1112          
   1113                // Action taken when confirmation is received.
   1114          #if defined ( ZIGBEE_FREQ_AGILITY )
   1115                if ( pZDNwkMgr_ProcessDataConfirm )
   \                     ??ZDApp_ProcessOSALMsg_2:
   \   000021   90....       MOV     DPTR,#pZDNwkMgr_ProcessDataConfirm
   \   000024   12....       LCALL   ??Subroutine55_0 & 0xFFFF
   \                     ??CrossCallReturnLabel_87:
   \   000027   6006         JZ      ??ZDApp_ProcessOSALMsg_3
   1116                  pZDNwkMgr_ProcessDataConfirm( afDataConfirm );
   \   000029                ; Setup parameters for indirect call
   \   000029   12....       LCALL   ??Subroutine57_0 & 0xFFFF
   1117          #endif
   1118                (void)sentEP;
   1119                (void)sentStatus;
   1120                break;
   1121          
   1122              case ZDO_NWK_DISC_CNF:
   1123                if (devState != DEV_NWK_DISC)
   1124                  break;
   1125          
   1126                if ( ZG_BUILD_JOINING_TYPE && ZG_DEVICE_JOINING_TYPE )
   1127                {
   1128                  // Process the network discovery scan results and choose a parent
   1129                  // device to join/rejoin itself
   1130                  networkDesc_t *pChosenNwk;
   1131                  if ( ( (pChosenNwk = ZDApp_NwkDescListProcessing()) != NULL ) && (zdoDiscCounter > NUM_DISC_ATTEMPTS) )
   1132                  {
   1133                    if ( devStartMode == MODE_JOIN )
   1134                    {
   1135                      devState = DEV_NWK_JOINING;
   1136          
   1137                      ZDApp_NodeProfileSync( pChosenNwk->stackProfile);
   1138          
   1139                      if ( NLME_JoinRequest( pChosenNwk->extendedPANID, pChosenNwk->panId,
   1140                                            pChosenNwk->logicalChannel,
   1141                                            ZDO_Config_Node_Descriptor.CapabilityFlags,
   1142                                            pChosenNwk->chosenRouter, pChosenNwk->chosenRouterDepth ) != ZSuccess )
   1143                      {
   1144                        ZDApp_NetworkInit( (uint16)(NWK_START_DELAY
   1145                                                    + ((uint16)(osal_rand()& EXTENDED_JOINING_RANDOM_MASK))) );
   1146                      }
   1147                    } // if ( devStartMode == MODE_JOIN )
   1148                    else if ( devStartMode == MODE_REJOIN )
   1149                    {
   1150                      ZStatus_t rejoinStatus;
   1151          
   1152                      devState = DEV_NWK_REJOIN;
   1153          
   1154                      // Before trying to do rejoin, check if the device has a valid short address
   1155                      // If not, generate a random short address for itself
   1156                      if ( _NIB.nwkDevAddress == INVALID_NODE_ADDR )
   1157                      {
   1158                        uint16 commNwkAddr;
   1159          
   1160                        // Verify if the Network address has been commissioned by external tool
   1161                        if ( ( osal_nv_read( ZCD_NV_COMMISSIONED_NWK_ADDR, 0,
   1162                                           sizeof(commNwkAddr),
   1163                                           (void*)&commNwkAddr ) == ZSUCCESS )   &&
   1164                             ( commNwkAddr != INVALID_NODE_ADDR ) )
   1165                        {
   1166                          _NIB.nwkDevAddress = commNwkAddr;
   1167          
   1168                          // clear Allocate address bit because device has a commissioned address
   1169                          _NIB.CapabilityFlags &= ~CAPINFO_ALLOC_ADDR;
   1170                        }
   1171                        else
   1172                        {
   1173                          _NIB.nwkDevAddress = osal_rand();
   1174                        }
   1175          
   1176                        ZMacSetReq( ZMacShortAddress, (byte*)&_NIB.nwkDevAddress );
   1177                      }
   1178          
   1179                      // Check if the device has a valid PanID, if not, set it to the discovered Pan
   1180                      if ( _NIB.nwkPanId == INVALID_PAN_ID )
   1181                      {
   1182                        _NIB.nwkPanId = pChosenNwk->panId;
   1183                        ZMacSetReq( ZMacPanId, (byte*)&(_NIB.nwkPanId) );
   1184                      }
   1185          
   1186                      tmp = true;
   1187                      ZMacSetReq( ZMacRxOnIdle, &tmp ); // Set receiver always on during rejoin
   1188          
   1189                      // Perform Secure or Unsecure Rejoin depending on available configuration
   1190                      if ( ZG_SECURE_ENABLED && ( ZDApp_RestoreNwkKey() == TRUE ) )
   1191                      {
   1192                        rejoinStatus = NLME_ReJoinRequest( ZDO_UseExtendedPANID, pChosenNwk->logicalChannel);
   1193                      }
   1194                      else
   1195                      {
   1196                        rejoinStatus = NLME_ReJoinRequestUnsecure( ZDO_UseExtendedPANID, pChosenNwk->logicalChannel);
   1197                      }
   1198          
   1199                      if ( rejoinStatus != ZSuccess )
   1200                      {
   1201                        ZDApp_NetworkInit( (uint16)(NWK_START_DELAY
   1202                                                    + ((uint16)(osal_rand()& EXTENDED_JOINING_RANDOM_MASK))) );
   1203                      }
   1204                    } // else if ( devStartMode == MODE_REJOIN )
   1205          
   1206                    // The receiver is on, turn network layer polling off.
   1207                    if ( ZDO_Config_Node_Descriptor.CapabilityFlags & CAPINFO_RCVR_ON_IDLE )
   1208                    {
   1209                      // for an End Device with NO Child Table Management process or for a Router
   1210                      if ( ( ZG_DEVICE_RTR_TYPE )  ||
   1211          #if defined ( ZIGBEE_CHILD_AGING )
   1212                           ( (ZG_DEVICE_ENDDEVICE_TYPE) && ( zgChildAgingEnable == FALSE ) ) )
   1213          #else
   1214                           (ZG_DEVICE_ENDDEVICE_TYPE) )
   1215          #endif // ZIGBEE_CHILD_AGING
   1216                      {
   1217                        NLME_SetPollRate( 0 );
   1218                        NLME_SetQueuedPollRate( 0 );
   1219                        NLME_SetResponseRate( 0 );
   1220                      }
   1221                    }
   1222                    else
   1223                    {
   1224                      if ( (ZG_SECURE_ENABLED) && (devStartMode == MODE_JOIN) )
   1225                      {
   1226                        ZDApp_SavedPollRate = zgPollRate;
   1227                        NLME_SetPollRate( zgRejoinPollRate );
   1228                      }
   1229                    }
   1230                  }
   1231                  else
   1232                  {
   1233                    if ( continueJoining )
   1234                    {
   1235              #if defined ( MANAGED_SCAN )
   1236                      ZDApp_NetworkInit( MANAGEDSCAN_DELAY_BETWEEN_SCANS );
   1237              #else
   1238                      zdoDiscCounter++;
   1239                      ZDApp_NetworkInit( (uint16)(BEACON_REQUEST_DELAY
   1240                            + ((uint16)(osal_rand()& BEACON_REQ_DELAY_MASK))) );
   1241              #endif
   1242                    }
   1243                  }
   1244                }
   1245                break;
   1246          
   1247              case ZDO_NWK_JOIN_IND:
   1248                if ( ZG_BUILD_JOINING_TYPE && ZG_DEVICE_JOINING_TYPE )
   1249                {
   1250                  ZDApp_ProcessNetworkJoin();
   1251                }
   1252                break;
   1253          
   1254              case ZDO_NWK_JOIN_REQ:
   1255                if ( ZG_BUILD_JOINING_TYPE && ZG_DEVICE_JOINING_TYPE )
   1256                {
   1257                  retryCnt = 0;
   1258                  devStartMode = MODE_RESUME;
   1259                  _tmpRejoinState = true;
   1260                  osal_cpyExtAddr( ZDO_UseExtendedPANID, _NIB.extendedPANID );
   1261                  zgDefaultStartingScanDuration = BEACON_ORDER_60_MSEC;
   1262                  ZDApp_NetworkInit( 0 );
   1263                }
   1264                break;
   1265          
   1266              default:
   1267                if ( ZG_SECURE_ENABLED )
   1268                  ZDApp_ProcessSecMsg( msgPtr );
   1269                break;
   1270            }
   \                     ??CrossCallReturnLabel_105:
   \   00002C   12....       LCALL   ?CALL_IND
   1271          
   1272          }
   \                     ??ZDApp_ProcessOSALMsg_3:
   \   00002F   02....       LJMP    ??Subroutine50_0 & 0xFFFF
   1273          
   1274          /*********************************************************************
   1275           * @fn      ZDApp_ProcessMsgCBs()
   1276           *
   1277           * @brief   Process response messages
   1278           *
   1279           * @param   none
   1280           *
   1281           * @return  none
   1282           */

   \                                 In  segment BANKED_CODE, align 1, keep-with-next
   \                     ?Subroutine1:
   \   000000   12....       LCALL   ?DEALLOC_XSTACK8
   \   000003                REQUIRE ??Subroutine45_0
   \   000003                ; // Fall through to label ??Subroutine45_0

   \                                 In  segment BANKED_CODE, align 1, keep-with-next
   1283          void ZDApp_ProcessMsgCBs( zdoIncomingMsg_t *inMsg )
   \                     ZDApp_ProcessMsgCBs:
   1284          {
   \   000000                REQUIRE ?V0
   \   000000                REQUIRE ?V1
   \   000000                REQUIRE ?V2
   \   000000                REQUIRE ?V3
   \   000000   74F4         MOV     A,#-0xc
   \   000002   12....       LCALL   ?BANKED_ENTER_XDATA
   \   000005                ; Saved register size: 12
   \   000005                ; Auto size: 44
   \   000005   74D4         MOV     A,#-0x2c
   \   000007   12....       LCALL   ?ALLOC_XSTACK8
   \   00000A   EA           MOV     A,R2
   \   00000B   FE           MOV     R6,A
   \   00000C   EB           MOV     A,R3
   \   00000D   FF           MOV     R7,A
   1285            switch ( inMsg->clusterID )
   \   00000E   12....       LCALL   ?Subroutine31 & 0xFFFF
   \                     ??CrossCallReturnLabel_27:
   \   000011   F5..         MOV     ?V1,A
   \   000013   78..         MOV     R0,#?V0
   \   000015   12....       LCALL   ?US_SWITCH_SPARSE
   \                     `?<Jumptable for ZDApp_ProcessMsgCBs>_0`:
   \   000018   0300         DW        3
   \   00001A   2100         DW        33
   \   00001C   2200         DW        34
   \   00001E   ....         DW        ??ZDApp_ProcessMsgCBs_0
   \   000020   0080         DW        32768
   \   000022   0180         DW        32769
   \   000024   ....         DW        ??ZDApp_ProcessMsgCBs_1
   \   000026   2180         DW        32801
   \   000028   2280         DW        32802
   \   00002A   ....         DW        ??ZDApp_ProcessMsgCBs_2
   \   00002C   0100         DW        1
   \   00002E   2000         DW        32
   \   000030   ....         DW        ??ZDApp_ProcessMsgCBs_3
   \   000032   ....         DW        ??ZDApp_ProcessMsgCBs_4
   1286            {
   1287          #if defined ( ZDO_NWKADDR_REQUEST ) || defined ( ZDO_IEEEADDR_REQUEST ) || defined ( REFLECTOR )
   1288              case NWK_addr_rsp:
   1289              case IEEE_addr_rsp:
   1290                {
   1291                  ZDO_NwkIEEEAddrResp_t *pAddrRsp;
   1292          
   1293                  pAddrRsp = ZDO_ParseAddrRsp( inMsg );
   \                     ??ZDApp_ProcessMsgCBs_1:
   \   000034                ; Setup parameters for call to function ZDO_ParseAddrRsp
   \   000034   12....       LCALL   ??ZDO_ParseAddrRsp?relay; Banked call to: ZDO_ParseAddrRsp
   \   000037   8A..         MOV     ?V0,R2
   \   000039   8B..         MOV     ?V1,R3
   1294                  if ( pAddrRsp )
   \   00003B   EA           MOV     A,R2
   \   00003C   45..         ORL     A,?V1
   \   00003E   7003         JNZ     $+5
   \   000040   02....       LJMP    ??ZDApp_ProcessMsgCBs_4 & 0xFFFF
   1295                  {
   1296                    if ( pAddrRsp->status == ZSuccess )
   \   000043   8A82         MOV     DPL,R2
   \   000045   8B83         MOV     DPH,R3
   \   000047   E0           MOVX    A,@DPTR
   \   000048   700E         JNZ     ??ZDApp_ProcessMsgCBs_5
   1297                    {
   1298                      ZDO_UpdateAddrManager( pAddrRsp->nwkAddr, pAddrRsp->extAddr );
   \   00004A                ; Setup parameters for call to function ZDO_UpdateAddrManager
   \   00004A   EA           MOV     A,R2
   \   00004B   2403         ADD     A,#0x3
   \   00004D   FC           MOV     R4,A
   \   00004E   E4           CLR     A
   \   00004F   35..         ADDC    A,?V1
   \   000051   FD           MOV     R5,A
   \   000052   12....       LCALL   ?Subroutine29 & 0xFFFF
   1299                    }
   \                     ??CrossCallReturnLabel_67:
   \   000055   12....       LCALL   ??ZDO_UpdateAddrManager?relay; Banked call to: ZDO_UpdateAddrManager
   1300          
   1301          #if !defined ( ZDP_BIND_SKIP_VALIDATION )
   1302                    // look for pending bind entry for NWK_addr_rsp Only
   1303                    if ( inMsg->clusterID == NWK_addr_rsp )
   \                     ??ZDApp_ProcessMsgCBs_5:
   \   000058   12....       LCALL   ?Subroutine32 & 0xFFFF
   \                     ??CrossCallReturnLabel_29:
   \   00005B   7004         JNZ     ??ZDApp_ProcessMsgCBs_6
   \   00005D   A3           INC     DPTR
   \   00005E   E0           MOVX    A,@DPTR
   \   00005F   6480         XRL     A,#0x80
   \                     ??ZDApp_ProcessMsgCBs_6:
   \   000061   700C         JNZ     ??ZDApp_ProcessMsgCBs_7
   1304                    {
   1305          #if defined ( REFLECTOR )
   1306                      ZDApp_ProcessPendingBindReq( pAddrRsp->extAddr );
   \   000063                ; Setup parameters for call to function ZDApp_ProcessPendingBindReq
   \   000063   E5..         MOV     A,?V0
   \   000065   2403         ADD     A,#0x3
   \   000067   FA           MOV     R2,A
   \   000068   E4           CLR     A
   \   000069   35..         ADDC    A,?V1
   \   00006B   FB           MOV     R3,A
   \   00006C   12....       LCALL   ??ZDApp_ProcessPendingBindReq?relay; Banked call to: ZDApp_ProcessPendingBindReq
   1307          #endif
   1308                    }
   1309          #endif
   1310          
   1311                    osal_mem_free( pAddrRsp );
   \                     ??ZDApp_ProcessMsgCBs_7:
   \   00006F                ; Setup parameters for call to function osal_mem_free
   \   00006F   AA..         MOV     R2,?V0
   \   000071   AB..         MOV     R3,?V1
   \   000073   8075         SJMP    ??CrossCallReturnLabel_65
   1312                  }
   1313                }
   1314                break;
   1315          #endif
   1316          
   1317          #if defined ( REFLECTOR )
   1318              case Bind_req:
   1319              case Unbind_req:
   1320                {
   1321                  ZDO_BindUnbindReq_t bindReq;
   1322                  ZDO_ParseBindUnbindReq( inMsg, &bindReq );
   \                     ??ZDApp_ProcessMsgCBs_0:
   \   000075                ; Setup parameters for call to function ZDO_ParseBindUnbindReq
   \   000075   7417         MOV     A,#0x17
   \   000077   12....       LCALL   ?XSTACK_DISP102_8
   \   00007A   12....       LCALL   ??ZDO_ParseBindUnbindReq?relay; Banked call to: ZDO_ParseBindUnbindReq
   1323                  ZDO_ProcessBindUnbindReq( inMsg, &bindReq );
   \   00007D                ; Setup parameters for call to function ZDO_ProcessBindUnbindReq
   \   00007D   7417         MOV     A,#0x17
   \   00007F   12....       LCALL   ?XSTACK_DISP102_8
   \   000082   EE           MOV     A,R6
   \   000083   FA           MOV     R2,A
   \   000084   EF           MOV     A,R7
   \   000085   FB           MOV     R3,A
   \   000086   12....       LCALL   ??ZDO_ProcessBindUnbindReq?relay; Banked call to: ZDO_ProcessBindUnbindReq
   1324                }
   1325                break;
   \   000089   8062         SJMP    ??ZDApp_ProcessMsgCBs_4
   1326          #endif
   1327          
   1328          #if ( ZG_BUILD_COORDINATOR_TYPE )
   1329              case Bind_rsp:
   1330              case Unbind_rsp:
   1331                if (ZG_DEVICE_COORDINATOR_TYPE && matchED)
   \                     ??ZDApp_ProcessMsgCBs_2:
   \   00008B   90....       MOV     DPTR,#matchED
   \   00008E   12....       LCALL   ??Subroutine55_0 & 0xFFFF
   \                     ??CrossCallReturnLabel_88:
   \   000091   605A         JZ      ??ZDApp_ProcessMsgCBs_4
   1332                {
   1333                  ZDMatchSendState(
   1334                       (uint8)((inMsg->clusterID == Bind_rsp) ? ZDMATCH_REASON_BIND_RSP : ZDMATCH_REASON_UNBIND_RSP),
   1335                       ZDO_ParseBindRsp(inMsg), inMsg->TransSeq );
   \   000093   12....       LCALL   ?Subroutine32 & 0xFFFF
   1336                }
   \                     ??CrossCallReturnLabel_30:
   \   000096   6421         XRL     A,#0x21
   \   000098   7004         JNZ     ??ZDApp_ProcessMsgCBs_8
   \   00009A   A3           INC     DPTR
   \   00009B   E0           MOVX    A,@DPTR
   \   00009C   6480         XRL     A,#0x80
   \                     ??ZDApp_ProcessMsgCBs_8:
   \   00009E   7004         JNZ     ??ZDApp_ProcessMsgCBs_9
   \   0000A0   7903         MOV     R1,#0x3
   \   0000A2   8002         SJMP    ??ZDApp_ProcessMsgCBs_10
   \                     ??ZDApp_ProcessMsgCBs_9:
   \   0000A4   7902         MOV     R1,#0x2
   \                     ??ZDApp_ProcessMsgCBs_10:
   \   0000A6                ; Setup parameters for call to function ZDMatchSendState
   \   0000A6   EE           MOV     A,R6
   \   0000A7   240F         ADD     A,#0xf
   \   0000A9   12....       LCALL   ??Subroutine58_0 & 0xFFFF
   \                     ??CrossCallReturnLabel_116:
   \   0000AC   FB           MOV     R3,A
   \   0000AD   12....       LCALL   ?Subroutine36 & 0xFFFF
   \                     ??CrossCallReturnLabel_39:
   \   0000B0   12....       LCALL   ??Subroutine49_0 & 0xFFFF
   \                     ??CrossCallReturnLabel_72:
   \   0000B3   FA           MOV     R2,A
   \   0000B4   12....       LCALL   ??ZDMatchSendState?relay; Banked call to: ZDMatchSendState
   \   0000B7   8034         SJMP    ??ZDApp_ProcessMsgCBs_4
   1337                break;
   1338          
   1339              case End_Device_Bind_req:
   1340                if (ZG_DEVICE_COORDINATOR_TYPE)
   1341                {
   1342                  ZDEndDeviceBind_t bindReq;
   1343                  ZDO_ParseEndDeviceBindReq( inMsg, &bindReq );
   \                     ??ZDApp_ProcessMsgCBs_3:
   \   0000B9                ; Setup parameters for call to function ZDO_ParseEndDeviceBindReq
   \   0000B9   AC..         MOV     R4,?XSP + 0
   \   0000BB   AD..         MOV     R5,?XSP + 1
   \   0000BD   12....       LCALL   ??ZDO_ParseEndDeviceBindReq?relay; Banked call to: ZDO_ParseEndDeviceBindReq
   1344                  ZDO_MatchEndDeviceBind( &bindReq );
   \   0000C0                ; Setup parameters for call to function ZDO_MatchEndDeviceBind
   \   0000C0   AA..         MOV     R2,?XSP + 0
   \   0000C2   AB..         MOV     R3,?XSP + 1
   \   0000C4   12....       LCALL   ??ZDO_MatchEndDeviceBind?relay; Banked call to: ZDO_MatchEndDeviceBind
   1345          
   1346                  // Freeing the cluster lists - if allocated.
   1347                  if ( bindReq.numInClusters )
   \   0000C7   7411         MOV     A,#0x11
   \   0000C9   12....       LCALL   ?XSTACK_DISP0_8
   \   0000CC   E0           MOVX    A,@DPTR
   \   0000CD   600B         JZ      ??ZDApp_ProcessMsgCBs_11
   1348                    osal_mem_free( bindReq.inClusters );
   \   0000CF                ; Setup parameters for call to function osal_mem_free
   \   0000CF   7412         MOV     A,#0x12
   \   0000D1   12....       LCALL   ?XSTACK_DISP0_8
   \   0000D4   12....       LCALL   ??Subroutine47_0 & 0xFFFF
   \                     ??CrossCallReturnLabel_64:
   \   0000D7   12....       LCALL   ??osal_mem_free?relay; Banked call to: osal_mem_free
   1349                  if ( bindReq.numOutClusters )
   \                     ??ZDApp_ProcessMsgCBs_11:
   \   0000DA   7414         MOV     A,#0x14
   \   0000DC   12....       LCALL   ?XSTACK_DISP0_8
   \   0000DF   E0           MOVX    A,@DPTR
   \   0000E0   600B         JZ      ??ZDApp_ProcessMsgCBs_4
   1350                    osal_mem_free( bindReq.outClusters );
   \   0000E2                ; Setup parameters for call to function osal_mem_free
   \   0000E2   7415         MOV     A,#0x15
   \   0000E4   12....       LCALL   ?XSTACK_DISP0_8
   \   0000E7   12....       LCALL   ??Subroutine47_0 & 0xFFFF
   1351                }
   1352                break;
   1353          #endif
   1354            }
   \                     ??CrossCallReturnLabel_65:
   \   0000EA   12....       LCALL   ??osal_mem_free?relay; Banked call to: osal_mem_free
   1355          }
   \                     ??ZDApp_ProcessMsgCBs_4:
   \   0000ED   742C         MOV     A,#0x2c
   \   0000EF   02....       LJMP    ?Subroutine1 & 0xFFFF

   \                                 In  segment BANKED_CODE, align 1, keep-with-next
   \                     ?Subroutine36:
   \   000000   EE           MOV     A,R6
   \   000001   2413         ADD     A,#0x13
   \   000003   F582         MOV     DPL,A
   \   000005   E4           CLR     A
   \   000006   3F           ADDC    A,R7
   \   000007   F583         MOV     DPH,A
   \   000009   22           RET

   \                                 In  segment BANKED_CODE, align 1, keep-with-next
   \                     ?Subroutine32:
   \   000000   12....       LCALL   ?Subroutine43 & 0xFFFF
   \                     ??CrossCallReturnLabel_53:
   \   000003   22           RET

   \                                 In  segment BANKED_CODE, align 1, keep-with-next
   \                     ?Subroutine43:
   \   000000   12....       LCALL   ?Subroutine44 & 0xFFFF
   \                     ??CrossCallReturnLabel_55:
   \   000003   E0           MOVX    A,@DPTR
   \   000004   22           RET

   \                                 In  segment BANKED_CODE, align 1, keep-with-next
   \                     ?Subroutine44:
   \   000000   EE           MOV     A,R6
   \   000001   240C         ADD     A,#0xc
   \   000003   F582         MOV     DPL,A
   \   000005   E4           CLR     A
   \   000006   3F           ADDC    A,R7
   \   000007   F583         MOV     DPH,A
   \   000009   22           RET

   \                                 In  segment BANKED_CODE, align 1, keep-with-next
   \                     ?Subroutine31:
   \   000000   12....       LCALL   ?Subroutine43 & 0xFFFF
   \                     ??CrossCallReturnLabel_52:
   \   000003   F5..         MOV     ?V0,A
   \   000005   A3           INC     DPTR
   \   000006   E0           MOVX    A,@DPTR
   \   000007   22           RET

   \                                 In  segment BANKED_CODE, align 1, keep-with-next
   \                     ??Subroutine58_0:
   \   000000   F582         MOV     DPL,A
   \   000002   E4           CLR     A
   \   000003   3F           ADDC    A,R7
   \   000004   F583         MOV     DPH,A
   \   000006   E0           MOVX    A,@DPTR
   \   000007   22           RET
   1356          
   1357          /*********************************************************************
   1358           * @fn      ZDApp_RegisterCBs()
   1359           *
   1360           * @brief   Process response messages
   1361           *
   1362           * @param   none
   1363           *
   1364           * @return  none
   1365           */

   \                                 In  segment BANKED_CODE, align 1, keep-with-next
   1366          void ZDApp_RegisterCBs( void )
   \                     ZDApp_RegisterCBs:
   1367          {
   \   000000   C082         PUSH    DPL
   \   000002   C083         PUSH    DPH
   \   000004                ; Saved register size: 2
   \   000004                ; Auto size: 0
   1368          #if defined ( ZDO_IEEEADDR_REQUEST ) || defined ( REFLECTOR )
   1369            ZDO_RegisterForZDOMsg( ZDAppTaskID, IEEE_addr_rsp );
   \   000004                ; Setup parameters for call to function ZDO_RegisterForZDOMsg
   \   000004   7A01         MOV     R2,#0x1
   \   000006   7B80         MOV     R3,#-0x80
   \   000008   90....       MOV     DPTR,#ZDAppTaskID
   \   00000B   E0           MOVX    A,@DPTR
   \   00000C   F9           MOV     R1,A
   \   00000D   12....       LCALL   ??ZDO_RegisterForZDOMsg?relay; Banked call to: ZDO_RegisterForZDOMsg
   1370          #endif
   1371          #if defined ( ZDO_NWKADDR_REQUEST ) || defined ( REFLECTOR )
   1372            ZDO_RegisterForZDOMsg( ZDAppTaskID, NWK_addr_rsp );
   \   000010                ; Setup parameters for call to function ZDO_RegisterForZDOMsg
   \   000010   7A00         MOV     R2,#0x0
   \   000012   7B80         MOV     R3,#-0x80
   \   000014   90....       MOV     DPTR,#ZDAppTaskID
   \   000017   E0           MOVX    A,@DPTR
   \   000018   F9           MOV     R1,A
   \   000019   12....       LCALL   ??ZDO_RegisterForZDOMsg?relay; Banked call to: ZDO_RegisterForZDOMsg
   1373          #endif
   1374          #if ZG_BUILD_COORDINATOR_TYPE
   1375            ZDO_RegisterForZDOMsg( ZDAppTaskID, Bind_rsp );
   \   00001C                ; Setup parameters for call to function ZDO_RegisterForZDOMsg
   \   00001C   7A21         MOV     R2,#0x21
   \   00001E   7B80         MOV     R3,#-0x80
   \   000020   90....       MOV     DPTR,#ZDAppTaskID
   \   000023   E0           MOVX    A,@DPTR
   \   000024   F9           MOV     R1,A
   \   000025   12....       LCALL   ??ZDO_RegisterForZDOMsg?relay; Banked call to: ZDO_RegisterForZDOMsg
   1376            ZDO_RegisterForZDOMsg( ZDAppTaskID, Unbind_rsp );
   \   000028                ; Setup parameters for call to function ZDO_RegisterForZDOMsg
   \   000028   7A22         MOV     R2,#0x22
   \   00002A   7B80         MOV     R3,#-0x80
   \   00002C   90....       MOV     DPTR,#ZDAppTaskID
   \   00002F   E0           MOVX    A,@DPTR
   \   000030   F9           MOV     R1,A
   \   000031   12....       LCALL   ??ZDO_RegisterForZDOMsg?relay; Banked call to: ZDO_RegisterForZDOMsg
   1377            ZDO_RegisterForZDOMsg( ZDAppTaskID, End_Device_Bind_req );
   \   000034                ; Setup parameters for call to function ZDO_RegisterForZDOMsg
   \   000034   7A20         MOV     R2,#0x20
   \   000036   7B00         MOV     R3,#0x0
   \   000038   90....       MOV     DPTR,#ZDAppTaskID
   \   00003B   E0           MOVX    A,@DPTR
   \   00003C   F9           MOV     R1,A
   \   00003D   12....       LCALL   ??ZDO_RegisterForZDOMsg?relay; Banked call to: ZDO_RegisterForZDOMsg
   1378          #endif
   1379          #if defined ( REFLECTOR )
   1380            ZDO_RegisterForZDOMsg( ZDAppTaskID, Bind_req );
   \   000040                ; Setup parameters for call to function ZDO_RegisterForZDOMsg
   \   000040   7A21         MOV     R2,#0x21
   \   000042   7B00         MOV     R3,#0x0
   \   000044   90....       MOV     DPTR,#ZDAppTaskID
   \   000047   E0           MOVX    A,@DPTR
   \   000048   F9           MOV     R1,A
   \   000049   12....       LCALL   ??ZDO_RegisterForZDOMsg?relay; Banked call to: ZDO_RegisterForZDOMsg
   1381            ZDO_RegisterForZDOMsg( ZDAppTaskID, Unbind_req );
   \   00004C                ; Setup parameters for call to function ZDO_RegisterForZDOMsg
   \   00004C   7A22         MOV     R2,#0x22
   \   00004E   7B00         MOV     R3,#0x0
   \   000050   90....       MOV     DPTR,#ZDAppTaskID
   \   000053   E0           MOVX    A,@DPTR
   \   000054   F9           MOV     R1,A
   \   000055   12....       LCALL   ??ZDO_RegisterForZDOMsg?relay; Banked call to: ZDO_RegisterForZDOMsg
   1382          #endif
   1383          }
   \   000058   02....       LJMP    ??Subroutine50_0 & 0xFFFF
   1384          
   1385          /*********************************************************************
   1386           * @fn      ZDApp_ProcessSecMsg()
   1387           *
   1388           * @brief   Process the incoming security message.
   1389           *
   1390           * @param   msgPtr - message to process
   1391           *
   1392           * @return  none
   1393           */

   \                                 In  segment BANKED_CODE, align 1, keep-with-next
   1394          void ZDApp_ProcessSecMsg( osal_event_hdr_t *msgPtr )
   \                     ZDApp_ProcessSecMsg:
   1395          {
   \   000000   C082         PUSH    DPL
   \   000002   C083         PUSH    DPH
   \   000004                ; Saved register size: 2
   \   000004                ; Auto size: 0
   1396            switch ( msgPtr->event )
   \   000004   8A82         MOV     DPL,R2
   \   000006   8B83         MOV     DPH,R3
   \   000008   E0           MOVX    A,@DPTR
   \   000009   6405         XRL     A,#0x5
   \   00000B   7003         JNZ     ??ZDApp_ProcessSecMsg_0
   1397            {
   1398              case ZDO_TRANSPORT_KEY_IND:
   1399                if ( ZG_BUILD_JOINING_TYPE && ZG_DEVICE_JOINING_TYPE )
   1400                {
   1401                  ZDSecMgrTransportKeyInd( (ZDO_TransportKeyInd_t*)msgPtr );
   1402                }
   1403                break;
   1404          
   1405              case ZDO_UPDATE_DEVICE_IND:
   1406                if ( ZG_BUILD_COORDINATOR_TYPE && ZG_DEVICE_COORDINATOR_TYPE )
   1407                {
   1408                  ZDSecMgrUpdateDeviceInd( (ZDO_UpdateDeviceInd_t*)msgPtr );
   \   00000D                ; Setup parameters for call to function ZDSecMgrUpdateDeviceInd
   \   00000D   12....       LCALL   ??ZDSecMgrUpdateDeviceInd?relay; Banked call to: ZDSecMgrUpdateDeviceInd
   1409                }
   1410                break;
   1411          
   1412              case ZDO_REMOVE_DEVICE_IND:
   1413                if ( ZG_BUILD_RTRONLY_TYPE && ( zgDeviceLogicalType == ZG_DEVICETYPE_ROUTER ) )
   1414                {
   1415                  ZDSecMgrRemoveDeviceInd( (ZDO_RemoveDeviceInd_t*)msgPtr );
   1416                }
   1417                break;
   1418          
   1419              case ZDO_REQUEST_KEY_IND:
   1420                if ( ( ZG_CHECK_SECURITY_MODE == ZG_SECURITY_SE_STANDARD ) )
   1421                {
   1422                  if ( ZG_BUILD_COORDINATOR_TYPE && ZG_DEVICE_COORDINATOR_TYPE )
   1423                  {
   1424                    ZDSecMgrRequestKeyInd( (ZDO_RequestKeyInd_t*)msgPtr );
   1425                  }
   1426                }
   1427                break;
   1428          
   1429              case ZDO_SWITCH_KEY_IND:
   1430                if ( ZG_BUILD_JOINING_TYPE && ZG_DEVICE_JOINING_TYPE )
   1431                {
   1432                  ZDSecMgrSwitchKeyInd( (ZDO_SwitchKeyInd_t*)msgPtr );
   1433                }
   1434                break;
   1435          
   1436              default:
   1437                // Unsupported messages
   1438                break;
   1439            }
   1440          }
   \                     ??ZDApp_ProcessSecMsg_0:
   \   000010   02....       LJMP    ??Subroutine50_0 & 0xFFFF
   1441          
   1442          /*********************************************************************
   1443           * @fn      ZDApp_ProcessNetworkJoin()
   1444           *
   1445           * @brief
   1446           *
   1447           *   Save off the Network key information.
   1448           *
   1449           * @param   none
   1450           *
   1451           * @return  none
   1452           */

   \                                 In  segment BANKED_CODE, align 1, keep-with-next
   1453          void ZDApp_ProcessNetworkJoin( void )
   \                     ZDApp_ProcessNetworkJoin:
   1454          {
   \   000000                REQUIRE ?V0
   \   000000                REQUIRE ?V1
   \   000000   74F6         MOV     A,#-0xa
   \   000002   12....       LCALL   ?BANKED_ENTER_XDATA
   \   000005                ; Saved register size: 10
   \   000005                ; Auto size: 2
   \   000005   74FE         MOV     A,#-0x2
   \   000007   12....       LCALL   ?ALLOC_XSTACK8
   1455            if ( (devState == DEV_NWK_JOINING) ||
   1456                ((devState == DEV_NWK_ORPHAN)  &&
   1457                 (ZDO_Config_Node_Descriptor.LogicalType == NODETYPE_ROUTER)) )
   \   00000A   90....       MOV     DPTR,#devState
   \   00000D   E0           MOVX    A,@DPTR
   \   00000E   6403         XRL     A,#0x3
   \   000010   6015         JZ      ??ZDApp_ProcessNetworkJoin_0
   \   000012   E0           MOVX    A,@DPTR
   \   000013   640A         XRL     A,#0xa
   \   000015   6003         JZ      $+5
   \   000017   02....       LJMP    ??ZDApp_ProcessNetworkJoin_1 & 0xFFFF
   \   00001A   90....       MOV     DPTR,#ZDO_Config_Node_Descriptor
   \   00001D   E0           MOVX    A,@DPTR
   \   00001E   5407         ANL     A,#0x7
   \   000020   6401         XRL     A,#0x1
   \   000022   6003         JZ      $+5
   \   000024   02....       LJMP    ??ZDApp_ProcessNetworkJoin_2 & 0xFFFF
   1458            {
   1459              // Result of a Join attempt by this device.
   1460              if ( nwkStatus == ZSuccess )
   \                     ??ZDApp_ProcessNetworkJoin_0:
   \   000027   90....       MOV     DPTR,#nwkStatus
   \   00002A   E0           MOVX    A,@DPTR
   \   00002B   7043         JNZ     ??ZDApp_ProcessNetworkJoin_3
   1461              {
   1462                osal_set_event( ZDAppTaskID, ZDO_STATE_CHANGE_EVT );
   \   00002D                ; Setup parameters for call to function osal_set_event
   \   00002D   7A10         MOV     R2,#0x10
   \   00002F   7B00         MOV     R3,#0x0
   \   000031   90....       MOV     DPTR,#ZDAppTaskID
   \   000034   E0           MOVX    A,@DPTR
   \   000035   F9           MOV     R1,A
   \   000036   12....       LCALL   ??osal_set_event?relay; Banked call to: osal_set_event
   1463          
   1464          #if defined ( POWER_SAVING )
   1465                osal_pwrmgr_device( PWRMGR_BATTERY );
   1466          #endif
   1467          
   1468                if ( ZG_SECURE_ENABLED && ( ZDApp_RestoreNwkKey() == false ) )
   1469                {
   1470                  // wait for auth from trust center
   1471                  devState = DEV_END_DEVICE_UNAUTH;
   1472          
   1473                  // Start the reset timer for MAX UNAUTH time
   1474                  ZDApp_ResetTimerStart( MAX_DEVICE_UNAUTH_TIMEOUT );
   1475                }
   1476                else
   1477                {
   1478                  if ( ZSTACK_ROUTER_BUILD )
   1479                  {
   1480                    if ( devState == DEV_NWK_ORPHAN
   1481                      && ZDO_Config_Node_Descriptor.LogicalType != NODETYPE_DEVICE )
   \   000039   90....       MOV     DPTR,#devState
   \   00003C   E0           MOVX    A,@DPTR
   \   00003D   640A         XRL     A,#0xa
   \   00003F   700D         JNZ     ??ZDApp_ProcessNetworkJoin_4
   \   000041   12....       LCALL   ?Subroutine24 & 0xFFFF
   \                     ??CrossCallReturnLabel_15:
   \   000044   6010         JZ      ??ZDApp_ProcessNetworkJoin_5
   1482                    {
   1483                      // Change NIB state to router for restore
   1484                      _NIB.nwkState = NWK_ROUTER;
   \   000046   90....       MOV     DPTR,#_NIB + 35
   \   000049   7408         MOV     A,#0x8
   \   00004B   F0           MOVX    @DPTR,A
   \   00004C   8008         SJMP    ??ZDApp_ProcessNetworkJoin_5
   1485                    }
   1486                  }
   1487          
   1488                  if ( devState == DEV_NWK_JOINING )
   \                     ??ZDApp_ProcessNetworkJoin_4:
   \   00004E   E0           MOVX    A,@DPTR
   \   00004F   6403         XRL     A,#0x3
   \   000051   7003         JNZ     ??ZDApp_ProcessNetworkJoin_5
   1489                  {
   1490                    ZDApp_AnnounceNewAddress();
   \   000053                ; Setup parameters for call to function ZDApp_AnnounceNewAddress
   \   000053   12....       LCALL   ??ZDApp_AnnounceNewAddress?relay; Banked call to: ZDApp_AnnounceNewAddress
   1491                  }
   1492          
   1493                  devState = DEV_END_DEVICE;
   \                     ??ZDApp_ProcessNetworkJoin_5:
   \   000056   90....       MOV     DPTR,#devState
   \   000059   7406         MOV     A,#0x6
   \   00005B   F0           MOVX    @DPTR,A
   1494                  if ( ZSTACK_ROUTER_BUILD )
   1495                  {
   1496                    // NOTE: first two parameters are not used, see NLMEDE.h for details
   1497                    if ( ZDO_Config_Node_Descriptor.LogicalType != NODETYPE_DEVICE )
   \   00005C   12....       LCALL   ?Subroutine24 & 0xFFFF
   \                     ??CrossCallReturnLabel_16:
   \   00005F   7003         JNZ     $+5
   \   000061   02....       LJMP    ??ZDApp_ProcessNetworkJoin_6 & 0xFFFF
   1498                    {
   1499                      NLME_StartRouterRequest( 0, 0, false );
   \   000064                ; Setup parameters for call to function NLME_StartRouterRequest
   \   000064   7B00         MOV     R3,#0x0
   \   000066   7A00         MOV     R2,#0x0
   \   000068   7900         MOV     R1,#0x0
   \   00006A   12....       LCALL   ??NLME_StartRouterRequest?relay; Banked call to: NLME_StartRouterRequest
   \   00006D   02....       LJMP    ??ZDApp_ProcessNetworkJoin_6 & 0xFFFF
   1500                    }
   1501                  }
   1502                }
   1503              }
   1504              else
   1505              {
   1506                if ( (devStartMode == MODE_RESUME) && (++retryCnt >= MAX_RESUME_RETRY) )
   \                     ??ZDApp_ProcessNetworkJoin_3:
   \   000070   90....       MOV     DPTR,#devStartMode
   \   000073   E0           MOVX    A,@DPTR
   \   000074   6401         XRL     A,#0x1
   \   000076   7036         JNZ     ??ZDApp_ProcessNetworkJoin_7
   \   000078   90....       MOV     DPTR,#retryCnt
   \   00007B   E0           MOVX    A,@DPTR
   \   00007C   04           INC     A
   \   00007D   F0           MOVX    @DPTR,A
   \   00007E   C3           CLR     C
   \   00007F   9403         SUBB    A,#0x3
   \   000081   402B         JC      ??ZDApp_ProcessNetworkJoin_7
   1507                {
   1508                  if ( _NIB.nwkPanId == 0xFFFF || _NIB.nwkPanId == INVALID_PAN_ID )
   \   000083   90....       MOV     DPTR,#_NIB + 33
   \   000086   E0           MOVX    A,@DPTR
   \   000087   F4           CPL     A
   \   000088   7003         JNZ     ??ZDApp_ProcessNetworkJoin_8
   \   00008A   A3           INC     DPTR
   \   00008B   E0           MOVX    A,@DPTR
   \   00008C   F4           CPL     A
   \                     ??ZDApp_ProcessNetworkJoin_8:
   \   00008D   600D         JZ      ??ZDApp_ProcessNetworkJoin_9
   \   00008F   90....       MOV     DPTR,#_NIB + 33
   \   000092   E0           MOVX    A,@DPTR
   \   000093   64FE         XRL     A,#0xfe
   \   000095   7003         JNZ     ??ZDApp_ProcessNetworkJoin_10
   \   000097   A3           INC     DPTR
   \   000098   E0           MOVX    A,@DPTR
   \   000099   F4           CPL     A
   \                     ??ZDApp_ProcessNetworkJoin_10:
   \   00009A   7006         JNZ     ??ZDApp_ProcessNetworkJoin_11
   1509                    devStartMode = MODE_JOIN;
   \                     ??ZDApp_ProcessNetworkJoin_9:
   \   00009C   90....       MOV     DPTR,#devStartMode
   \   00009F   E4           CLR     A
   \   0000A0   800B         SJMP    ??ZDApp_ProcessNetworkJoin_12
   1510                  else
   1511                  {
   1512                    devStartMode = MODE_REJOIN;
   \                     ??ZDApp_ProcessNetworkJoin_11:
   \   0000A2   90....       MOV     DPTR,#devStartMode
   \   0000A5   7403         MOV     A,#0x3
   \   0000A7   F0           MOVX    @DPTR,A
   1513                    _tmpRejoinState = true;
   \   0000A8   90....       MOV     DPTR,#_tmpRejoinState
   \   0000AB   7401         MOV     A,#0x1
   \                     ??ZDApp_ProcessNetworkJoin_12:
   \   0000AD   F0           MOVX    @DPTR,A
   1514                  }
   1515                }
   1516          
   1517                if ( (NLME_GetShortAddr() != INVALID_NODE_ADDR) ||
   1518                     (_NIB.nwkDevAddress != INVALID_NODE_ADDR) )
   \                     ??ZDApp_ProcessNetworkJoin_7:
   \   0000AE                ; Setup parameters for call to function NLME_GetShortAddr
   \   0000AE   12....       LCALL   ??NLME_GetShortAddr?relay; Banked call to: NLME_GetShortAddr
   \   0000B1   8A..         MOV     ?V0,R2
   \   0000B3   8B..         MOV     ?V1,R3
   \   0000B5   74FE         MOV     A,#-0x2
   \   0000B7   65..         XRL     A,?V0
   \   0000B9   7004         JNZ     ??ZDApp_ProcessNetworkJoin_13
   \   0000BB   74FF         MOV     A,#-0x1
   \   0000BD   65..         XRL     A,?V1
   \                     ??ZDApp_ProcessNetworkJoin_13:
   \   0000BF   700D         JNZ     ??ZDApp_ProcessNetworkJoin_14
   \   0000C1   90....       MOV     DPTR,#_NIB + 20
   \   0000C4   E0           MOVX    A,@DPTR
   \   0000C5   64FE         XRL     A,#0xfe
   \   0000C7   7003         JNZ     ??ZDApp_ProcessNetworkJoin_15
   \   0000C9   A3           INC     DPTR
   \   0000CA   E0           MOVX    A,@DPTR
   \   0000CB   F4           CPL     A
   \                     ??ZDApp_ProcessNetworkJoin_15:
   \   0000CC   601B         JZ      ??ZDApp_ProcessNetworkJoin_16
   1519                {
   1520                  uint16 addr = INVALID_NODE_ADDR;
   \                     ??ZDApp_ProcessNetworkJoin_14:
   \   0000CE   85..82       MOV     DPL,?XSP + 0
   \   0000D1   85..83       MOV     DPH,?XSP + 1
   \   0000D4   74FE         MOV     A,#-0x2
   \   0000D6   F0           MOVX    @DPTR,A
   \   0000D7   A3           INC     DPTR
   \   0000D8   04           INC     A
   \   0000D9   F0           MOVX    @DPTR,A
   1521                  // Invalidate nwk addr so end device does not use in its data reqs.
   1522                  _NIB.nwkDevAddress = INVALID_NODE_ADDR;
   \   0000DA   90....       MOV     DPTR,#_NIB + 20
   \   0000DD   14           DEC     A
   \   0000DE   F0           MOVX    @DPTR,A
   \   0000DF   A3           INC     DPTR
   \   0000E0   04           INC     A
   \   0000E1   12....       LCALL   ?Subroutine13 & 0xFFFF
   1523                  ZMacSetReq( ZMacShortAddress, (uint8 *)&addr );
   1524                }
   \                     ??CrossCallReturnLabel_2:
   \   0000E4   7953         MOV     R1,#0x53
   \   0000E6   12....       LCALL   ??ZMacSetReq?relay   ; Banked call to: ZMacSetReq
   1525          
   1526                // Clear the neighbor Table and network discovery tables.
   1527                nwkNeighborInitTable();
   \                     ??ZDApp_ProcessNetworkJoin_16:
   \   0000E9                ; Setup parameters for call to function nwkNeighborInitTable
   \   0000E9   12....       LCALL   ??nwkNeighborInitTable?relay; Banked call to: nwkNeighborInitTable
   1528                NLME_NwkDiscTerm();
   \   0000EC                ; Setup parameters for call to function NLME_NwkDiscTerm
   \   0000EC   12....       LCALL   ??NLME_NwkDiscTerm?relay; Banked call to: NLME_NwkDiscTerm
   1529          
   1530                zdoDiscCounter = 1;
   \   0000EF   90....       MOV     DPTR,#zdoDiscCounter
   \   0000F2   7401         MOV     A,#0x1
   \   0000F4   F0           MOVX    @DPTR,A
   1531          
   1532          //      ZDApp_NetworkInit( (uint16)
   1533          //                         ((NWK_START_DELAY * (osal_rand() & 0x0F)) +
   1534          //                          (NWK_START_DELAY * 5)) );
   1535                ZDApp_NetworkInit( (uint16)(NWK_START_DELAY
   1536                     + ((uint16)(osal_rand()& EXTENDED_JOINING_RANDOM_MASK))) );
   \   0000F5                ; Setup parameters for call to function osal_rand
   \   0000F5   02....       LJMP    ??ZDApp_ProcessNetworkJoin_17 & 0xFFFF
   1537              }
   1538            }
   1539            else if ( devState == DEV_NWK_ORPHAN || devState == DEV_NWK_REJOIN )
   \                     ??ZDApp_ProcessNetworkJoin_1:
   \   0000F8   E0           MOVX    A,@DPTR
   \   0000F9   6404         XRL     A,#0x4
   \   0000FB   6003         JZ      $+5
   \   0000FD   02....       LJMP    ??ZDApp_ProcessNetworkJoin_18 & 0xFFFF
   1540            {
   1541              // results of an orphaning attempt by this device
   1542              if (nwkStatus == ZSuccess)
   \                     ??ZDApp_ProcessNetworkJoin_2:
   \   000100   90....       MOV     DPTR,#nwkStatus
   \   000103   E0           MOVX    A,@DPTR
   \   000104   703C         JNZ     ??ZDApp_ProcessNetworkJoin_19
   1543              {
   1544                // Verify NWK key is available before sending Device_annce
   1545                if ( ZG_SECURE_ENABLED && ( ZDApp_RestoreNwkKey() == false ) )
   1546                {
   1547                  osal_set_event( ZDAppTaskID, ZDO_STATE_CHANGE_EVT );
   1548          
   1549                  // wait for auth from trust center
   1550                  devState = DEV_END_DEVICE_UNAUTH;
   1551          
   1552                  // Start the reset timer for MAX UNAUTH time
   1553                  ZDApp_ResetTimerStart( MAX_DEVICE_UNAUTH_TIMEOUT );
   1554                }
   1555                else
   1556                {
   1557          
   1558                  devState = DEV_END_DEVICE;
   \   000106   12....       LCALL   ?Subroutine11 & 0xFFFF
   1559                  osal_set_event( ZDAppTaskID, ZDO_STATE_CHANGE_EVT );
   \                     ??CrossCallReturnLabel_69:
   \   000109   12....       LCALL   ??osal_set_event?relay; Banked call to: osal_set_event
   1560                  // setup Power Manager Device
   1561          #if defined ( POWER_SAVING )
   1562                  osal_pwrmgr_device( PWRMGR_BATTERY );
   1563          #endif
   1564          
   1565                  // The receiver is on, turn network layer polling off.
   1566                  if ( ZDO_Config_Node_Descriptor.CapabilityFlags & CAPINFO_RCVR_ON_IDLE )
   \   00010C   90....       MOV     DPTR,#ZDO_Config_Node_Descriptor + 2
   \   00010F   E0           MOVX    A,@DPTR
   \   000110   A2E3         MOV     C,0xE0 /* A   */.3
   \   000112   501B         JNC     ??ZDApp_ProcessNetworkJoin_20
   1567                  {
   1568          #if defined ( ZIGBEE_CHILD_AGING )
   1569                    // if Child Table Management process is not enabled
   1570                    if ( zgChildAgingEnable == FALSE )
   \   000114   90....       MOV     DPTR,#zgChildAgingEnable
   \   000117   E0           MOVX    A,@DPTR
   \   000118   7015         JNZ     ??ZDApp_ProcessNetworkJoin_20
   1571          #endif // ZIGBEE_CHILD_AGING
   1572                    {
   1573                      NLME_SetPollRate( 0 );
   \   00011A                ; Setup parameters for call to function NLME_SetPollRate
   \   00011A   7A00         MOV     R2,#0x0
   \   00011C   7B00         MOV     R3,#0x0
   \   00011E   12....       LCALL   ??NLME_SetPollRate?relay; Banked call to: NLME_SetPollRate
   1574                      NLME_SetQueuedPollRate( 0 );
   \   000121                ; Setup parameters for call to function NLME_SetQueuedPollRate
   \   000121   7A00         MOV     R2,#0x0
   \   000123   7B00         MOV     R3,#0x0
   \   000125   12....       LCALL   ??NLME_SetQueuedPollRate?relay; Banked call to: NLME_SetQueuedPollRate
   1575                      NLME_SetResponseRate( 0 );
   \   000128                ; Setup parameters for call to function NLME_SetResponseRate
   \   000128   7A00         MOV     R2,#0x0
   \   00012A   7B00         MOV     R3,#0x0
   \   00012C   12....       LCALL   ??NLME_SetResponseRate?relay; Banked call to: NLME_SetResponseRate
   1576                    }
   1577                  }
   1578          
   1579                  if ( ZSTACK_ROUTER_BUILD )
   1580                  {
   1581                    // NOTE: first two parameters are not used, see NLMEDE.h for details
   1582                    if ( ZDO_Config_Node_Descriptor.LogicalType != NODETYPE_DEVICE )
   \                     ??ZDApp_ProcessNetworkJoin_20:
   \   00012F   12....       LCALL   ?Subroutine24 & 0xFFFF
   \                     ??CrossCallReturnLabel_17:
   \   000132   6009         JZ      ??ZDApp_ProcessNetworkJoin_21
   1583                    {
   1584                      NLME_StartRouterRequest( 0, 0, false );
   \   000134                ; Setup parameters for call to function NLME_StartRouterRequest
   \   000134   7B00         MOV     R3,#0x0
   \   000136   7A00         MOV     R2,#0x0
   \   000138   7900         MOV     R1,#0x0
   \   00013A   12....       LCALL   ??NLME_StartRouterRequest?relay; Banked call to: NLME_StartRouterRequest
   1585                    }
   1586                  }
   1587          
   1588                  ZDApp_AnnounceNewAddress();
   \                     ??ZDApp_ProcessNetworkJoin_21:
   \   00013D                ; Setup parameters for call to function ZDApp_AnnounceNewAddress
   \   00013D   12....       LCALL   ??ZDApp_AnnounceNewAddress?relay; Banked call to: ZDApp_AnnounceNewAddress
   \   000140   8073         SJMP    ??ZDApp_ProcessNetworkJoin_6
   1589                }
   1590              }
   1591              else
   1592              {
   1593                if ( devStartMode == MODE_RESUME )
   \                     ??ZDApp_ProcessNetworkJoin_19:
   \   000142   90....       MOV     DPTR,#devStartMode
   \   000145   E0           MOVX    A,@DPTR
   \   000146   6401         XRL     A,#0x1
   \   000148   703E         JNZ     ??ZDApp_ProcessNetworkJoin_22
   1594                {
   1595                  if ( ++retryCnt <= MAX_RESUME_RETRY )
   \   00014A   90....       MOV     DPTR,#retryCnt
   \   00014D   E0           MOVX    A,@DPTR
   \   00014E   04           INC     A
   \   00014F   F0           MOVX    @DPTR,A
   \   000150   C3           CLR     C
   \   000151   9404         SUBB    A,#0x4
   \   000153   5026         JNC     ??ZDApp_ProcessNetworkJoin_23
   1596                  {
   1597                    if ( _NIB.nwkPanId == 0xFFFF || _NIB.nwkPanId == INVALID_PAN_ID )
   \   000155   90....       MOV     DPTR,#_NIB + 33
   \   000158   E0           MOVX    A,@DPTR
   \   000159   F4           CPL     A
   \   00015A   7003         JNZ     ??ZDApp_ProcessNetworkJoin_24
   \   00015C   A3           INC     DPTR
   \   00015D   E0           MOVX    A,@DPTR
   \   00015E   F4           CPL     A
   \                     ??ZDApp_ProcessNetworkJoin_24:
   \   00015F   6022         JZ      ??ZDApp_ProcessNetworkJoin_25
   \   000161   90....       MOV     DPTR,#_NIB + 33
   \   000164   E0           MOVX    A,@DPTR
   \   000165   64FE         XRL     A,#0xfe
   \   000167   7003         JNZ     ??ZDApp_ProcessNetworkJoin_26
   \   000169   A3           INC     DPTR
   \   00016A   E0           MOVX    A,@DPTR
   \   00016B   F4           CPL     A
   \                     ??ZDApp_ProcessNetworkJoin_26:
   \   00016C   6015         JZ      ??ZDApp_ProcessNetworkJoin_25
   1598                      devStartMode = MODE_JOIN;
   1599                    else
   1600                    {
   1601                      devStartMode = MODE_REJOIN;
   \   00016E   90....       MOV     DPTR,#devStartMode
   \   000171   7403         MOV     A,#0x3
   \   000173   F0           MOVX    @DPTR,A
   1602                      _tmpRejoinState = true;
   \   000174   90....       MOV     DPTR,#_tmpRejoinState
   \   000177   7401         MOV     A,#0x1
   \   000179   800C         SJMP    ??ZDApp_ProcessNetworkJoin_27
   1603                    }
   1604                  }
   1605                  // Do a normal join to the network after certain times of rejoin retries
   1606                  else if( AIB_apsUseInsecureJoin == true )
   \                     ??ZDApp_ProcessNetworkJoin_23:
   \   00017B   90....       MOV     DPTR,#AIB_apsUseInsecureJoin
   \   00017E   E0           MOVX    A,@DPTR
   \   00017F   6401         XRL     A,#0x1
   \   000181   7005         JNZ     ??ZDApp_ProcessNetworkJoin_22
   1607                  {
   1608                    devStartMode = MODE_JOIN;
   \                     ??ZDApp_ProcessNetworkJoin_25:
   \   000183   90....       MOV     DPTR,#devStartMode
   \   000186   E4           CLR     A
   \                     ??ZDApp_ProcessNetworkJoin_27:
   \   000187   F0           MOVX    @DPTR,A
   1609                  }
   1610                }
   1611          
   1612                // Clear the neighbor Table and network discovery tables.
   1613                nwkNeighborInitTable();
   \                     ??ZDApp_ProcessNetworkJoin_22:
   \   000188                ; Setup parameters for call to function nwkNeighborInitTable
   \   000188   12....       LCALL   ??nwkNeighborInitTable?relay; Banked call to: nwkNeighborInitTable
   1614                NLME_NwkDiscTerm();
   \   00018B                ; Setup parameters for call to function NLME_NwkDiscTerm
   \   00018B   12....       LCALL   ??NLME_NwkDiscTerm?relay; Banked call to: NLME_NwkDiscTerm
   1615          
   1616                // setup a retry for later...
   1617                ZDApp_NetworkInit( (uint16)(NWK_START_DELAY
   1618                     + (osal_rand()& EXTENDED_JOINING_RANDOM_MASK)) );
   \   00018E                ; Setup parameters for call to function osal_rand
   \                     ??ZDApp_ProcessNetworkJoin_17:
   \   00018E   12....       LCALL   ??osal_rand?relay    ; Banked call to: osal_rand
   \   000191                ; Setup parameters for call to function ZDApp_NetworkInit
   \   000191   EA           MOV     A,R2
   \   000192   547F         ANL     A,#0x7f
   \   000194   2464         ADD     A,#0x64
   \   000196   FA           MOV     R2,A
   \   000197   7B00         MOV     R3,#0x0
   \   000199   12....       LCALL   ??ZDApp_NetworkInit?relay; Banked call to: ZDApp_NetworkInit
   \   00019C   8017         SJMP    ??ZDApp_ProcessNetworkJoin_6
   1619              }
   1620            }
   1621          #if defined ( ZIGBEE_STOCHASTIC_ADDRESSING )
   1622            else
   1623            {
   1624              // Assume from address conflict
   1625              if ( _NIB.nwkAddrAlloc == NWK_ADDRESSING_STOCHASTIC )
   \                     ??ZDApp_ProcessNetworkJoin_18:
   \   00019E   90....       MOV     DPTR,#_NIB + 96
   \   0001A1   E0           MOVX    A,@DPTR
   \   0001A2   6402         XRL     A,#0x2
   \   0001A4   700F         JNZ     ??ZDApp_ProcessNetworkJoin_6
   1626              {
   1627                // Notify the network
   1628                ZDApp_AnnounceNewAddress();
   \   0001A6                ; Setup parameters for call to function ZDApp_AnnounceNewAddress
   \   0001A6   12....       LCALL   ??ZDApp_AnnounceNewAddress?relay; Banked call to: ZDApp_AnnounceNewAddress
   1629          
   1630                // Notify apps
   1631                osal_set_event( ZDAppTaskID, ZDO_STATE_CHANGE_EVT );
   \   0001A9                ; Setup parameters for call to function osal_set_event
   \   0001A9   7A10         MOV     R2,#0x10
   \   0001AB   7B00         MOV     R3,#0x0
   \   0001AD   90....       MOV     DPTR,#ZDAppTaskID
   \   0001B0   E0           MOVX    A,@DPTR
   \   0001B1   F9           MOV     R1,A
   \   0001B2   12....       LCALL   ??osal_set_event?relay; Banked call to: osal_set_event
   1632              }
   1633            }
   1634          #endif
   1635          }
   \                     ??ZDApp_ProcessNetworkJoin_6:
   \   0001B5   02....       LJMP    ?Subroutine9 & 0xFFFF

   \                                 In  segment BANKED_CODE, align 1, keep-with-next
   \                     ?Subroutine13:
   \   000000   F0           MOVX    @DPTR,A
   \   000001                ; Setup parameters for call to function ZMacSetReq
   \   000001                ; Setup parameters for call to function APSME_UpdateDeviceReq
   \   000001                ; Setup parameters for indirect call
   \   000001                ; Setup parameters for call to function NLME_LeaveRsp
   \   000001   AA..         MOV     R2,?XSP + 0
   \   000003   AB..         MOV     R3,?XSP + 1
   \   000005   22           RET
   1636          
   1637          /*********************************************************************
   1638           * @fn      ZDApp_SaveNwkKey()
   1639           *
   1640           * @brief   Save off the Network key information.
   1641           *
   1642           * @param   none
   1643           *
   1644           * @return  none
   1645           */

   \                                 In  segment BANKED_CODE, align 1, keep-with-next
   1646          void ZDApp_SaveNwkKey( void )
   \                     ZDApp_SaveNwkKey:
   1647          {
   \   000000                REQUIRE ?V0
   \   000000                REQUIRE ?V1
   \   000000   74F6         MOV     A,#-0xa
   \   000002   12....       LCALL   ?BANKED_ENTER_XDATA
   \   000005                ; Saved register size: 10
   \   000005                ; Auto size: 21
   \   000005   74EB         MOV     A,#-0x15
   \   000007   12....       LCALL   ?ALLOC_XSTACK8
   1648            nwkActiveKeyItems keyItems;
   1649          
   1650            SSP_ReadNwkActiveKey( &keyItems );
   \   00000A                ; Setup parameters for call to function SSP_ReadNwkActiveKey
   \   00000A   AA..         MOV     R2,?XSP + 0
   \   00000C   AB..         MOV     R3,?XSP + 1
   \   00000E   12....       LCALL   ??SSP_ReadNwkActiveKey?relay; Banked call to: SSP_ReadNwkActiveKey
   1651          
   1652            osal_nv_write( ZCD_NV_NWKKEY, 0, sizeof( nwkActiveKeyItems ),
   1653                          (void *)&keyItems );
   \   000011                ; Setup parameters for call to function osal_nv_write
   \   000011   A8..         MOV     R0,?XSP + 0
   \   000013   A9..         MOV     R1,?XSP + 1
   \   000015   88..         MOV     ?V0,R0
   \   000017   89..         MOV     ?V1,R1
   \   000019   78..         MOV     R0,#?V0
   \   00001B   12....       LCALL   ?PUSH_XSTACK_I_TWO
   \   00001E   75..15       MOV     ?V0,#0x15
   \   000021   75..00       MOV     ?V1,#0x0
   \   000024   78..         MOV     R0,#?V0
   \   000026   12....       LCALL   ?PUSH_XSTACK_I_TWO
   \   000029   7C00         MOV     R4,#0x0
   \   00002B   7D00         MOV     R5,#0x0
   \   00002D   7A82         MOV     R2,#-0x7e
   \   00002F   7B00         MOV     R3,#0x0
   \   000031   12....       LCALL   ??osal_nv_write?relay; Banked call to: osal_nv_write
   \   000034   7404         MOV     A,#0x4
   \   000036   12....       LCALL   ?DEALLOC_XSTACK8
   1654          
   1655            nwkFrameCounterChanges = 0;
   \   000039   90....       MOV     DPTR,#nwkFrameCounterChanges
   \   00003C   E4           CLR     A
   \   00003D   F0           MOVX    @DPTR,A
   \   00003E   A3           INC     DPTR
   \   00003F   F0           MOVX    @DPTR,A
   1656          
   1657            // Clear copy in RAM before return.
   1658            osal_memset( &keyItems, 0x00, sizeof(keyItems) );
   \   000040                ; Setup parameters for call to function osal_memset
   \   000040   7C15         MOV     R4,#0x15
   \   000042   FD           MOV     R5,A
   \   000043   F9           MOV     R1,A
   \   000044   AA..         MOV     R2,?XSP + 0
   \   000046   AB..         MOV     R3,?XSP + 1
   \   000048   12....       LCALL   ??osal_memset?relay  ; Banked call to: osal_memset
   1659          
   1660          }
   \   00004B                REQUIRE ?Subroutine10
   \   00004B                ; // Fall through to label ?Subroutine10

   \                                 In  segment BANKED_CODE, align 1, keep-with-next
   \                     ?Subroutine10:
   \   000000   7415         MOV     A,#0x15
   \   000002   02....       LJMP    ??Subroutine51_0 & 0xFFFF
   1661          
   1662          /*********************************************************************
   1663           * @fn      ZDApp_ForceConcentratorChange()
   1664           *
   1665           * @brief   Force a network concentrator change by resetting 
   1666           *          zgConcentratorEnable and zgConcentratorDiscoveryTime 
   1667           *          from NV and set nwk event.
   1668           *
   1669           * @param   none
   1670           *
   1671           * @return  none
   1672           */

   \                                 In  segment BANKED_CODE, align 1, keep-with-next
   1673          void ZDApp_ForceConcentratorChange( void )
   \                     ZDApp_ForceConcentratorChange:
   1674          {
   \   000000                REQUIRE ?V0
   \   000000                REQUIRE ?V1
   \   000000   74F6         MOV     A,#-0xa
   \   000002   12....       LCALL   ?BANKED_ENTER_XDATA
   \   000005                ; Saved register size: 10
   \   000005                ; Auto size: 0
   1675            osal_nv_read( ZCD_NV_CONCENTRATOR_ENABLE, 0, sizeof(zgConcentratorEnable), &zgConcentratorEnable );
   \   000005                ; Setup parameters for call to function osal_nv_read
   \   000005   75....       MOV     ?V0,#zgConcentratorEnable & 0xff
   \   000008   75....       MOV     ?V1,#(zgConcentratorEnable >> 8) & 0xff
   \   00000B   78..         MOV     R0,#?V0
   \   00000D   12....       LCALL   ?PUSH_XSTACK_I_TWO
   \   000010   75..01       MOV     ?V0,#0x1
   \   000013   75..00       MOV     ?V1,#0x0
   \   000016   78..         MOV     R0,#?V0
   \   000018   12....       LCALL   ?PUSH_XSTACK_I_TWO
   \   00001B   7C00         MOV     R4,#0x0
   \   00001D   7D00         MOV     R5,#0x0
   \   00001F   7A32         MOV     R2,#0x32
   \   000021   7B00         MOV     R3,#0x0
   \   000023   12....       LCALL   ??osal_nv_read?relay ; Banked call to: osal_nv_read
   \   000026   7404         MOV     A,#0x4
   \   000028   12....       LCALL   ?DEALLOC_XSTACK8
   1676            osal_nv_read( ZCD_NV_CONCENTRATOR_DISCOVERY, 0, sizeof(zgConcentratorDiscoveryTime), &zgConcentratorDiscoveryTime );
   \   00002B                ; Setup parameters for call to function osal_nv_read
   \   00002B   75....       MOV     ?V0,#zgConcentratorDiscoveryTime & 0xff
   \   00002E   75....       MOV     ?V1,#(zgConcentratorDiscoveryTime >> 8) & 0xff
   \   000031   78..         MOV     R0,#?V0
   \   000033   12....       LCALL   ?PUSH_XSTACK_I_TWO
   \   000036   75..01       MOV     ?V0,#0x1
   \   000039   75..00       MOV     ?V1,#0x0
   \   00003C   78..         MOV     R0,#?V0
   \   00003E   12....       LCALL   ?PUSH_XSTACK_I_TWO
   \   000041   7C00         MOV     R4,#0x0
   \   000043   7D00         MOV     R5,#0x0
   \   000045   7A33         MOV     R2,#0x33
   \   000047   7B00         MOV     R3,#0x0
   \   000049   12....       LCALL   ??osal_nv_read?relay ; Banked call to: osal_nv_read
   \   00004C   7404         MOV     A,#0x4
   \   00004E   12....       LCALL   ?DEALLOC_XSTACK8
   1677           
   1678            if ( zgConcentratorEnable == TRUE )
   \   000051   90....       MOV     DPTR,#zgConcentratorEnable
   \   000054   E0           MOVX    A,@DPTR
   \   000055   6401         XRL     A,#0x1
   \   000057   7019         JNZ     ??ZDApp_ForceConcentratorChange_0
   1679            {
   1680              // Start next event
   1681              osal_start_timerEx( NWK_TaskID, NWK_MTO_RTG_REQ_EVT, 100 );
   \   000059                ; Setup parameters for call to function osal_start_timerEx
   \   000059   90....       MOV     DPTR,#__Constant_64
   \   00005C   12....       LCALL   ?PUSH_XSTACK8_X_FOUR
   \   00005F   7A00         MOV     R2,#0x0
   \   000061   7B08         MOV     R3,#0x8
   \   000063   90....       MOV     DPTR,#NWK_TaskID
   \   000066   E0           MOVX    A,@DPTR
   \   000067   F9           MOV     R1,A
   \   000068   12....       LCALL   ??osal_start_timerEx?relay; Banked call to: osal_start_timerEx
   \   00006B   7404         MOV     A,#0x4
   \   00006D   12....       LCALL   ?DEALLOC_XSTACK8
   \   000070   800C         SJMP    ??ZDApp_ForceConcentratorChange_1
   1682            }
   1683            else
   1684            {
   1685              // Stop the next event
   1686              osal_stop_timerEx( NWK_TaskID, NWK_MTO_RTG_REQ_EVT );
   \                     ??ZDApp_ForceConcentratorChange_0:
   \   000072                ; Setup parameters for call to function osal_stop_timerEx
   \   000072   7A00         MOV     R2,#0x0
   \   000074   7B08         MOV     R3,#0x8
   \   000076   90....       MOV     DPTR,#NWK_TaskID
   \   000079   E0           MOVX    A,@DPTR
   \   00007A   F9           MOV     R1,A
   \   00007B   12....       LCALL   ??osal_stop_timerEx?relay; Banked call to: osal_stop_timerEx
   1687            }
   1688          }
   \                     ??ZDApp_ForceConcentratorChange_1:
   \   00007E   02....       LJMP    ??Subroutine52_0 & 0xFFFF
   1689          
   1690          /*********************************************************************
   1691           * @fn      ZDApp_ResetNwkKey()
   1692           *
   1693           * @brief   Reset the Network key information in NV.
   1694           *
   1695           * @param   none
   1696           *
   1697           * @return  none
   1698           */

   \                                 In  segment BANKED_CODE, align 1, keep-with-next
   1699          void ZDApp_ResetNwkKey( void )
   \                     ZDApp_ResetNwkKey:
   1700          {
   \   000000                REQUIRE ?V0
   \   000000                REQUIRE ?V1
   \   000000   74F6         MOV     A,#-0xa
   \   000002   12....       LCALL   ?BANKED_ENTER_XDATA
   \   000005                ; Saved register size: 10
   \   000005                ; Auto size: 21
   \   000005   74EB         MOV     A,#-0x15
   \   000007   12....       LCALL   ?ALLOC_XSTACK8
   1701            nwkActiveKeyItems keyItems;
   1702          
   1703            osal_memset( &keyItems, 0, sizeof( nwkActiveKeyItems ) );
   \   00000A                ; Setup parameters for call to function osal_memset
   \   00000A   7C15         MOV     R4,#0x15
   \   00000C   7D00         MOV     R5,#0x0
   \   00000E   7900         MOV     R1,#0x0
   \   000010   AA..         MOV     R2,?XSP + 0
   \   000012   AB..         MOV     R3,?XSP + 1
   \   000014   12....       LCALL   ??osal_memset?relay  ; Banked call to: osal_memset
   1704            osal_nv_write( ZCD_NV_NWKKEY, 0, sizeof( nwkActiveKeyItems ),
   1705                          (void *)&keyItems );
   \   000017                ; Setup parameters for call to function osal_nv_write
   \   000017   A8..         MOV     R0,?XSP + 0
   \   000019   A9..         MOV     R1,?XSP + 1
   \   00001B   88..         MOV     ?V0,R0
   \   00001D   89..         MOV     ?V1,R1
   \   00001F   78..         MOV     R0,#?V0
   \   000021   12....       LCALL   ?PUSH_XSTACK_I_TWO
   \   000024   75..15       MOV     ?V0,#0x15
   \   000027   75..00       MOV     ?V1,#0x0
   \   00002A   78..         MOV     R0,#?V0
   \   00002C   12....       LCALL   ?PUSH_XSTACK_I_TWO
   \   00002F   7C00         MOV     R4,#0x0
   \   000031   7D00         MOV     R5,#0x0
   \   000033   7A82         MOV     R2,#-0x7e
   \   000035   7B00         MOV     R3,#0x0
   \   000037   12....       LCALL   ??osal_nv_write?relay; Banked call to: osal_nv_write
   \   00003A   7404         MOV     A,#0x4
   \   00003C   12....       LCALL   ?DEALLOC_XSTACK8
   1706          }
   \   00003F   02....       LJMP    ?Subroutine10 & 0xFFFF
   1707          
   1708          /*********************************************************************
   1709           * @fn      ZDApp_RestoreNwkKey()
   1710           *
   1711           * @brief
   1712           *
   1713           *   Save off the Network key information.
   1714           *
   1715           * @param   none
   1716           *
   1717           * @return  true if restored from NV, false if not
   1718           */

   \                                 In  segment BANKED_CODE, align 1, keep-with-next
   1719          uint8 ZDApp_RestoreNwkKey( void )
   \                     ZDApp_RestoreNwkKey:
   1720          {
   \   000000                REQUIRE ?V0
   \   000000                REQUIRE ?V1
   \   000000                REQUIRE ?V2
   \   000000                REQUIRE ?V3
   \   000000   74F4         MOV     A,#-0xc
   \   000002   12....       LCALL   ?BANKED_ENTER_XDATA
   \   000005                ; Saved register size: 12
   \   000005                ; Auto size: 37
   \   000005   74DB         MOV     A,#-0x25
   \   000007   12....       LCALL   ?ALLOC_XSTACK8
   1721            nwkActiveKeyItems keyItems;
   1722            uint8 ret = FALSE;
   \   00000A   7E00         MOV     R6,#0x0
   1723          
   1724            // Restore the key information
   1725            if ( osal_nv_read( ZCD_NV_NWKKEY, 0, sizeof(nwkActiveKeyItems), (void*)&keyItems )
   1726                == ZSUCCESS )
   \   00000C                ; Setup parameters for call to function osal_nv_read
   \   00000C   A8..         MOV     R0,?XSP + 0
   \   00000E   A9..         MOV     R1,?XSP + 1
   \   000010   88..         MOV     ?V0,R0
   \   000012   89..         MOV     ?V1,R1
   \   000014   78..         MOV     R0,#?V0
   \   000016   12....       LCALL   ?PUSH_XSTACK_I_TWO
   \   000019   75..15       MOV     ?V0,#0x15
   \   00001C   8E..         MOV     ?V1,R6
   \   00001E   78..         MOV     R0,#?V0
   \   000020   12....       LCALL   ?PUSH_XSTACK_I_TWO
   \   000023   7C00         MOV     R4,#0x0
   \   000025   7D00         MOV     R5,#0x0
   \   000027   7A82         MOV     R2,#-0x7e
   \   000029   7B00         MOV     R3,#0x0
   \   00002B   12....       LCALL   ??osal_nv_read?relay ; Banked call to: osal_nv_read
   \   00002E   7404         MOV     A,#0x4
   \   000030   12....       LCALL   ?DEALLOC_XSTACK8
   \   000033   E9           MOV     A,R1
   \   000034   6003         JZ      $+5
   \   000036   02....       LJMP    ??ZDApp_RestoreNwkKey_0 & 0xFFFF
   1727            {
   1728              uint8 nullKey[SEC_KEY_LEN];
   1729          
   1730              // initialize default value to compare to
   1731              osal_memset( nullKey, 0x00, SEC_KEY_LEN );
   \   000039                ; Setup parameters for call to function osal_memset
   \   000039   7C10         MOV     R4,#0x10
   \   00003B   7D00         MOV     R5,#0x0
   \   00003D   7900         MOV     R1,#0x0
   \   00003F   7415         MOV     A,#0x15
   \   000041   12....       LCALL   ?XSTACK_DISP101_8
   \   000044   12....       LCALL   ??osal_memset?relay  ; Banked call to: osal_memset
   1732          
   1733              // if stored key is different than default value, then a key has been established
   1734              if ( !osal_memcmp( keyItems.active.key, nullKey, SEC_KEY_LEN ) )
   \   000047                ; Setup parameters for call to function osal_memcmp
   \   000047   7415         MOV     A,#0x15
   \   000049   12....       LCALL   ?XSTACK_DISP100_8
   \   00004C   88..         MOV     ?V0,R0
   \   00004E   89..         MOV     ?V1,R1
   \   000050   8E..         MOV     ?V2,R6
   \   000052   78..         MOV     R0,#?V0
   \   000054   12....       LCALL   ?PUSH_XSTACK_I_THREE
   \   000057   7C10         MOV     R4,#0x10
   \   000059   7D00         MOV     R5,#0x0
   \   00005B   7404         MOV     A,#0x4
   \   00005D   12....       LCALL   ?XSTACK_DISP0_8
   \   000060   A982         MOV     R1,DPL
   \   000062   AA83         MOV     R2,DPH
   \   000064   7B00         MOV     R3,#0x0
   \   000066   12....       LCALL   ??osal_memcmp?relay  ; Banked call to: osal_memcmp
   \   000069   7403         MOV     A,#0x3
   \   00006B   12....       LCALL   ?DEALLOC_XSTACK8
   \   00006E   E9           MOV     A,R1
   \   00006F   705B         JNZ     ??ZDApp_RestoreNwkKey_0
   1735              {
   1736                // Increment the frame counter stored in NV
   1737                keyItems.frameCounter += ( MAX_NWK_FRAMECOUNTER_CHANGES +
   1738                                           NWK_FRAMECOUNTER_CHANGES_RESTORE_DELTA );
   \   000071   90....       MOV     DPTR,#__Constant_4e2
   \   000074   78..         MOV     R0,#?V0
   \   000076   12....       LCALL   ?L_MOV_X
   \   000079   7411         MOV     A,#0x11
   \   00007B   12....       LCALL   ?XSTACK_DISP0_8
   \   00007E   78..         MOV     R0,#?V0
   \   000080   12....       LCALL   ?L_ADD_TO_X
   1739          
   1740                nwkFrameCounter = keyItems.frameCounter;
   \   000083   7411         MOV     A,#0x11
   \   000085   12....       LCALL   ?XSTACK_DISP0_8
   \   000088   12....       LCALL   ?XLOAD_R0123
   \   00008B   90....       MOV     DPTR,#nwkFrameCounter
   \   00008E   12....       LCALL   ?XSTORE_R0123
   1741          
   1742                // Save the updated Frame Counter right away
   1743                osal_nv_write( ZCD_NV_NWKKEY, 0, sizeof( nwkActiveKeyItems ),
   1744                               (void *)&keyItems );
   \   000091                ; Setup parameters for call to function osal_nv_write
   \   000091   A8..         MOV     R0,?XSP + 0
   \   000093   A9..         MOV     R1,?XSP + 1
   \   000095   88..         MOV     ?V0,R0
   \   000097   89..         MOV     ?V1,R1
   \   000099   78..         MOV     R0,#?V0
   \   00009B   12....       LCALL   ?PUSH_XSTACK_I_TWO
   \   00009E   75..15       MOV     ?V0,#0x15
   \   0000A1   8E..         MOV     ?V1,R6
   \   0000A3   78..         MOV     R0,#?V0
   \   0000A5   12....       LCALL   ?PUSH_XSTACK_I_TWO
   \   0000A8   7C00         MOV     R4,#0x0
   \   0000AA   7D00         MOV     R5,#0x0
   \   0000AC   7A82         MOV     R2,#-0x7e
   \   0000AE   7B00         MOV     R3,#0x0
   \   0000B0   12....       LCALL   ??osal_nv_write?relay; Banked call to: osal_nv_write
   \   0000B3   7404         MOV     A,#0x4
   \   0000B5   12....       LCALL   ?DEALLOC_XSTACK8
   1745          
   1746                nwkFrameCounterChanges = 0;
   \   0000B8   90....       MOV     DPTR,#nwkFrameCounterChanges
   \   0000BB   E4           CLR     A
   \   0000BC   F0           MOVX    @DPTR,A
   \   0000BD   A3           INC     DPTR
   \   0000BE   F0           MOVX    @DPTR,A
   1747          
   1748                ret = TRUE;
   \   0000BF   7E01         MOV     R6,#0x1
   1749          
   1750                // Clear copy in RAM before return.
   1751                osal_memset( &keyItems, 0x00, sizeof(keyItems) );
   \   0000C1                ; Setup parameters for call to function osal_memset
   \   0000C1   7C15         MOV     R4,#0x15
   \   0000C3   FD           MOV     R5,A
   \   0000C4   F9           MOV     R1,A
   \   0000C5   AA..         MOV     R2,?XSP + 0
   \   0000C7   AB..         MOV     R3,?XSP + 1
   \   0000C9   12....       LCALL   ??osal_memset?relay  ; Banked call to: osal_memset
   1752              }
   1753            }
   1754          
   1755            return ( ret );
   \                     ??ZDApp_RestoreNwkKey_0:
   \   0000CC   EE           MOV     A,R6
   \   0000CD   F9           MOV     R1,A
   \   0000CE   7425         MOV     A,#0x25
   \   0000D0   02....       LJMP    ?Subroutine1 & 0xFFFF
   1756          }
   1757          
   1758          /*********************************************************************
   1759           * @fn      ZDApp_ResetTimerStart
   1760           *
   1761           * @brief   Start the reset timer.
   1762           *
   1763           * @param   delay - delay time(ms) before reset
   1764           *
   1765           * @return  none
   1766           */

   \                                 In  segment BANKED_CODE, align 1, keep-with-next
   1767          void ZDApp_ResetTimerStart( uint16 delay )
   \                     ZDApp_ResetTimerStart:
   1768          {
   \   000000                REQUIRE ?V0
   \   000000                REQUIRE ?V1
   \   000000                REQUIRE ?V2
   \   000000                REQUIRE ?V3
   \   000000   74F4         MOV     A,#-0xc
   \   000002   12....       LCALL   ?BANKED_ENTER_XDATA
   \   000005                ; Saved register size: 12
   \   000005                ; Auto size: 0
   \   000005   8A..         MOV     ?V0,R2
   \   000007   8B..         MOV     ?V1,R3
   1769            if ( !osal_get_timeoutEx( ZDAppTaskID, ZDO_DEVICE_RESET ) )
   \   000009                ; Setup parameters for call to function osal_get_timeoutEx
   \   000009   7A04         MOV     R2,#0x4
   \   00000B   7B00         MOV     R3,#0x0
   \   00000D   90....       MOV     DPTR,#ZDAppTaskID
   \   000010   E0           MOVX    A,@DPTR
   \   000011   F9           MOV     R1,A
   \   000012   12....       LCALL   ??osal_get_timeoutEx?relay; Banked call to: osal_get_timeoutEx
   \   000015   EA           MOV     A,R2
   \   000016   4B           ORL     A,R3
   \   000017   4C           ORL     A,R4
   \   000018   4D           ORL     A,R5
   \   000019   701B         JNZ     ??ZDApp_ResetTimerStart_0
   1770            {
   1771              // Start the rest timer
   1772              osal_start_timerEx( ZDAppTaskID, ZDO_DEVICE_RESET, delay );
   \   00001B                ; Setup parameters for call to function osal_start_timerEx
   \   00001B   E4           CLR     A
   \   00001C   F5..         MOV     ?V2,A
   \   00001E   F5..         MOV     ?V3,A
   \   000020   78..         MOV     R0,#?V0
   \   000022   12....       LCALL   ?PUSH_XSTACK_I_FOUR
   \   000025   7A04         MOV     R2,#0x4
   \   000027   7B00         MOV     R3,#0x0
   \   000029   90....       MOV     DPTR,#ZDAppTaskID
   \   00002C   E0           MOVX    A,@DPTR
   \   00002D   F9           MOV     R1,A
   \   00002E   12....       LCALL   ??osal_start_timerEx?relay; Banked call to: osal_start_timerEx
   \   000031   7404         MOV     A,#0x4
   \   000033   12....       LCALL   ?DEALLOC_XSTACK8
   1773            }
   1774          }
   \                     ??ZDApp_ResetTimerStart_0:
   \   000036   02....       LJMP    ??Subroutine45_0 & 0xFFFF
   1775          
   1776          /*********************************************************************
   1777           * @fn      ZDApp_ResetTimerCancel
   1778           *
   1779           * @brief   Cancel the reset timer.
   1780           *
   1781           * @param   none
   1782           *
   1783           * @return  none
   1784           */

   \                                 In  segment BANKED_CODE, align 1, keep-with-next
   1785          void ZDApp_ResetTimerCancel( void )
   \                     ZDApp_ResetTimerCancel:
   1786          {
   \   000000   C082         PUSH    DPL
   \   000002   C083         PUSH    DPH
   \   000004                ; Saved register size: 2
   \   000004                ; Auto size: 0
   1787            (void)osal_stop_timerEx(ZDAppTaskID, ZDO_DEVICE_RESET);
   \   000004                ; Setup parameters for call to function osal_stop_timerEx
   \   000004   7A04         MOV     R2,#0x4
   \   000006   7B00         MOV     R3,#0x0
   \   000008   90....       MOV     DPTR,#ZDAppTaskID
   \   00000B   E0           MOVX    A,@DPTR
   \   00000C   F9           MOV     R1,A
   \   00000D   12....       LCALL   ??osal_stop_timerEx?relay; Banked call to: osal_stop_timerEx
   1788            (void)osal_clear_event(ZDAppTaskID, ZDO_DEVICE_RESET);
   \   000010                ; Setup parameters for call to function osal_clear_event
   \   000010   7A04         MOV     R2,#0x4
   \   000012   7B00         MOV     R3,#0x0
   \   000014   90....       MOV     DPTR,#ZDAppTaskID
   \   000017   E0           MOVX    A,@DPTR
   \   000018   F9           MOV     R1,A
   \   000019   12....       LCALL   ??osal_clear_event?relay; Banked call to: osal_clear_event
   1789          }
   \   00001C   02....       LJMP    ??Subroutine50_0 & 0xFFFF
   1790          
   1791          /*********************************************************************
   1792           * @fn      ZDApp_LeaveCtrlInit
   1793           *
   1794           * @brief   Initialize the leave control logic.
   1795           *
   1796           * @param   none
   1797           *
   1798           * @return  none
   1799           */

   \                                 In  segment BANKED_CODE, align 1, keep-with-next
   1800          void ZDApp_LeaveCtrlInit( void )
   \                     ZDApp_LeaveCtrlInit:
   1801          {
   \   000000                REQUIRE ?V0
   \   000000                REQUIRE ?V1
   \   000000   74F6         MOV     A,#-0xa
   \   000002   12....       LCALL   ?BANKED_ENTER_XDATA
   \   000005                ; Saved register size: 10
   \   000005                ; Auto size: 0
   1802            uint8 status;
   1803          
   1804          
   1805            // Initialize control state
   1806            ZDApp_LeaveCtrl = ZDAPP_LEAVE_CTRL_INIT;
   \   000005   90....       MOV     DPTR,#ZDApp_LeaveCtrl
   \   000008   E4           CLR     A
   \   000009   F0           MOVX    @DPTR,A
   1807          
   1808            status = osal_nv_item_init( ZCD_NV_LEAVE_CTRL,
   1809                                        sizeof(ZDApp_LeaveCtrl),
   1810                                        &ZDApp_LeaveCtrl );
   1811          
   1812            if ( status == ZSUCCESS )
   \   00000A                ; Setup parameters for call to function osal_nv_item_init
   \   00000A   75....       MOV     ?V0,#ZDApp_LeaveCtrl & 0xff
   \   00000D   75....       MOV     ?V1,#(ZDApp_LeaveCtrl >> 8) & 0xff
   \   000010   78..         MOV     R0,#?V0
   \   000012   12....       LCALL   ?PUSH_XSTACK_I_TWO
   \   000015   7C01         MOV     R4,#0x1
   \   000017   7D00         MOV     R5,#0x0
   \   000019   7A85         MOV     R2,#-0x7b
   \   00001B   7B00         MOV     R3,#0x0
   \   00001D   12....       LCALL   ??osal_nv_item_init?relay; Banked call to: osal_nv_item_init
   \   000020   7402         MOV     A,#0x2
   \   000022   12....       LCALL   ?DEALLOC_XSTACK8
   \   000025   E9           MOV     A,R1
   \   000026   7020         JNZ     ??ZDApp_LeaveCtrlInit_0
   1813            {
   1814              // Read saved control
   1815              osal_nv_read( ZCD_NV_LEAVE_CTRL,
   1816                            0,
   1817                            sizeof( uint8 ),
   1818                            &ZDApp_LeaveCtrl);
   \   000028                ; Setup parameters for call to function osal_nv_read
   \   000028   78..         MOV     R0,#?V0
   \   00002A   12....       LCALL   ?PUSH_XSTACK_I_TWO
   \   00002D   75..01       MOV     ?V0,#0x1
   \   000030   75..00       MOV     ?V1,#0x0
   \   000033   78..         MOV     R0,#?V0
   \   000035   12....       LCALL   ?PUSH_XSTACK_I_TWO
   \   000038   7C00         MOV     R4,#0x0
   \   00003A   7D00         MOV     R5,#0x0
   \   00003C   7A85         MOV     R2,#-0x7b
   \   00003E   7B00         MOV     R3,#0x0
   \   000040   12....       LCALL   ??osal_nv_read?relay ; Banked call to: osal_nv_read
   \   000043   7404         MOV     A,#0x4
   \   000045   12....       LCALL   ?DEALLOC_XSTACK8
   1819            }
   1820          }
   \                     ??ZDApp_LeaveCtrlInit_0:
   \   000048   02....       LJMP    ??Subroutine52_0 & 0xFFFF
   1821          
   1822          /*********************************************************************
   1823           * @fn      ZDApp_LeaveCtrlSet
   1824           *
   1825           * @brief   Set the leave control logic.
   1826           *
   1827           * @param   ra - reassociate flag
   1828           *
   1829           * @return  none
   1830           */

   \                                 In  segment BANKED_CODE, align 1, keep-with-next
   1831          void ZDApp_LeaveCtrlSet( uint8 ra )
   \                     ZDApp_LeaveCtrlSet:
   1832          {
   \   000000                REQUIRE ?V0
   \   000000                REQUIRE ?V1
   \   000000   74F6         MOV     A,#-0xa
   \   000002   12....       LCALL   ?BANKED_ENTER_XDATA
   \   000005                ; Saved register size: 10
   \   000005                ; Auto size: 0
   \   000005   E9           MOV     A,R1
   \   000006   FE           MOV     R6,A
   1833            ZDApp_LeaveCtrl = ZDAPP_LEAVE_CTRL_SET;
   \   000007   90....       MOV     DPTR,#ZDApp_LeaveCtrl
   \   00000A   7401         MOV     A,#0x1
   \   00000C   F0           MOVX    @DPTR,A
   1834          
   1835            if ( ra == TRUE )
   \   00000D   6E           XRL     A,R6
   \   00000E   7003         JNZ     ??ZDApp_LeaveCtrlSet_0
   1836            {
   1837              ZDApp_LeaveCtrl |= ZDAPP_LEAVE_CTRL_RA;
   \   000010   7403         MOV     A,#0x3
   \   000012   F0           MOVX    @DPTR,A
   1838            }
   1839          
   1840            // Write the leave control
   1841            osal_nv_write( ZCD_NV_LEAVE_CTRL,
   1842                           0,
   1843                           sizeof( uint8 ),
   1844                           &ZDApp_LeaveCtrl);
   \                     ??ZDApp_LeaveCtrlSet_0:
   \   000013                ; Setup parameters for call to function osal_nv_write
   \   000013   02....       LJMP    ?Subroutine3 & 0xFFFF
   1845          }

   \                                 In  segment BANKED_CODE, align 1, keep-with-next
   \                     ?Subroutine3:
   \   000000   75....       MOV     ?V0,#ZDApp_LeaveCtrl & 0xff
   \   000003   75....       MOV     ?V1,#(ZDApp_LeaveCtrl >> 8) & 0xff
   \   000006   78..         MOV     R0,#?V0
   \   000008   12....       LCALL   ?PUSH_XSTACK_I_TWO
   \   00000B   75..01       MOV     ?V0,#0x1
   \   00000E   75..00       MOV     ?V1,#0x0
   \   000011   78..         MOV     R0,#?V0
   \   000013   12....       LCALL   ?PUSH_XSTACK_I_TWO
   \   000016   7C00         MOV     R4,#0x0
   \   000018   7D00         MOV     R5,#0x0
   \   00001A   7A85         MOV     R2,#-0x7b
   \   00001C   7B00         MOV     R3,#0x0
   \   00001E   12....       LCALL   ??osal_nv_write?relay; Banked call to: osal_nv_write
   \   000021   7404         MOV     A,#0x4
   \   000023                REQUIRE ??Subroutine51_0
   \   000023                ; // Fall through to label ??Subroutine51_0
   1846          
   1847          /*********************************************************************
   1848           * @fn      ZDApp_LeaveCtrlReset
   1849           *
   1850           * @brief   Re-initialize the leave control logic.
   1851           *
   1852           * @param   none
   1853           *
   1854           * @return  none
   1855           */

   \                                 In  segment BANKED_CODE, align 1, keep-with-next
   1856          void ZDApp_LeaveCtrlReset( void )
   \                     ZDApp_LeaveCtrlReset:
   1857          {
   \   000000                REQUIRE ?V0
   \   000000                REQUIRE ?V1
   \   000000   74F6         MOV     A,#-0xa
   \   000002   12....       LCALL   ?BANKED_ENTER_XDATA
   \   000005                ; Saved register size: 10
   \   000005                ; Auto size: 0
   1858            // Set leave control to initialized state
   1859            ZDApp_LeaveCtrl = ZDAPP_LEAVE_CTRL_INIT;
   \   000005   90....       MOV     DPTR,#ZDApp_LeaveCtrl
   \   000008   E4           CLR     A
   \   000009   F0           MOVX    @DPTR,A
   1860          
   1861            // Write initialized control
   1862            osal_nv_write( ZCD_NV_LEAVE_CTRL,
   1863                          0,
   1864                          sizeof( uint8 ),
   1865                          &ZDApp_LeaveCtrl);
   \   00000A                ; Setup parameters for call to function osal_nv_write
   \   00000A   02....       LJMP    ?Subroutine3 & 0xFFFF
   1866          }
   1867          
   1868          /*********************************************************************
   1869           * @fn      ZDApp_LeaveCtrlBypass
   1870           *
   1871           * @brief   Check if NV restore should be skipped during a leave reset.
   1872           *
   1873           * @param   none
   1874           *
   1875           * @return  uint8 - (TRUE bypass:FALSE do not bypass)
   1876           */

   \                                 In  segment BANKED_CODE, align 1, keep-with-next
   1877          uint8 ZDApp_LeaveCtrlBypass( void )
   \                     ZDApp_LeaveCtrlBypass:
   1878          {
   \   000000   C082         PUSH    DPL
   \   000002   C083         PUSH    DPH
   \   000004                ; Saved register size: 2
   \   000004                ; Auto size: 0
   1879            uint8 bypass;
   1880          
   1881            if ( ZDApp_LeaveCtrl & ZDAPP_LEAVE_CTRL_SET )
   1882            {
   1883              bypass = TRUE;
   1884            }
   1885            else
   1886            {
   1887              bypass = FALSE;
   1888            }
   1889          
   1890            return bypass;
   \   000004   90....       MOV     DPTR,#ZDApp_LeaveCtrl
   \   000007   E0           MOVX    A,@DPTR
   \   000008   A2E0         MOV     C,0xE0 /* A   */.0
   \   00000A   E4           CLR     A
   \   00000B   33           RLC     A
   \   00000C   F9           MOV     R1,A
   \   00000D   80..         SJMP    ??Subroutine50_0
   1891          }
   1892          
   1893          /*********************************************************************
   1894           * @fn      ZDApp_LeaveCtrlStartup
   1895           *
   1896           * @brief   Check for startup conditions during a leave reset.
   1897           *
   1898           * @param   state      - devState_t determined by leave control logic
   1899           * @param   startDelay - startup delay
   1900           *
   1901           * @return  none
   1902           */

   \                                 In  segment BANKED_CODE, align 1, keep-with-next
   1903          void ZDApp_LeaveCtrlStartup( devStates_t* state, uint16* startDelay )
   \                     ZDApp_LeaveCtrlStartup:
   1904          {
   \   000000   C082         PUSH    DPL
   \   000002   C083         PUSH    DPH
   \   000004                ; Saved register size: 2
   \   000004                ; Auto size: 0
   1905            *startDelay = 0;
   \   000004   8C82         MOV     DPL,R4
   \   000006   8D83         MOV     DPH,R5
   \   000008   E4           CLR     A
   \   000009   F0           MOVX    @DPTR,A
   \   00000A   A3           INC     DPTR
   \   00000B   F0           MOVX    @DPTR,A
   1906          
   1907            if ( ZDApp_LeaveCtrl & ZDAPP_LEAVE_CTRL_SET )
   \   00000C   90....       MOV     DPTR,#ZDApp_LeaveCtrl
   \   00000F   E0           MOVX    A,@DPTR
   \   000010   A2E0         MOV     C,0xE0 /* A   */.0
   \   000012   5019         JNC     ??ZDApp_LeaveCtrlStartup_0
   1908            {
   1909              if ( ZDApp_LeaveCtrl & ZDAPP_LEAVE_CTRL_RA )
   \   000014   A2E1         MOV     C,0xE0 /* A   */.1
   \   000016   500C         JNC     ??ZDApp_LeaveCtrlStartup_1
   1910              {
   1911                *startDelay = LEAVE_RESET_DELAY;
   \   000018   8C82         MOV     DPL,R4
   \   00001A   8D83         MOV     DPH,R5
   \   00001C   7488         MOV     A,#-0x78
   \   00001E   F0           MOVX    @DPTR,A
   \   00001F   A3           INC     DPTR
   \   000020   7413         MOV     A,#0x13
   \   000022   8005         SJMP    ??ZDApp_LeaveCtrlStartup_2
   1912              }
   1913              else
   1914              {
   1915                *state = DEV_HOLD;
   \                     ??ZDApp_LeaveCtrlStartup_1:
   \   000024   8A82         MOV     DPL,R2
   \   000026   8B83         MOV     DPH,R3
   \   000028   E4           CLR     A
   \                     ??ZDApp_LeaveCtrlStartup_2:
   \   000029   F0           MOVX    @DPTR,A
   1916              }
   1917          
   1918              // Reset leave control logic
   1919              ZDApp_LeaveCtrlReset();
   \   00002A                ; Setup parameters for call to function ZDApp_LeaveCtrlReset
   \   00002A   12....       LCALL   ??ZDApp_LeaveCtrlReset?relay; Banked call to: ZDApp_LeaveCtrlReset
   1920            }
   1921          }
   \                     ??ZDApp_LeaveCtrlStartup_0:
   \   00002D   80..         SJMP    ??Subroutine50_0
   1922          
   1923          /*********************************************************************
   1924           * @fn      ZDApp_LeaveReset
   1925           *
   1926           * @brief   Setup a device reset due to a leave indication/confirm.
   1927           *
   1928           * @param   ra - reassociate flag
   1929           *
   1930           * @return  none
   1931           */

   \                                 In  segment BANKED_CODE, align 1, keep-with-next
   1932          void ZDApp_LeaveReset( uint8 ra )
   \                     ZDApp_LeaveReset:
   1933          {
   \   000000   74F7         MOV     A,#-0x9
   \   000002   12....       LCALL   ?BANKED_ENTER_XDATA
   \   000005                ; Saved register size: 9
   \   000005                ; Auto size: 0
   1934            ZDApp_LeaveCtrlSet( ra );
   \   000005                ; Setup parameters for call to function ZDApp_LeaveCtrlSet
   \   000005   12....       LCALL   ??ZDApp_LeaveCtrlSet?relay; Banked call to: ZDApp_LeaveCtrlSet
   1935          
   1936            ZDApp_ResetTimerStart( LEAVE_RESET_DELAY );
   \   000008                ; Setup parameters for call to function ZDApp_ResetTimerStart
   \   000008   7A88         MOV     R2,#-0x78
   \   00000A   7B13         MOV     R3,#0x13
   \   00000C   12....       LCALL   ??ZDApp_ResetTimerStart?relay; Banked call to: ZDApp_ResetTimerStart
   1937          }
   \   00000F   02....       LJMP    ??Subroutine56_0 & 0xFFFF
   1938          
   1939          /*********************************************************************
   1940           * @fn      ZDApp_LeaveUpdate
   1941           *
   1942           * @brief   Update local device data related to leaving device.
   1943           *
   1944           * @param   nwkAddr        - NWK address of leaving device
   1945           * @param   extAddr        - EXT address of leaving device
   1946           * @param   removeChildren - remove children of leaving device
   1947           *
   1948           * @return  none
   1949           */

   \                                 In  segment BANKED_CODE, align 1, keep-with-next
   1950          void ZDApp_LeaveUpdate( uint16 nwkAddr, uint8* extAddr,
   \                     ZDApp_LeaveUpdate:
   1951                                  uint8 removeChildren )
   1952          {
   \   000000                REQUIRE ?V0
   \   000000                REQUIRE ?V1
   \   000000                REQUIRE ?V2
   \   000000                REQUIRE ?V4
   \   000000                REQUIRE ?V5
   \   000000                REQUIRE ?V6
   \   000000   74F1         MOV     A,#-0xf
   \   000002   12....       LCALL   ?BANKED_ENTER_XDATA
   \   000005                ; Saved register size: 15
   \   000005                ; Auto size: 17
   \   000005   74EF         MOV     A,#-0x11
   \   000007   12....       LCALL   ?ALLOC_XSTACK8
   \   00000A   8A..         MOV     ?V0,R2
   \   00000C   8B..         MOV     ?V1,R3
   \   00000E   EC           MOV     A,R4
   \   00000F   FE           MOV     R6,A
   \   000010   ED           MOV     A,R5
   \   000011   FF           MOV     R7,A
   \   000012   89..         MOV     ?V2,R1
   1953            // Remove Apps Key for leaving device
   1954            ZDSecMgrDeviceRemoveByExtAddr(extAddr);
   \   000014                ; Setup parameters for call to function ZDSecMgrDeviceRemoveByExtAddr
   \   000014   EE           MOV     A,R6
   \   000015   FA           MOV     R2,A
   \   000016   EF           MOV     A,R7
   \   000017   FB           MOV     R3,A
   \   000018   12....       LCALL   ??ZDSecMgrDeviceRemoveByExtAddr?relay; Banked call to: ZDSecMgrDeviceRemoveByExtAddr
   1955          
   1956            // Clear SECURITY bit from Address Manager
   1957            ZDSecMgrAddrClear( extAddr );
   \   00001B                ; Setup parameters for call to function ZDSecMgrAddrClear
   \   00001B   EE           MOV     A,R6
   \   00001C   FA           MOV     R2,A
   \   00001D   EF           MOV     A,R7
   \   00001E   FB           MOV     R3,A
   \   00001F   12....       LCALL   ??ZDSecMgrAddrClear?relay; Banked call to: ZDSecMgrAddrClear
   1958          
   1959            if ( pbindRemoveDev )
   \   000022   90....       MOV     DPTR,#pbindRemoveDev
   \   000025   12....       LCALL   ??Subroutine55_0 & 0xFFFF
   \                     ??CrossCallReturnLabel_89:
   \   000028   6036         JZ      ??ZDApp_LeaveUpdate_0
   1960            {
   1961              zAddrType_t devAddr;
   1962          
   1963              // Remove bind entry and all related data
   1964              devAddr.addrMode = Addr64Bit;
   \   00002A   7410         MOV     A,#0x10
   \   00002C   12....       LCALL   ?XSTACK_DISP0_8
   \   00002F   7403         MOV     A,#0x3
   \   000031   F0           MOVX    @DPTR,A
   1965              osal_memcpy(devAddr.addr.extAddr, extAddr, Z_EXTADDR_LEN);
   \   000032                ; Setup parameters for call to function osal_memcpy
   \   000032   8E..         MOV     ?V4,R6
   \   000034   8F..         MOV     ?V5,R7
   \   000036   75..00       MOV     ?V6,#0x0
   \   000039   78..         MOV     R0,#?V4
   \   00003B   12....       LCALL   ?PUSH_XSTACK_I_THREE
   \   00003E   7C08         MOV     R4,#0x8
   \   000040   7D00         MOV     R5,#0x0
   \   000042   740B         MOV     A,#0xb
   \   000044   12....       LCALL   ?XSTACK_DISP101_8
   \   000047   12....       LCALL   ??osal_memcpy?relay  ; Banked call to: osal_memcpy
   \   00004A   7403         MOV     A,#0x3
   \   00004C   12....       LCALL   ?DEALLOC_XSTACK8
   1966          
   1967              pbindRemoveDev(&devAddr);
   \   00004F                ; Setup parameters for indirect call
   \   00004F   7408         MOV     A,#0x8
   \   000051   12....       LCALL   ?XSTACK_DISP101_8
   \   000054   90....       MOV     DPTR,#pbindRemoveDev
   \   000057   E0           MOVX    A,@DPTR
   \   000058   F8           MOV     R0,A
   \   000059   A3           INC     DPTR
   \   00005A   12....       LCALL   ??Subroutine57_0 & 0xFFFF
   1968            }
   \                     ??CrossCallReturnLabel_106:
   \   00005D   12....       LCALL   ?CALL_IND
   1969          
   1970            // Remove if child
   1971            if ( ZSTACK_ROUTER_BUILD )
   1972            {
   1973              // Router shall notify the Trust Center that a child device has left the network
   1974              if ( AssocIsChild( nwkAddr ) == TRUE )
   \                     ??ZDApp_LeaveUpdate_0:
   \   000060                ; Setup parameters for call to function AssocIsChild
   \   000060   AA..         MOV     R2,?V0
   \   000062   AB..         MOV     R3,?V1
   \   000064   12....       LCALL   ??AssocIsChild?relay ; Banked call to: AssocIsChild
   \   000067   E9           MOV     A,R1
   \   000068   6401         XRL     A,#0x1
   \   00006A   7034         JNZ     ??ZDApp_LeaveUpdate_1
   1975              {
   1976                  APSME_UpdateDeviceReq_t req;
   1977          
   1978                  // forward authorization to the Trust Center
   1979                  req.dstAddr    = APSME_TRUSTCENTER_NWKADDR;
   \   00006C   85..82       MOV     DPL,?XSP + 0
   \   00006F   85..83       MOV     DPH,?XSP + 1
   \   000072   E4           CLR     A
   \   000073   F0           MOVX    @DPTR,A
   \   000074   A3           INC     DPTR
   \   000075   F0           MOVX    @DPTR,A
   1980                  req.devAddr    = nwkAddr;
   \   000076   7402         MOV     A,#0x2
   \   000078   12....       LCALL   ?XSTACK_DISP0_8
   \   00007B   E5..         MOV     A,?V0
   \   00007D   F0           MOVX    @DPTR,A
   \   00007E   A3           INC     DPTR
   \   00007F   E5..         MOV     A,?V1
   \   000081   F0           MOVX    @DPTR,A
   1981                  req.devExtAddr = extAddr;
   \   000082   7404         MOV     A,#0x4
   \   000084   12....       LCALL   ?XSTACK_DISP0_8
   \   000087   EE           MOV     A,R6
   \   000088   F0           MOVX    @DPTR,A
   \   000089   A3           INC     DPTR
   \   00008A   EF           MOV     A,R7
   \   00008B   F0           MOVX    @DPTR,A
   1982                  req.status = APSME_UD_DEVICE_LEFT;
   \   00008C   7406         MOV     A,#0x6
   \   00008E   12....       LCALL   ?XSTACK_DISP0_8
   \   000091   7402         MOV     A,#0x2
   \   000093   F0           MOVX    @DPTR,A
   1983          
   1984                  if ( ZG_CHECK_SECURITY_MODE == ZG_SECURITY_SE_STANDARD )
   1985                  {
   1986                    // For ZG_GLOBAL_LINK_KEY the message has to be sent twice one
   1987                    // un-encrypted and one APS encrypted, to make sure that it can interoperate
   1988                    // with legacy Coordinator devices which can only handle one or the other.
   1989                    if ( zgApsLinkKeyType == ZG_GLOBAL_LINK_KEY )
   1990                    {
   1991                      req.apsSecure = FALSE;
   1992          
   1993                      // send and APSME_UPDATE_DEVICE request to the trust center
   1994                      APSME_UpdateDeviceReq( &req );
   1995                    }
   1996          
   1997                    // send the message APS encrypted
   1998                    req.apsSecure = TRUE;
   1999          
   2000                    // send and APSME_UPDATE_DEVICE request to the trust center
   2001                    APSME_UpdateDeviceReq( &req );
   2002                  }
   2003                  else
   2004                  {
   2005                    req.apsSecure = FALSE;
   \   000094   7407         MOV     A,#0x7
   \   000096   12....       LCALL   ?XSTACK_DISP0_8
   \   000099   E4           CLR     A
   \   00009A   12....       LCALL   ?Subroutine13 & 0xFFFF
   2006          
   2007                    // send and APSME_UPDATE_DEVICE request to the trust center
   2008                    APSME_UpdateDeviceReq( &req );
   2009                  }
   2010              }
   \                     ??CrossCallReturnLabel_3:
   \   00009D   12....       LCALL   ??APSME_UpdateDeviceReq?relay; Banked call to: APSME_UpdateDeviceReq
   2011          
   2012              NLME_RemoveChild( extAddr, removeChildren );
   \                     ??ZDApp_LeaveUpdate_1:
   \   0000A0                ; Setup parameters for call to function NLME_RemoveChild
   \   0000A0   A9..         MOV     R1,?V2
   \   0000A2   EE           MOV     A,R6
   \   0000A3   FA           MOV     R2,A
   \   0000A4   EF           MOV     A,R7
   \   0000A5   FB           MOV     R3,A
   \   0000A6   12....       LCALL   ??NLME_RemoveChild?relay; Banked call to: NLME_RemoveChild
   2013            }
   2014          
   2015            // Remove Routing table related entry
   2016            RTG_RemoveRtgEntry( nwkAddr, 0 );
   \   0000A9                ; Setup parameters for call to function RTG_RemoveRtgEntry
   \   0000A9   7900         MOV     R1,#0x0
   \   0000AB   AA..         MOV     R2,?V0
   \   0000AD   AB..         MOV     R3,?V1
   \   0000AF   12....       LCALL   ??RTG_RemoveRtgEntry?relay; Banked call to: RTG_RemoveRtgEntry
   2017          
   2018            // Remove entry from neighborTable
   2019            nwkNeighborRemove( nwkAddr, _NIB.nwkPanId );
   \   0000B2                ; Setup parameters for call to function nwkNeighborRemove
   \   0000B2   90....       MOV     DPTR,#_NIB + 33
   \   0000B5   E0           MOVX    A,@DPTR
   \   0000B6   FC           MOV     R4,A
   \   0000B7   A3           INC     DPTR
   \   0000B8   E0           MOVX    A,@DPTR
   \   0000B9   FD           MOV     R5,A
   \   0000BA   AA..         MOV     R2,?V0
   \   0000BC   AB..         MOV     R3,?V1
   \   0000BE   12....       LCALL   ??nwkNeighborRemove?relay; Banked call to: nwkNeighborRemove
   2020          
   2021            // Schedule to save data to NV
   2022            ZDApp_NwkWriteNVRequest();
   2023          }
   \   0000C1   7411         MOV     A,#0x11
   \   0000C3                REQUIRE ?Subroutine6
   \   0000C3                ; // Fall through to label ?Subroutine6

   \                                 In  segment BANKED_CODE, align 1, keep-with-next
   \                     ?Subroutine6:
   \   000000   12....       LCALL   ?DEALLOC_XSTACK8
   \   000003   7F07         MOV     R7,#0x7
   \   000005   02....       LJMP    ?BANKED_LEAVE_XDATA
   2024          
   2025          /*********************************************************************
   2026           * @fn      ZDApp_NetworkDiscoveryReq
   2027           *
   2028           * @brief   Request a network discovery.
   2029           *
   2030           * @param  scanChannels -
   2031           * @param  scanDuration -
   2032           *
   2033           * @return  ZStatus_t
   2034           */

   \                                 In  segment BANKED_CODE, align 1, keep-with-next
   2035          ZStatus_t ZDApp_NetworkDiscoveryReq( uint32 scanChannels, uint8 scanDuration)
   \                     ZDApp_NetworkDiscoveryReq:
   2036          {
   \   000000                REQUIRE ?V0
   \   000000                REQUIRE ?V1
   \   000000                REQUIRE ?V2
   \   000000                REQUIRE ?V3
   \   000000   74F4         MOV     A,#-0xc
   \   000002   12....       LCALL   ?BANKED_ENTER_XDATA
   \   000005                ; Saved register size: 12
   \   000005                ; Auto size: 0
   2037            // Setup optional filters - tbd
   2038          
   2039            // Request NLME network discovery
   2040            return NLME_NetworkDiscoveryRequest(scanChannels, scanDuration);
   \   000005                ; Setup parameters for call to function NLME_NetworkDiscoveryRequest
   \   000005   12....       LCALL   ??NLME_NetworkDiscoveryRequest?relay; Banked call to: NLME_NetworkDiscoveryRequest
   \   000008   02....       LJMP    ??Subroutine45_0 & 0xFFFF
   2041          }
   2042          
   2043          /*********************************************************************
   2044           * @fn      ZDApp_JoinReq
   2045           *
   2046           * @brief   Request the device to join a parent in a network.
   2047           *
   2048           * @param   channel -
   2049           * @param   panID -
   2050           *
   2051           * @return  ZStatus_t
   2052           */

   \                                 In  segment BANKED_CODE, align 1, keep-with-next
   2053          ZStatus_t ZDApp_JoinReq( uint8 channel, uint16 panID, uint8 *extendedPanID,
   \                     ZDApp_JoinReq:
   2054                                   uint16 chosenParent, uint8 parentDepth, uint8 stackProfile )
   2055          {
   \   000000                REQUIRE ?V0
   \   000000                REQUIRE ?V1
   \   000000                REQUIRE ?V2
   \   000000                REQUIRE ?V3
   \   000000   74F4         MOV     A,#-0xc
   \   000002   12....       LCALL   ?BANKED_ENTER_XDATA
   \   000005                ; Saved register size: 12
   \   000005                ; Auto size: 0
   \   000005   89..         MOV     ?V2,R1
   \   000007   8A..         MOV     ?V0,R2
   \   000009   8B..         MOV     ?V1,R3
   \   00000B   EC           MOV     A,R4
   \   00000C   FE           MOV     R6,A
   \   00000D   ED           MOV     A,R5
   \   00000E   FF           MOV     R7,A
   2056            // Sync up the node with the stack profile (In the case where a pro device
   2057            // joins a non-pro network, or verse versa)
   2058            ZDApp_NodeProfileSync( stackProfile);
   \   00000F                ; Setup parameters for call to function ZDApp_NodeProfileSync
   \   00000F   740F         MOV     A,#0xf
   \   000011   12....       LCALL   ?XSTACK_DISP0_8
   \   000014   E0           MOVX    A,@DPTR
   \   000015   F9           MOV     R1,A
   \   000016   12....       LCALL   ??ZDApp_NodeProfileSync?relay; Banked call to: ZDApp_NodeProfileSync
   2059          
   2060            // Request NLME Join Request
   2061            return NLME_JoinRequest(extendedPanID, panID,channel,
   2062                                    ZDO_Config_Node_Descriptor.CapabilityFlags,
   2063                                    chosenParent, parentDepth);
   \   000019                ; Setup parameters for call to function NLME_JoinRequest
   \   000019   740E         MOV     A,#0xe
   \   00001B   12....       LCALL   ?XSTACK_DISP0_8
   \   00001E   E0           MOVX    A,@DPTR
   \   00001F   F5..         MOV     ?V3,A
   \   000021   78..         MOV     R0,#?V3
   \   000023   12....       LCALL   ?PUSH_XSTACK_I_ONE
   \   000026   740D         MOV     A,#0xd
   \   000028   12....       LCALL   ?XSTACK_DISP0_8
   \   00002B   12....       LCALL   ?PUSH_XSTACK8_X_TWO
   \   00002E   90....       MOV     DPTR,#ZDO_Config_Node_Descriptor + 2
   \   000031   E0           MOVX    A,@DPTR
   \   000032   F5..         MOV     ?V3,A
   \   000034   78..         MOV     R0,#?V3
   \   000036   12....       LCALL   ?PUSH_XSTACK_I_ONE
   \   000039   A9..         MOV     R1,?V2
   \   00003B   AC..         MOV     R4,?V0
   \   00003D   AD..         MOV     R5,?V1
   \   00003F   EE           MOV     A,R6
   \   000040   FA           MOV     R2,A
   \   000041   EF           MOV     A,R7
   \   000042   FB           MOV     R3,A
   \   000043   12....       LCALL   ??NLME_JoinRequest?relay; Banked call to: NLME_JoinRequest
   \   000046   7404         MOV     A,#0x4
   \   000048   02....       LJMP    ?Subroutine1 & 0xFFFF
   2064          
   2065          }
   2066          
   2067          /*********************************************************************
   2068           * @fn      ZDApp_DeviceConfigured
   2069           *
   2070           * @brief   Check to see if the local device is configured (i.e., part
   2071           *          of a network).
   2072           *
   2073           * @param   none
   2074           *
   2075           * @return  TRUE if configured. FALSE, otherwise.
   2076           */

   \                                 In  segment BANKED_CODE, align 1, keep-with-next
   2077          uint8 ZDApp_DeviceConfigured( void )
   \                     ZDApp_DeviceConfigured:
   2078          {
   \   000000                REQUIRE ?V0
   \   000000                REQUIRE ?V1
   \   000000   74F6         MOV     A,#-0xa
   \   000002   12....       LCALL   ?BANKED_ENTER_XDATA
   \   000005                ; Saved register size: 10
   \   000005                ; Auto size: 2
   \   000005   74FE         MOV     A,#-0x2
   \   000007   12....       LCALL   ?ALLOC_XSTACK8
   2079            uint16 nwkAddr = INVALID_NODE_ADDR;
   \   00000A   85..82       MOV     DPL,?XSP + 0
   \   00000D   85..83       MOV     DPH,?XSP + 1
   \   000010   74FE         MOV     A,#-0x2
   \   000012   F0           MOVX    @DPTR,A
   \   000013   A3           INC     DPTR
   \   000014   04           INC     A
   \   000015   F0           MOVX    @DPTR,A
   2080          
   2081            osal_nv_read( ZCD_NV_NIB, osal_offsetof( nwkIB_t, nwkDevAddress ),
   2082                          sizeof( uint16), &nwkAddr );
   \   000016                ; Setup parameters for call to function osal_nv_read
   \   000016   A8..         MOV     R0,?XSP + 0
   \   000018   A9..         MOV     R1,?XSP + 1
   \   00001A   88..         MOV     ?V0,R0
   \   00001C   89..         MOV     ?V1,R1
   \   00001E   78..         MOV     R0,#?V0
   \   000020   12....       LCALL   ?PUSH_XSTACK_I_TWO
   \   000023   75..02       MOV     ?V0,#0x2
   \   000026   75..00       MOV     ?V1,#0x0
   \   000029   78..         MOV     R0,#?V0
   \   00002B   12....       LCALL   ?PUSH_XSTACK_I_TWO
   \   00002E   7C14         MOV     R4,#0x14
   \   000030   7D00         MOV     R5,#0x0
   \   000032   7A21         MOV     R2,#0x21
   \   000034   7B00         MOV     R3,#0x0
   \   000036   12....       LCALL   ??osal_nv_read?relay ; Banked call to: osal_nv_read
   \   000039   7404         MOV     A,#0x4
   \   00003B   12....       LCALL   ?DEALLOC_XSTACK8
   2083          
   2084            // Does the NIB have anything more than default?
   2085            return ( nwkAddr == INVALID_NODE_ADDR ? FALSE : TRUE );
   \   00003E   85..82       MOV     DPL,?XSP + 0
   \   000041   85..83       MOV     DPH,?XSP + 1
   \   000044   E0           MOVX    A,@DPTR
   \   000045   64FE         XRL     A,#0xfe
   \   000047   7003         JNZ     ??ZDApp_DeviceConfigured_0
   \   000049   A3           INC     DPTR
   \   00004A   E0           MOVX    A,@DPTR
   \   00004B   F4           CPL     A
   \                     ??ZDApp_DeviceConfigured_0:
   \   00004C   7004         JNZ     ??ZDApp_DeviceConfigured_1
   \   00004E   7900         MOV     R1,#0x0
   \   000050   8002         SJMP    ??ZDApp_DeviceConfigured_2
   \                     ??ZDApp_DeviceConfigured_1:
   \   000052   7901         MOV     R1,#0x1
   \                     ??ZDApp_DeviceConfigured_2:
   \   000054                REQUIRE ?Subroutine9
   \   000054                ; // Fall through to label ?Subroutine9
   2086          }
   2087          
   2088          /*********************************************************************
   2089           * CALLBACK FUNCTIONS
   2090           */
   2091          
   2092          
   2093          /*********************************************************************
   2094           * @fn      ZDApp_SendEventMsg()
   2095           *
   2096           * @brief
   2097           *
   2098           *   Sends a Network Join message
   2099           *
   2100           * @param  cmd - command ID
   2101           * @param  len - length (in bytes) of the buf field
   2102           * @param  buf - buffer for the rest of the message.
   2103           *
   2104           * @return  none
   2105           */

   \                                 In  segment BANKED_CODE, align 1, keep-with-next
   2106          void ZDApp_SendEventMsg( uint8 cmd, uint8 len, uint8 *buf )
   \                     ZDApp_SendEventMsg:
   2107          {
   \   000000   74F7         MOV     A,#-0x9
   \   000002   12....       LCALL   ?BANKED_ENTER_XDATA
   \   000005                ; Saved register size: 9
   \   000005                ; Auto size: 0
   \   000005   E9           MOV     A,R1
   \   000006   FE           MOV     R6,A
   \   000007   EA           MOV     A,R2
   2108            ZDApp_SendMsg( ZDAppTaskID, cmd, len, buf );
   \   000008                ; Setup parameters for call to function ZDApp_SendMsg
   \   000008   FB           MOV     R3,A
   \   000009   EE           MOV     A,R6
   \   00000A   FA           MOV     R2,A
   \   00000B   90....       MOV     DPTR,#ZDAppTaskID
   \   00000E   E0           MOVX    A,@DPTR
   \   00000F   F9           MOV     R1,A
   \   000010   12....       LCALL   ??ZDApp_SendMsg?relay; Banked call to: ZDApp_SendMsg
   2109          }
   \   000013   02....       LJMP    ??Subroutine56_0 & 0xFFFF
   2110          
   2111          /*********************************************************************
   2112           * @fn      ZDApp_SendMsg()
   2113           *
   2114           * @brief   Sends a OSAL message
   2115           *
   2116           * @param  taskID - Where to send the message
   2117           * @param  cmd - command ID
   2118           * @param  len - length (in bytes) of the buf field
   2119           * @param  buf - buffer for the rest of the message.
   2120           *
   2121           * @return  none
   2122           */

   \                                 In  segment BANKED_CODE, align 1, keep-with-next
   2123          void ZDApp_SendMsg( uint8 taskID, uint8 cmd, uint8 len, uint8 *buf )
   \                     ZDApp_SendMsg:
   2124          {
   \   000000                REQUIRE ?V0
   \   000000                REQUIRE ?V1
   \   000000                REQUIRE ?V2
   \   000000                REQUIRE ?V3
   \   000000                REQUIRE ?V4
   \   000000                REQUIRE ?V5
   \   000000                REQUIRE ?V6
   \   000000                REQUIRE ?V7
   \   000000   74F0         MOV     A,#-0x10
   \   000002   12....       LCALL   ?BANKED_ENTER_XDATA
   \   000005                ; Saved register size: 16
   \   000005                ; Auto size: 0
   \   000005   89..         MOV     ?V3,R1
   \   000007   8A..         MOV     ?V4,R2
   \   000009   8B..         MOV     ?V5,R3
   \   00000B   8C..         MOV     ?V0,R4
   \   00000D   8D..         MOV     ?V1,R5
   2125            osal_event_hdr_t *msgPtr;
   2126          
   2127            // Send the address to the task
   2128            msgPtr = (osal_event_hdr_t *)osal_msg_allocate( len );
   \   00000F                ; Setup parameters for call to function osal_msg_allocate
   \   00000F   AA..         MOV     R2,?V5
   \   000011   7B00         MOV     R3,#0x0
   \   000013   12....       LCALL   ??osal_msg_allocate?relay; Banked call to: osal_msg_allocate
   \   000016   8A..         MOV     ?V6,R2
   \   000018   8B..         MOV     ?V7,R3
   \   00001A   AE..         MOV     R6,?V6
   \   00001C   AF..         MOV     R7,?V7
   2129            if ( msgPtr )
   \   00001E   EE           MOV     A,R6
   \   00001F   4F           ORL     A,R7
   \   000020   602E         JZ      ??ZDApp_SendMsg_0
   2130            {
   2131              if ( (len > 0) && (buf != NULL) )
   \   000022   E5..         MOV     A,?V5
   \   000024   601A         JZ      ??ZDApp_SendMsg_1
   \   000026   E5..         MOV     A,?V0
   \   000028   45..         ORL     A,?V1
   \   00002A   6014         JZ      ??ZDApp_SendMsg_1
   2132                osal_memcpy( msgPtr, buf, len );
   \   00002C                ; Setup parameters for call to function osal_memcpy
   \   00002C   75..00       MOV     ?V2,#0x0
   \   00002F   78..         MOV     R0,#?V0
   \   000031   12....       LCALL   ?PUSH_XSTACK_I_THREE
   \   000034   AC..         MOV     R4,?V5
   \   000036   7D00         MOV     R5,#0x0
   \   000038   12....       LCALL   ??osal_memcpy?relay  ; Banked call to: osal_memcpy
   \   00003B   7403         MOV     A,#0x3
   \   00003D   12....       LCALL   ?DEALLOC_XSTACK8
   2133          
   2134              msgPtr->event = cmd;
   \                     ??ZDApp_SendMsg_1:
   \   000040   8E82         MOV     DPL,R6
   \   000042   8F83         MOV     DPH,R7
   \   000044   E5..         MOV     A,?V4
   \   000046   F0           MOVX    @DPTR,A
   2135              osal_msg_send( taskID, (uint8 *)msgPtr );
   \   000047                ; Setup parameters for call to function osal_msg_send
   \   000047   EE           MOV     A,R6
   \   000048   FA           MOV     R2,A
   \   000049   EF           MOV     A,R7
   \   00004A   FB           MOV     R3,A
   \   00004B   A9..         MOV     R1,?V3
   \   00004D   12....       LCALL   ??osal_msg_send?relay; Banked call to: osal_msg_send
   2136            }
   2137          }
   \                     ??ZDApp_SendMsg_0:
   \   000050   02....       LJMP    ?Subroutine2 & 0xFFFF
   2138          
   2139          /*********************************************************************
   2140           * Call Back Functions from NWK  - API
   2141           */
   2142          
   2143          /*********************************************************************
   2144           * @fn          ZDO_NetworkDiscoveryConfirmCB
   2145           *
   2146           * @brief       This function returns a choice of PAN to join.
   2147           *
   2148           * @param       status - return status of the nwk discovery confirm
   2149           *
   2150           * @return      ZStatus_t
   2151           */

   \                                 In  segment BANKED_CODE, align 1, keep-with-next
   \                     ?Subroutine4:
   \   000000   12....       LCALL   ?DEALLOC_XSTACK8
   \   000003                REQUIRE ??Subroutine50_0
   \   000003                ; // Fall through to label ??Subroutine50_0

   \                                 In  segment BANKED_CODE, align 1, keep-with-next
   2152          ZStatus_t ZDO_NetworkDiscoveryConfirmCB(uint8 status)
   \                     ZDO_NetworkDiscoveryConfirmCB:
   2153          {
   \   000000   C082         PUSH    DPL
   \   000002   C083         PUSH    DPH
   \   000004                ; Saved register size: 2
   \   000004                ; Auto size: 3
   \   000004   74FD         MOV     A,#-0x3
   \   000006   12....       LCALL   ?ALLOC_XSTACK8
   \   000009   E9           MOV     A,R1
   \   00000A   85..82       MOV     DPL,?XSP + 0
   \   00000D   85..83       MOV     DPH,?XSP + 1
   \   000010   F0           MOVX    @DPTR,A
   2154            osal_event_hdr_t msg;
   2155          
   2156            // If Scan is initiated by ZDO_MGMT_NWK_DISC_REQ
   2157            // Send ZDO_MGMT_NWK_DISC_RSP back
   2158          #if defined ( ZDO_MGMT_NWKDISC_RESPONSE )
   2159            if ( zdappMgmtNwkDiscReqInProgress )
   2160            {
   2161              zdappMgmtNwkDiscReqInProgress = false;
   2162              ZDO_FinishProcessingMgmtNwkDiscReq();
   2163            }
   2164            else
   2165          #endif
   2166            {
   2167              // Pass the confirm to another task if it registers the callback
   2168              // Otherwise, pass the confirm to ZDApp.
   2169              if (zdoCBFunc[ZDO_NWK_DISCOVERY_CNF_CBID] != NULL )
   \   000011   90....       MOV     DPTR,#zdoCBFunc + 4
   \   000014   12....       LCALL   ??Subroutine55_0 & 0xFFFF
   \                     ??CrossCallReturnLabel_90:
   \   000017   6008         JZ      ??ZDO_NetworkDiscoveryConfirmCB_0
   2170              {
   2171                zdoCBFunc[ZDO_NWK_DISCOVERY_CNF_CBID]( (void*)&status );
   \   000019                ; Setup parameters for indirect call
   \   000019   12....       LCALL   ?Subroutine18 & 0xFFFF
   2172              }
   \                     ??CrossCallReturnLabel_112:
   \   00001C   12....       LCALL   ?CALL_IND
   \   00001F   8017         SJMP    ??ZDO_NetworkDiscoveryConfirmCB_1
   2173              else
   2174              {
   2175                // Otherwise, send scan confirm to ZDApp task to proceed
   2176                msg.status = ZDO_SUCCESS;
   \                     ??ZDO_NetworkDiscoveryConfirmCB_0:
   \   000021   7402         MOV     A,#0x2
   \   000023   12....       LCALL   ?XSTACK_DISP0_8
   \   000026   E4           CLR     A
   \   000027   F0           MOVX    @DPTR,A
   2177                ZDApp_SendMsg( ZDAppTaskID, ZDO_NWK_DISC_CNF, sizeof(osal_event_hdr_t), (uint8 *)&msg );
   \   000028                ; Setup parameters for call to function ZDApp_SendMsg
   \   000028   04           INC     A
   \   000029   12....       LCALL   ?XSTACK_DISP102_8
   \   00002C   7B02         MOV     R3,#0x2
   \   00002E   7A01         MOV     R2,#0x1
   \   000030   90....       MOV     DPTR,#ZDAppTaskID
   \   000033   E0           MOVX    A,@DPTR
   \   000034   F9           MOV     R1,A
   \   000035   12....       LCALL   ??ZDApp_SendMsg?relay; Banked call to: ZDApp_SendMsg
   2178              }
   2179            }
   2180            return (ZSuccess);
   \                     ??ZDO_NetworkDiscoveryConfirmCB_1:
   \   000038   7900         MOV     R1,#0x0
   \   00003A   7403         MOV     A,#0x3
   \   00003C   02....       LJMP    ?Subroutine4 & 0xFFFF
   2181          }  // ZDO_NetworkDiscoveryConfirmCB

   \                                 In  segment BANKED_CODE, align 1, keep-with-next
   \                     ?Subroutine18:
   \   000000   AA..         MOV     R2,?XSP + 0
   \   000002   AB..         MOV     R3,?XSP + 1
   \   000004                REQUIRE ??Subroutine57_0
   \   000004                ; // Fall through to label ??Subroutine57_0
   2182          
   2183          /*********************************************************************
   2184           * @fn          ZDApp_NwkDescListProcessing
   2185           *
   2186           * @brief       This function process the network discovery result and select
   2187           *              a parent device to join itself.
   2188           *
   2189           * @param       none
   2190           *
   2191           * @return      ZStatus_t
   2192           */
   2193          #define STACK_PROFILE_MAX 2

   \                                 In  segment BANKED_CODE, align 1, keep-with-next
   2194          networkDesc_t* ZDApp_NwkDescListProcessing(void)
   \                     ZDApp_NwkDescListProcessing:
   2195          {
   \   000000                REQUIRE ?V0
   \   000000                REQUIRE ?V1
   \   000000                REQUIRE ?V2
   \   000000                REQUIRE ?V3
   \   000000                REQUIRE ?V4
   \   000000                REQUIRE ?V5
   \   000000   74F2         MOV     A,#-0xe
   \   000002   12....       LCALL   ?BANKED_ENTER_XDATA
   \   000005                ; Saved register size: 14
   \   000005                ; Auto size: 0
   2196            networkDesc_t *pNwkDesc;
   2197            uint8 i, ResultCount = 0;
   \   000005   75..00       MOV     ?V1,#0x0
   2198            uint8 stackProfile;
   2199            uint8 stackProfilePro;
   2200            uint8 selected;
   2201          
   2202            // Count the number of nwk descriptors in the list
   2203            pNwkDesc = nwk_getNwkDescList();
   \   000008                ; Setup parameters for call to function nwk_getNwkDescList
   \   000008   12....       LCALL   ??nwk_getNwkDescList?relay; Banked call to: nwk_getNwkDescList
   \   00000B   8A..         MOV     ?V2,R2
   \   00000D   8B..         MOV     ?V3,R3
   \   00000F   AE..         MOV     R6,?V2
   \   000011   AF..         MOV     R7,?V3
   \   000013   8005         SJMP    ??CrossCallReturnLabel_83
   2204            while (pNwkDesc)
   2205            {
   2206              ResultCount++;
   \                     ??ZDApp_NwkDescListProcessing_0:
   \   000015   05..         INC     ?V1
   2207              pNwkDesc = pNwkDesc->nextDesc;
   \   000017   12....       LCALL   ?Subroutine25 & 0xFFFF
   2208            }
   \                     ??CrossCallReturnLabel_83:
   \   00001A   EE           MOV     A,R6
   \   00001B   4F           ORL     A,R7
   \   00001C   70F7         JNZ     ??ZDApp_NwkDescListProcessing_0
   2209          
   2210            // process discovery results
   2211            stackProfilePro = FALSE;
   \   00001E   75..00       MOV     ?V0,#0x0
   2212            selected = FALSE;
   2213          
   2214          
   2215            for ( stackProfile = 0; stackProfile < STACK_PROFILE_MAX; stackProfile++ )
   \   000021   75..00       MOV     ?V2,#0x0
   2216            {
   2217              pNwkDesc = nwk_getNwkDescList();
   \                     ??ZDApp_NwkDescListProcessing_1:
   \   000024                ; Setup parameters for call to function nwk_getNwkDescList
   \   000024   12....       LCALL   ??nwk_getNwkDescList?relay; Banked call to: nwk_getNwkDescList
   \   000027   8A..         MOV     ?V4,R2
   \   000029   8B..         MOV     ?V5,R3
   \   00002B   AE..         MOV     R6,?V4
   \   00002D   AF..         MOV     R7,?V5
   2218              for ( i = 0; i < ResultCount; i++, pNwkDesc = pNwkDesc->nextDesc )
   \   00002F   75..00       MOV     ?V3,#0x0
   \   000032   8023         SJMP    ??CrossCallReturnLabel_84
   2219              {
   2220                 if ( nwk_ExtPANIDValid( ZDO_UseExtendedPANID ) == true )
   2221                {
   2222                  // If the extended Pan ID is commissioned to a non zero value
   2223                  // Only join the Pan that has match EPID
   2224                  if ( osal_ExtAddrEqual( ZDO_UseExtendedPANID, pNwkDesc->extendedPANID) == false )
   2225                    continue;
   2226          
   2227                }
   2228                else if ( zgConfigPANID != 0xFFFF )
   2229                {
   2230                  // PAN Id is preconfigured. check if it matches
   2231                  if ( pNwkDesc->panId != zgConfigPANID )
   2232                    continue;
   2233                }
   2234          
   2235                // check that network is allowing joining
   2236                if ( ZSTACK_ROUTER_BUILD )
   2237                {
   2238                  if ( stackProfilePro == FALSE )
   2239                  {
   2240                    if ( !pNwkDesc->routerCapacity )
   2241                    {
   2242                      continue;
   2243                    }
   2244                  }
   2245                  else
   2246                  {
   2247                    if ( !pNwkDesc->deviceCapacity )
   2248                    {
   2249                      continue;
   2250                    }
   2251                  }
   2252                }
   2253                else if ( ZSTACK_END_DEVICE_BUILD )
   2254                {
   2255                  if ( !pNwkDesc->deviceCapacity )
   2256                  {
   2257                    continue;
   2258                  }
   2259                }
   2260          
   2261                // check version of zigbee protocol
   2262                if ( pNwkDesc->version != _NIB.nwkProtocolVersion )
   2263                  continue;
   2264          
   2265                // check version of stack profile
   2266                if ( pNwkDesc->stackProfile != zgStackProfile  )
   2267                {
   2268                  if ( ((zgStackProfile == HOME_CONTROLS) && (pNwkDesc->stackProfile == ZIGBEEPRO_PROFILE))
   2269                      || ((zgStackProfile == ZIGBEEPRO_PROFILE) && (pNwkDesc->stackProfile == HOME_CONTROLS))  )
   \                     ??ZDApp_NwkDescListProcessing_2:
   \   000034   E0           MOVX    A,@DPTR
   \   000035   6402         XRL     A,#0x2
   \   000037   7012         JNZ     ??ZDApp_NwkDescListProcessing_3
   \   000039   8E82         MOV     DPL,R6
   \   00003B   8F83         MOV     DPH,R7
   \   00003D   A3           INC     DPTR
   \   00003E   A3           INC     DPTR
   \   00003F   A3           INC     DPTR
   \   000040   A3           INC     DPTR
   \   000041   A3           INC     DPTR
   \   000042   A3           INC     DPTR
   \   000043   E0           MOVX    A,@DPTR
   \   000044   6401         XRL     A,#0x1
   \   000046   7003         JNZ     ??ZDApp_NwkDescListProcessing_3
   2270                  {
   2271                    stackProfilePro = TRUE;
   \                     ??ZDApp_NwkDescListProcessing_4:
   \   000048   75..01       MOV     ?V0,#0x1
   2272                  }
   2273          
   2274                  if ( stackProfile == 0 )
   \                     ??ZDApp_NwkDescListProcessing_3:
   \   00004B   E5..         MOV     A,?V2
   \   00004D   6003         JZ      $+5
   \   00004F   02....       LJMP    ??ZDApp_NwkDescListProcessing_5 & 0xFFFF
   \                     ??ZDApp_NwkDescListProcessing_6:
   \   000052   05..         INC     ?V3
   \   000054   12....       LCALL   ?Subroutine25 & 0xFFFF
   \                     ??CrossCallReturnLabel_84:
   \   000057   E5..         MOV     A,?V3
   \   000059   C3           CLR     C
   \   00005A   95..         SUBB    A,?V1
   \   00005C   4003         JC      $+5
   \   00005E   02....       LJMP    ??ZDApp_NwkDescListProcessing_7 & 0xFFFF
   \   000061                ; Setup parameters for call to function nwk_ExtPANIDValid
   \   000061   7A..         MOV     R2,#ZDO_UseExtendedPANID & 0xff
   \   000063   7B..         MOV     R3,#(ZDO_UseExtendedPANID >> 8) & 0xff
   \   000065   12....       LCALL   ??nwk_ExtPANIDValid?relay; Banked call to: nwk_ExtPANIDValid
   \   000068   E9           MOV     A,R1
   \   000069   6401         XRL     A,#0x1
   \   00006B   7013         JNZ     ??ZDApp_NwkDescListProcessing_8
   \   00006D                ; Setup parameters for call to function sAddrExtCmp
   \   00006D   EE           MOV     A,R6
   \   00006E   240B         ADD     A,#0xb
   \   000070   FC           MOV     R4,A
   \   000071   E4           CLR     A
   \   000072   3F           ADDC    A,R7
   \   000073   FD           MOV     R5,A
   \   000074   7A..         MOV     R2,#ZDO_UseExtendedPANID & 0xff
   \   000076   7B..         MOV     R3,#(ZDO_UseExtendedPANID >> 8) & 0xff
   \   000078   12....       LCALL   ??sAddrExtCmp?relay  ; Banked call to: sAddrExtCmp
   \   00007B   E9           MOV     A,R1
   \   00007C   701D         JNZ     ??ZDApp_NwkDescListProcessing_9
   \   00007E   80D2         SJMP    ??ZDApp_NwkDescListProcessing_6
   \                     ??ZDApp_NwkDescListProcessing_8:
   \   000080   90....       MOV     DPTR,#zgConfigPANID
   \   000083   E0           MOVX    A,@DPTR
   \   000084   F4           CPL     A
   \   000085   7003         JNZ     ??ZDApp_NwkDescListProcessing_10
   \   000087   A3           INC     DPTR
   \   000088   E0           MOVX    A,@DPTR
   \   000089   F4           CPL     A
   \                     ??ZDApp_NwkDescListProcessing_10:
   \   00008A   600F         JZ      ??ZDApp_NwkDescListProcessing_9
   \   00008C   12....       LCALL   ?Subroutine23 & 0xFFFF
   \                     ??CrossCallReturnLabel_78:
   \   00008F   90....       MOV     DPTR,#zgConfigPANID
   \   000092   E0           MOVX    A,@DPTR
   \   000093   68           XRL     A,R0
   \   000094   7003         JNZ     ??ZDApp_NwkDescListProcessing_11
   \   000096   A3           INC     DPTR
   \   000097   E0           MOVX    A,@DPTR
   \   000098   69           XRL     A,R1
   \                     ??ZDApp_NwkDescListProcessing_11:
   \   000099   70B7         JNZ     ??ZDApp_NwkDescListProcessing_6
   \                     ??ZDApp_NwkDescListProcessing_9:
   \   00009B   E5..         MOV     A,?V0
   \   00009D   8E82         MOV     DPL,R6
   \   00009F   8F83         MOV     DPH,R7
   \   0000A1   A3           INC     DPTR
   \   0000A2   A3           INC     DPTR
   \   0000A3   A3           INC     DPTR
   \   0000A4   7005         JNZ     ??ZDApp_NwkDescListProcessing_12
   \   0000A6   E0           MOVX    A,@DPTR
   \   0000A7   7006         JNZ     ??ZDApp_NwkDescListProcessing_13
   \   0000A9   80A7         SJMP    ??ZDApp_NwkDescListProcessing_6
   \                     ??ZDApp_NwkDescListProcessing_12:
   \   0000AB   A3           INC     DPTR
   \   0000AC   E0           MOVX    A,@DPTR
   \   0000AD   60A3         JZ      ??ZDApp_NwkDescListProcessing_6
   \                     ??ZDApp_NwkDescListProcessing_13:
   \   0000AF   8E82         MOV     DPL,R6
   \   0000B1   8F83         MOV     DPH,R7
   \   0000B3   A3           INC     DPTR
   \   0000B4   A3           INC     DPTR
   \   0000B5   A3           INC     DPTR
   \   0000B6   A3           INC     DPTR
   \   0000B7   A3           INC     DPTR
   \   0000B8   E0           MOVX    A,@DPTR
   \   0000B9   F8           MOV     R0,A
   \   0000BA   90....       MOV     DPTR,#_NIB + 17
   \   0000BD   E0           MOVX    A,@DPTR
   \   0000BE   68           XRL     A,R0
   \   0000BF   7091         JNZ     ??ZDApp_NwkDescListProcessing_6
   \   0000C1   8E82         MOV     DPL,R6
   \   0000C3   8F83         MOV     DPH,R7
   \   0000C5   A3           INC     DPTR
   \   0000C6   A3           INC     DPTR
   \   0000C7   A3           INC     DPTR
   \   0000C8   A3           INC     DPTR
   \   0000C9   A3           INC     DPTR
   \   0000CA   A3           INC     DPTR
   \   0000CB   E0           MOVX    A,@DPTR
   \   0000CC   F8           MOV     R0,A
   \   0000CD   90....       MOV     DPTR,#zgStackProfile
   \   0000D0   E0           MOVX    A,@DPTR
   \   0000D1   68           XRL     A,R0
   \   0000D2   6039         JZ      ??ZDApp_NwkDescListProcessing_5
   \   0000D4   E0           MOVX    A,@DPTR
   \   0000D5   6401         XRL     A,#0x1
   \   0000D7   6003         JZ      $+5
   \   0000D9   02....       LJMP    ??ZDApp_NwkDescListProcessing_2 & 0xFFFF
   \   0000DC   8E82         MOV     DPL,R6
   \   0000DE   8F83         MOV     DPH,R7
   \   0000E0   A3           INC     DPTR
   \   0000E1   A3           INC     DPTR
   \   0000E2   A3           INC     DPTR
   \   0000E3   A3           INC     DPTR
   \   0000E4   A3           INC     DPTR
   \   0000E5   A3           INC     DPTR
   \   0000E6   E0           MOVX    A,@DPTR
   \   0000E7   6402         XRL     A,#0x2
   \   0000E9   6003         JZ      $+5
   \   0000EB   02....       LJMP    ??ZDApp_NwkDescListProcessing_3 & 0xFFFF
   \   0000EE   02....       LJMP    ??ZDApp_NwkDescListProcessing_4 & 0xFFFF
   2275                  {
   2276                    continue;
   2277                  }
   2278                }
   2279          
   2280                break;
   2281              }
   2282          
   2283              if (i < ResultCount)
   2284              {
   2285               selected = TRUE;
   2286                break;
   2287              }
   2288          
   2289              // break if selected or stack profile pro wasn't found
   2290              if ( (selected == TRUE) || (stackProfilePro == FALSE) )
   \                     ??ZDApp_NwkDescListProcessing_7:
   \   0000F1   E5..         MOV     A,?V0
   \   0000F3   600C         JZ      ??ZDApp_NwkDescListProcessing_14
   2291              {
   2292                break;
   2293              }
   2294            }
   \   0000F5   05..         INC     ?V2
   \   0000F7   E5..         MOV     A,?V2
   \   0000F9   C3           CLR     C
   \   0000FA   9402         SUBB    A,#0x2
   \   0000FC   5003         JNC     $+5
   \   0000FE   02....       LJMP    ??ZDApp_NwkDescListProcessing_1 & 0xFFFF
   2295          
   2296            if ( i == ResultCount )
   \                     ??ZDApp_NwkDescListProcessing_14:
   \   000101   E5..         MOV     A,?V1
   \   000103   65..         XRL     A,?V3
   \   000105   7006         JNZ     ??ZDApp_NwkDescListProcessing_5
   2297            {
   2298              return (NULL);   // couldn't find appropriate PAN to join !
   \   000107   7A00         MOV     R2,#0x0
   \   000109   7B00         MOV     R3,#0x0
   \   00010B   8004         SJMP    ??ZDApp_NwkDescListProcessing_15
   2299            }
   2300            else
   2301            {
   2302              return (pNwkDesc);
   \                     ??ZDApp_NwkDescListProcessing_5:
   \   00010D   EE           MOV     A,R6
   \   00010E   FA           MOV     R2,A
   \   00010F   EF           MOV     A,R7
   \   000110   FB           MOV     R3,A
   2303            }
   \                     ??ZDApp_NwkDescListProcessing_15:
   \   000111                REQUIRE ?Subroutine7
   \   000111                ; // Fall through to label ?Subroutine7
   2304          }// ZDApp_NwkDescListProcessing()

   \                                 In  segment BANKED_CODE, align 1, keep-with-next
   \                     ?Subroutine7:
   \   000000   7F06         MOV     R7,#0x6
   \   000002   02....       LJMP    ?BANKED_LEAVE_XDATA

   \                                 In  segment BANKED_CODE, align 1, keep-with-next
   \                     ?Subroutine23:
   \   000000   8E82         MOV     DPL,R6
   \   000002   8F83         MOV     DPH,R7
   \   000004                REQUIRE ??Subroutine53_0
   \   000004                ; // Fall through to label ??Subroutine53_0

   \                                 In  segment BANKED_CODE, align 1, keep-with-next
   \                     ??Subroutine53_0:
   \   000000   E0           MOVX    A,@DPTR
   \   000001   F8           MOV     R0,A
   \   000002   A3           INC     DPTR
   \   000003   E0           MOVX    A,@DPTR
   \   000004   F9           MOV     R1,A
   \   000005   22           RET

   \                                 In  segment BANKED_CODE, align 1, keep-with-next
   \                     ?Subroutine25:
   \   000000   EE           MOV     A,R6
   \   000001   2414         ADD     A,#0x14
   \   000003   F582         MOV     DPL,A
   \   000005   E4           CLR     A
   \   000006   3F           ADDC    A,R7
   \   000007   F583         MOV     DPH,A
   \   000009                REQUIRE ??Subroutine54_0
   \   000009                ; // Fall through to label ??Subroutine54_0

   \                                 In  segment BANKED_CODE, align 1, keep-with-next
   \                     ??Subroutine54_0:
   \   000000   E0           MOVX    A,@DPTR
   \   000001   FE           MOV     R6,A
   \   000002   A3           INC     DPTR
   \   000003   E0           MOVX    A,@DPTR
   \   000004   FF           MOV     R7,A
   \   000005   22           RET
   2305          
   2306          /*********************************************************************
   2307           * @fn          ZDO_NetworkFormationConfirmCB
   2308           *
   2309           * @brief       This function reports the results of the request to
   2310           *              initialize a coordinator in a network.
   2311           *
   2312           * @param       Status - Result of NLME_NetworkFormationRequest()
   2313           *
   2314           * @return      none
   2315           */

   \                                 In  segment BANKED_CODE, align 1, keep-with-next
   2316          void ZDO_NetworkFormationConfirmCB( ZStatus_t Status )
   \                     ZDO_NetworkFormationConfirmCB:
   2317          {
   \   000000   74F7         MOV     A,#-0x9
   \   000002   12....       LCALL   ?BANKED_ENTER_XDATA
   \   000005                ; Saved register size: 9
   \   000005                ; Auto size: 0
   \   000005   E9           MOV     A,R1
   2318            nwkStatus = (byte)Status;
   \   000006   90....       MOV     DPTR,#nwkStatus
   \   000009   F0           MOVX    @DPTR,A
   2319          
   2320            if ( Status == ZSUCCESS )
   \   00000A   7019         JNZ     ??ZDO_NetworkFormationConfirmCB_0
   2321            {
   2322              // LED on shows Coordinator started
   2323              HalLedSet ( HAL_LED_3, HAL_LED_MODE_ON );
   \   00000C                ; Setup parameters for call to function HalLedSet
   \   00000C   7A01         MOV     R2,#0x1
   \   00000E   7904         MOV     R1,#0x4
   \   000010   12....       LCALL   ??HalLedSet?relay    ; Banked call to: HalLedSet
   2324          
   2325              // LED off forgets HOLD_AUTO_START
   2326              HalLedSet (HAL_LED_4, HAL_LED_MODE_OFF);
   \   000013                ; Setup parameters for call to function HalLedSet
   \   000013   7A00         MOV     R2,#0x0
   \   000015   7908         MOV     R1,#0x8
   \   000017   12....       LCALL   ??HalLedSet?relay    ; Banked call to: HalLedSet
   2327          
   2328          #if defined ( ZBIT )
   2329              SIM_SetColor(0xd0ffd0);
   2330          #endif
   2331          
   2332              if ( devState == DEV_HOLD )
   \   00001A   90....       MOV     DPTR,#devState
   \   00001D   E0           MOVX    A,@DPTR
   \   00001E   700C         JNZ     ??ZDO_NetworkFormationConfirmCB_1
   2333              {
   2334                // Began with HOLD_AUTO_START
   2335                devState = DEV_COORD_STARTING;
   \   000020   7408         MOV     A,#0x8
   \   000022   F0           MOVX    @DPTR,A
   \   000023   8007         SJMP    ??ZDO_NetworkFormationConfirmCB_1
   2336              }
   2337            }
   2338          #if defined(BLINK_LEDS)
   2339            else
   2340            {
   2341              HalLedSet ( HAL_LED_3, HAL_LED_MODE_FLASH );  // Flash LED to show failure
   \                     ??ZDO_NetworkFormationConfirmCB_0:
   \   000025                ; Setup parameters for call to function HalLedSet
   \   000025   7A04         MOV     R2,#0x4
   \   000027   7904         MOV     R1,#0x4
   \   000029   12....       LCALL   ??HalLedSet?relay    ; Banked call to: HalLedSet
   2342            }
   2343          #endif
   2344          
   2345            osal_set_event( ZDAppTaskID, ZDO_NETWORK_START );
   \                     ??ZDO_NetworkFormationConfirmCB_1:
   \   00002C                ; Setup parameters for call to function osal_set_event
   \   00002C   7A02         MOV     R2,#0x2
   \   00002E   02....       LJMP    ?Subroutine0 & 0xFFFF
   2346          }

   \                                 In  segment BANKED_CODE, align 1, keep-with-next
   \                     ?Subroutine0:
   \   000000   7B00         MOV     R3,#0x0
   \   000002   90....       MOV     DPTR,#ZDAppTaskID
   \   000005   E0           MOVX    A,@DPTR
   \   000006   F9           MOV     R1,A
   \   000007   12....       LCALL   ??osal_set_event?relay; Banked call to: osal_set_event
   \   00000A                REQUIRE ??Subroutine56_0
   \   00000A                ; // Fall through to label ??Subroutine56_0
   2347          
   2348          /****************************************************************************
   2349           * @fn          ZDApp_beaconIndProcessing
   2350           *
   2351           * @brief       This function processes the incoming beacon indication.
   2352           *
   2353           *              When another task (MT or App) is registered to process
   2354           *              beacon indication themselves, this function will parse the
   2355           *              beacon payload and pass the beacon descriptor to that task
   2356           *              If no other tasks registered, this function will process
   2357           *              the beacon payload and generate the network descriptor link
   2358           *              list.
   2359           *
   2360           * @param
   2361           *
   2362           * @return      none
   2363           *
   2364           */

   \                                 In  segment BANKED_CODE, align 1, keep-with-next
   2365          void ZDO_beaconNotifyIndCB( NLME_beaconInd_t *pBeacon )
   \                     ZDO_beaconNotifyIndCB:
   2366          {
   \   000000                REQUIRE ?V0
   \   000000                REQUIRE ?V1
   \   000000                REQUIRE ?V2
   \   000000                REQUIRE ?V3
   \   000000                REQUIRE ?V4
   \   000000                REQUIRE ?V5
   \   000000   74F2         MOV     A,#-0xe
   \   000002   12....       LCALL   ?BANKED_ENTER_XDATA
   \   000005                ; Saved register size: 14
   \   000005                ; Auto size: 0
   \   000005   8A..         MOV     ?V0,R2
   \   000007   8B..         MOV     ?V1,R3
   2367            // Pass the beacon Indication to another task if it registers the callback
   2368            // Otherwise, process the beacon notification here.
   2369            if (zdoCBFunc[ZDO_BEACON_NOTIFY_IND_CBID] != NULL )
   \   000009   90....       MOV     DPTR,#zdoCBFunc + 6
   \   00000C   12....       LCALL   ??Subroutine55_0 & 0xFFFF
   \                     ??CrossCallReturnLabel_91:
   \   00000F   6009         JZ      ??ZDO_beaconNotifyIndCB_0
   2370            {
   2371              zdoCBFunc[ZDO_BEACON_NOTIFY_IND_CBID]( (void*)pBeacon );
   \   000011                ; Setup parameters for indirect call
   \   000011   12....       LCALL   ??Subroutine57_0 & 0xFFFF
   2372            }
   \                     ??CrossCallReturnLabel_107:
   \   000014   12....       LCALL   ?CALL_IND
   \   000017   02....       LJMP    ??ZDO_beaconNotifyIndCB_1 & 0xFFFF
   2373            else
   2374            {
   2375              networkDesc_t *pNwkDesc;
   2376              networkDesc_t *pLastNwkDesc;
   2377              uint8 found = false;
   2378          
   2379              // Add the network to the Network Descriptor List
   2380              pNwkDesc = NwkDescList;
   \                     ??ZDO_beaconNotifyIndCB_0:
   \   00001A   90....       MOV     DPTR,#NwkDescList
   \   00001D   12....       LCALL   ??Subroutine54_0 & 0xFFFF
   2381              pLastNwkDesc = NwkDescList;
   \                     ??CrossCallReturnLabel_81:
   \   000020   90....       MOV     DPTR,#NwkDescList
   \   000023   E0           MOVX    A,@DPTR
   \   000024   F5..         MOV     ?V2,A
   \   000026   A3           INC     DPTR
   \   000027   E0           MOVX    A,@DPTR
   \   000028   F5..         MOV     ?V3,A
   \   00002A   802D         SJMP    ??CrossCallReturnLabel_85
   2382              while (pNwkDesc)
   2383              {
   2384                if ((pNwkDesc->panId == pBeacon->panID) &&
   2385                    (pNwkDesc->logicalChannel == pBeacon->logicalChannel))
   \                     ??ZDO_beaconNotifyIndCB_2:
   \   00002C   12....       LCALL   ?Subroutine23 & 0xFFFF
   \                     ??CrossCallReturnLabel_79:
   \   00002F   8A82         MOV     DPL,R2
   \   000031   8B83         MOV     DPH,R3
   \   000033   A3           INC     DPTR
   \   000034   A3           INC     DPTR
   \   000035   E0           MOVX    A,@DPTR
   \   000036   68           XRL     A,R0
   \   000037   7003         JNZ     ??ZDO_beaconNotifyIndCB_3
   \   000039   A3           INC     DPTR
   \   00003A   E0           MOVX    A,@DPTR
   \   00003B   69           XRL     A,R1
   \                     ??ZDO_beaconNotifyIndCB_3:
   \   00003C   7014         JNZ     ??ZDO_beaconNotifyIndCB_4
   \   00003E   8E82         MOV     DPL,R6
   \   000040   8F83         MOV     DPH,R7
   \   000042   A3           INC     DPTR
   \   000043   A3           INC     DPTR
   \   000044   E0           MOVX    A,@DPTR
   \   000045   F8           MOV     R0,A
   \   000046   8A82         MOV     DPL,R2
   \   000048   8B83         MOV     DPH,R3
   \   00004A   A3           INC     DPTR
   \   00004B   A3           INC     DPTR
   \   00004C   A3           INC     DPTR
   \   00004D   A3           INC     DPTR
   \   00004E   E0           MOVX    A,@DPTR
   \   00004F   68           XRL     A,R0
   \   000050   6067         JZ      ??ZDO_beaconNotifyIndCB_5
   2386                {
   2387                  found = true;
   2388                  break;
   2389                }
   2390                pLastNwkDesc = pNwkDesc;
   \                     ??ZDO_beaconNotifyIndCB_4:
   \   000052   8E..         MOV     ?V2,R6
   \   000054   8F..         MOV     ?V3,R7
   2391                pNwkDesc = pNwkDesc->nextDesc;
   \   000056   12....       LCALL   ?Subroutine25 & 0xFFFF
   2392              }
   \                     ??CrossCallReturnLabel_85:
   \   000059   EE           MOV     A,R6
   \   00005A   4F           ORL     A,R7
   \   00005B   70CF         JNZ     ??ZDO_beaconNotifyIndCB_2
   2393          
   2394              // If no existing descriptor found, make a new one and add to the list
   2395              if (found == false)
   2396              {
   2397                pNwkDesc = osal_mem_alloc( sizeof(networkDesc_t)  );
   \   00005D                ; Setup parameters for call to function osal_mem_alloc
   \   00005D   7A16         MOV     R2,#0x16
   \   00005F   7B00         MOV     R3,#0x0
   \   000061   12....       LCALL   ??osal_mem_alloc?relay; Banked call to: osal_mem_alloc
   \   000064   8A..         MOV     ?V4,R2
   \   000066   8B..         MOV     ?V5,R3
   \   000068   AE..         MOV     R6,?V4
   \   00006A   AF..         MOV     R7,?V5
   2398                if ( !pNwkDesc )
   \   00006C   EE           MOV     A,R6
   \   00006D   4F           ORL     A,R7
   \   00006E   7003         JNZ     $+5
   \   000070   02....       LJMP    ??ZDO_beaconNotifyIndCB_1 & 0xFFFF
   2399                {
   2400                  // Memory alloc failed, discard this beacon
   2401                  return;
   2402                }
   2403          
   2404                // Clear the network descriptor
   2405                osal_memset( pNwkDesc, 0, sizeof(networkDesc_t)  );
   \   000073                ; Setup parameters for call to function osal_memset
   \   000073   7C16         MOV     R4,#0x16
   \   000075   7D00         MOV     R5,#0x0
   \   000077   7900         MOV     R1,#0x0
   \   000079   12....       LCALL   ??osal_memset?relay  ; Banked call to: osal_memset
   2406          
   2407                // Initialize the descriptor
   2408                pNwkDesc->chosenRouter = INVALID_NODE_ADDR;
   \   00007C   8E82         MOV     DPL,R6
   \   00007E   8F83         MOV     DPH,R7
   \   000080   A3           INC     DPTR
   \   000081   A3           INC     DPTR
   \   000082   A3           INC     DPTR
   \   000083   A3           INC     DPTR
   \   000084   A3           INC     DPTR
   \   000085   A3           INC     DPTR
   \   000086   A3           INC     DPTR
   \   000087   74FE         MOV     A,#-0x2
   \   000089   F0           MOVX    @DPTR,A
   \   00008A   A3           INC     DPTR
   \   00008B   04           INC     A
   \   00008C   F0           MOVX    @DPTR,A
   2409                pNwkDesc->chosenRouterDepth = 0xFF;
   \   00008D   8E82         MOV     DPL,R6
   \   00008F   8F83         MOV     DPH,R7
   \   000091   A3           INC     DPTR
   \   000092   A3           INC     DPTR
   \   000093   A3           INC     DPTR
   \   000094   A3           INC     DPTR
   \   000095   A3           INC     DPTR
   \   000096   A3           INC     DPTR
   \   000097   A3           INC     DPTR
   \   000098   A3           INC     DPTR
   \   000099   A3           INC     DPTR
   \   00009A   A3           INC     DPTR
   \   00009B   F0           MOVX    @DPTR,A
   2410          
   2411                // Save new entry into the descriptor list
   2412                if ( !NwkDescList )
   \   00009C   90....       MOV     DPTR,#NwkDescList
   \   00009F   12....       LCALL   ??Subroutine55_0 & 0xFFFF
   \                     ??CrossCallReturnLabel_92:
   \   0000A2   7005         JNZ     ??ZDO_beaconNotifyIndCB_6
   2413                {
   2414                  NwkDescList = pNwkDesc;
   \   0000A4   90....       MOV     DPTR,#NwkDescList
   \   0000A7   800B         SJMP    ??ZDO_beaconNotifyIndCB_7
   2415                }
   2416                else
   2417                {
   2418                  pLastNwkDesc->nextDesc = pNwkDesc;
   \                     ??ZDO_beaconNotifyIndCB_6:
   \   0000A9   E5..         MOV     A,?V2
   \   0000AB   2414         ADD     A,#0x14
   \   0000AD   F582         MOV     DPL,A
   \   0000AF   E4           CLR     A
   \   0000B0   35..         ADDC    A,?V3
   \   0000B2   F583         MOV     DPH,A
   \                     ??ZDO_beaconNotifyIndCB_7:
   \   0000B4   EE           MOV     A,R6
   \   0000B5   F0           MOVX    @DPTR,A
   \   0000B6   A3           INC     DPTR
   \   0000B7   EF           MOV     A,R7
   \   0000B8   F0           MOVX    @DPTR,A
   2419                }
   2420              }
   2421          
   2422              // Update the descriptor with the incoming beacon
   2423              pNwkDesc->stackProfile   = pBeacon->stackProfile;
   \                     ??ZDO_beaconNotifyIndCB_5:
   \   0000B9   85..82       MOV     DPL,?V0
   \   0000BC   85..83       MOV     DPH,?V1
   \   0000BF   A3           INC     DPTR
   \   0000C0   A3           INC     DPTR
   \   0000C1   A3           INC     DPTR
   \   0000C2   A3           INC     DPTR
   \   0000C3   A3           INC     DPTR
   \   0000C4   A3           INC     DPTR
   \   0000C5   A3           INC     DPTR
   \   0000C6   A3           INC     DPTR
   \   0000C7   A3           INC     DPTR
   \   0000C8   12....       LCALL   ?Subroutine27 & 0xFFFF
   \                     ??CrossCallReturnLabel_21:
   \   0000CB   A3           INC     DPTR
   \   0000CC   F0           MOVX    @DPTR,A
   2424              pNwkDesc->version        = pBeacon->protocolVersion;
   \   0000CD   E5..         MOV     A,?V0
   \   0000CF   2408         ADD     A,#0x8
   \   0000D1   F8           MOV     R0,A
   \   0000D2   E4           CLR     A
   \   0000D3   35..         ADDC    A,?V1
   \   0000D5   F9           MOV     R1,A
   \   0000D6   8882         MOV     DPL,R0
   \   0000D8   8983         MOV     DPH,R1
   \   0000DA   12....       LCALL   ?Subroutine27 & 0xFFFF
   \                     ??CrossCallReturnLabel_22:
   \   0000DD   12....       LCALL   ?Subroutine12 & 0xFFFF
   2425              pNwkDesc->logicalChannel = pBeacon->logicalChannel;
   \                     ??CrossCallReturnLabel_0:
   \   0000E0   E0           MOVX    A,@DPTR
   \   0000E1   8E82         MOV     DPL,R6
   \   0000E3   8F83         MOV     DPH,R7
   \   0000E5   A3           INC     DPTR
   \   0000E6   A3           INC     DPTR
   \   0000E7   F0           MOVX    @DPTR,A
   2426              pNwkDesc->panId          = pBeacon->panID;
   \   0000E8   85..82       MOV     DPL,?V0
   \   0000EB   85..83       MOV     DPH,?V1
   \   0000EE   12....       LCALL   ?Subroutine28 & 0xFFFF
   \                     ??CrossCallReturnLabel_23:
   \   0000F1   12....       LCALL   ??Subroutine46_0 & 0xFFFF
   2427              pNwkDesc->updateId       = pBeacon->updateID;
   \                     ??CrossCallReturnLabel_56:
   \   0000F4   E5..         MOV     A,?V0
   \   0000F6   240C         ADD     A,#0xc
   \   0000F8   F582         MOV     DPL,A
   \   0000FA   E4           CLR     A
   \   0000FB   35..         ADDC    A,?V1
   \   0000FD   F583         MOV     DPH,A
   \   0000FF   E0           MOVX    A,@DPTR
   \   000100   C0E0         PUSH    A
   \   000102   12....       LCALL   ?Subroutine36 & 0xFFFF
   \                     ??CrossCallReturnLabel_40:
   \   000105   D0E0         POP     A
   \   000107   F0           MOVX    @DPTR,A
   2428          
   2429              // Save the extended PAN ID from the beacon payload only if 1.1 version network
   2430              if ( pBeacon->protocolVersion != ZB_PROT_V1_0 )
   \   000108   8882         MOV     DPL,R0
   \   00010A   8983         MOV     DPH,R1
   \   00010C   E0           MOVX    A,@DPTR
   \   00010D   6401         XRL     A,#0x1
   \   00010F   6015         JZ      ??ZDO_beaconNotifyIndCB_8
   2431              {
   2432                osal_cpyExtAddr( pNwkDesc->extendedPANID, pBeacon->extendedPanID );
   \   000111                ; Setup parameters for call to function sAddrExtCpy
   \   000111   E5..         MOV     A,?V0
   \   000113   240D         ADD     A,#0xd
   \   000115   FC           MOV     R4,A
   \   000116   E4           CLR     A
   \   000117   35..         ADDC    A,?V1
   \   000119   FD           MOV     R5,A
   \   00011A   EE           MOV     A,R6
   \   00011B   240B         ADD     A,#0xb
   \   00011D   FA           MOV     R2,A
   \   00011E   E4           CLR     A
   \   00011F   3F           ADDC    A,R7
   \   000120   FB           MOV     R3,A
   \   000121   12....       LCALL   ??sAddrExtCpy?relay  ; Banked call to: sAddrExtCpy
   \   000124   8010         SJMP    ??ZDO_beaconNotifyIndCB_9
   2433              }
   2434              else
   2435              {
   2436                osal_memset( pNwkDesc->extendedPANID, 0xFF, Z_EXTADDR_LEN );
   \                     ??ZDO_beaconNotifyIndCB_8:
   \   000126                ; Setup parameters for call to function osal_memset
   \   000126   7C08         MOV     R4,#0x8
   \   000128   7D00         MOV     R5,#0x0
   \   00012A   79FF         MOV     R1,#-0x1
   \   00012C   EE           MOV     A,R6
   \   00012D   240B         ADD     A,#0xb
   \   00012F   FA           MOV     R2,A
   \   000130   E4           CLR     A
   \   000131   3F           ADDC    A,R7
   \   000132   FB           MOV     R3,A
   \   000133   12....       LCALL   ??osal_memset?relay  ; Banked call to: osal_memset
   2437              }
   2438          
   2439              // check if this device is a better choice to join...
   2440              // ...dont bother checking assocPermit flag is doing a rejoin
   2441              if ( ( pBeacon->LQI > gMIN_TREE_LQI ) &&
   2442                  ( ( pBeacon->permitJoining == TRUE ) || ( _tmpRejoinState ) ) )
   \                     ??ZDO_beaconNotifyIndCB_9:
   \   000136   85..82       MOV     DPL,?V0
   \   000139   85..83       MOV     DPH,?V1
   \   00013C   A3           INC     DPTR
   \   00013D   A3           INC     DPTR
   \   00013E   A3           INC     DPTR
   \   00013F   A3           INC     DPTR
   \   000140   A3           INC     DPTR
   \   000141   A3           INC     DPTR
   \   000142   A3           INC     DPTR
   \   000143   A3           INC     DPTR
   \   000144   A3           INC     DPTR
   \   000145   A3           INC     DPTR
   \   000146   E0           MOVX    A,@DPTR
   \   000147   F8           MOV     R0,A
   \   000148   90....       MOV     DPTR,#gMIN_TREE_LQI
   \   00014B   E0           MOVX    A,@DPTR
   \   00014C   C3           CLR     C
   \   00014D   98           SUBB    A,R0
   \   00014E   4003         JC      $+5
   \   000150   02....       LJMP    ??ZDO_beaconNotifyIndCB_1 & 0xFFFF
   \   000153   85..82       MOV     DPL,?V0
   \   000156   85..83       MOV     DPH,?V1
   \   000159   A3           INC     DPTR
   \   00015A   A3           INC     DPTR
   \   00015B   A3           INC     DPTR
   \   00015C   A3           INC     DPTR
   \   00015D   A3           INC     DPTR
   \   00015E   E0           MOVX    A,@DPTR
   \   00015F   6401         XRL     A,#0x1
   \   000161   6009         JZ      ??ZDO_beaconNotifyIndCB_10
   \   000163   90....       MOV     DPTR,#_tmpRejoinState
   \   000166   E0           MOVX    A,@DPTR
   \   000167   7003         JNZ     $+5
   \   000169   02....       LJMP    ??ZDO_beaconNotifyIndCB_1 & 0xFFFF
   2443              {
   2444                uint8 selected = FALSE;
   2445                uint8 capacity = FALSE;
   2446          
   2447                if ( _NIB.nwkAddrAlloc == NWK_ADDRESSING_STOCHASTIC )
   \                     ??ZDO_beaconNotifyIndCB_10:
   \   00016C   90....       MOV     DPTR,#_NIB + 96
   \   00016F   E0           MOVX    A,@DPTR
   \   000170   6402         XRL     A,#0x2
   \   000172   702C         JNZ     ??ZDO_beaconNotifyIndCB_11
   2448                {
   2449                  if ( ((pBeacon->LQI   > pNwkDesc->chosenRouterLinkQuality) &&
   2450                        (pBeacon->depth < MAX_NODE_DEPTH)) ||
   2451                      ((pBeacon->LQI   == pNwkDesc->chosenRouterLinkQuality) &&
   2452                       (pBeacon->depth < pNwkDesc->chosenRouterDepth)) )
   \   000174   8E82         MOV     DPL,R6
   \   000176   8F83         MOV     DPH,R7
   \   000178   A3           INC     DPTR
   \   000179   A3           INC     DPTR
   \   00017A   A3           INC     DPTR
   \   00017B   A3           INC     DPTR
   \   00017C   A3           INC     DPTR
   \   00017D   A3           INC     DPTR
   \   00017E   A3           INC     DPTR
   \   00017F   A3           INC     DPTR
   \   000180   A3           INC     DPTR
   \   000181   E0           MOVX    A,@DPTR
   \   000182   C3           CLR     C
   \   000183   98           SUBB    A,R0
   \   000184   5009         JNC     ??ZDO_beaconNotifyIndCB_12
   \   000186   12....       LCALL   ?Subroutine34 & 0xFFFF
   2453                  {
   2454                    selected = TRUE;
   2455                  }
   2456                }
   \                     ??CrossCallReturnLabel_34:
   \   000189   9414         SUBB    A,#0x14
   \   00018B   4029         JC      ??ZDO_beaconNotifyIndCB_13
   \   00018D   8058         SJMP    ??ZDO_beaconNotifyIndCB_14
   \                     ??ZDO_beaconNotifyIndCB_12:
   \   00018F   8E82         MOV     DPL,R6
   \   000191   8F83         MOV     DPH,R7
   \   000193   A3           INC     DPTR
   \   000194   A3           INC     DPTR
   \   000195   A3           INC     DPTR
   \   000196   A3           INC     DPTR
   \   000197   A3           INC     DPTR
   \   000198   A3           INC     DPTR
   \   000199   A3           INC     DPTR
   \   00019A   A3           INC     DPTR
   \   00019B   A3           INC     DPTR
   \   00019C   E0           MOVX    A,@DPTR
   \   00019D   68           XRL     A,R0
   \   00019E   7047         JNZ     ??ZDO_beaconNotifyIndCB_14
   2457                else
   2458                {
   2459                  if ( pBeacon->depth < pNwkDesc->chosenRouterDepth )
   \                     ??ZDO_beaconNotifyIndCB_11:
   \   0001A0   8E82         MOV     DPL,R6
   \   0001A2   8F83         MOV     DPH,R7
   \   0001A4   A3           INC     DPTR
   \   0001A5   A3           INC     DPTR
   \   0001A6   A3           INC     DPTR
   \   0001A7   A3           INC     DPTR
   \   0001A8   A3           INC     DPTR
   \   0001A9   A3           INC     DPTR
   \   0001AA   A3           INC     DPTR
   \   0001AB   A3           INC     DPTR
   \   0001AC   A3           INC     DPTR
   \   0001AD   A3           INC     DPTR
   \   0001AE   E0           MOVX    A,@DPTR
   \   0001AF   F8           MOV     R0,A
   \   0001B0   12....       LCALL   ?Subroutine34 & 0xFFFF
   \                     ??CrossCallReturnLabel_35:
   \   0001B3   98           SUBB    A,R0
   \   0001B4   5031         JNC     ??ZDO_beaconNotifyIndCB_14
   2460                  {
   2461                    selected = TRUE;
   2462                  }
   2463                }
   2464          
   2465                if ( ZSTACK_ROUTER_BUILD )
   2466                {
   2467                  capacity = pBeacon->routerCapacity;
   2468                }
   2469                else if ( ZSTACK_END_DEVICE_BUILD )
   2470                {
   2471                  capacity = pBeacon->deviceCapacity;
   2472                }
   2473          
   2474                if ( (capacity) && (selected) )
   \                     ??ZDO_beaconNotifyIndCB_13:
   \   0001B6   85..82       MOV     DPL,?V0
   \   0001B9   85..83       MOV     DPH,?V1
   \   0001BC   A3           INC     DPTR
   \   0001BD   A3           INC     DPTR
   \   0001BE   A3           INC     DPTR
   \   0001BF   A3           INC     DPTR
   \   0001C0   A3           INC     DPTR
   \   0001C1   A3           INC     DPTR
   \   0001C2   E0           MOVX    A,@DPTR
   \   0001C3   6022         JZ      ??ZDO_beaconNotifyIndCB_14
   2475                {
   2476                  // this is the new chosen router for joining...
   2477                  pNwkDesc->chosenRouter            = pBeacon->sourceAddr;
   \   0001C5   85..82       MOV     DPL,?V0
   \   0001C8   85..83       MOV     DPH,?V1
   \   0001CB   12....       LCALL   ?Subroutine21 & 0xFFFF
   \                     ??CrossCallReturnLabel_10:
   \   0001CE   E8           MOV     A,R0
   \   0001CF   F0           MOVX    @DPTR,A
   \   0001D0   A3           INC     DPTR
   \   0001D1   E9           MOV     A,R1
   \   0001D2   12....       LCALL   ?Subroutine12 & 0xFFFF
   2478                  pNwkDesc->chosenRouterLinkQuality = pBeacon->LQI;
   \                     ??CrossCallReturnLabel_1:
   \   0001D5   A3           INC     DPTR
   \   0001D6   A3           INC     DPTR
   \   0001D7   A3           INC     DPTR
   \   0001D8   A3           INC     DPTR
   \   0001D9   A3           INC     DPTR
   \   0001DA   A3           INC     DPTR
   \   0001DB   12....       LCALL   ?Subroutine22 & 0xFFFF
   \                     ??CrossCallReturnLabel_12:
   \   0001DE   F0           MOVX    @DPTR,A
   2479                  pNwkDesc->chosenRouterDepth       = pBeacon->depth;
   \   0001DF   12....       LCALL   ?Subroutine42 & 0xFFFF
   2480                }
   \                     ??CrossCallReturnLabel_50:
   \   0001E2   12....       LCALL   ?Subroutine22 & 0xFFFF
   \                     ??CrossCallReturnLabel_13:
   \   0001E5   A3           INC     DPTR
   \   0001E6   F0           MOVX    @DPTR,A
   2481          
   2482                if ( pBeacon->deviceCapacity )
   \                     ??ZDO_beaconNotifyIndCB_14:
   \   0001E7   85..82       MOV     DPL,?V0
   \   0001EA   85..83       MOV     DPH,?V1
   \   0001ED   A3           INC     DPTR
   \   0001EE   A3           INC     DPTR
   \   0001EF   A3           INC     DPTR
   \   0001F0   A3           INC     DPTR
   \   0001F1   A3           INC     DPTR
   \   0001F2   A3           INC     DPTR
   \   0001F3   A3           INC     DPTR
   \   0001F4   E0           MOVX    A,@DPTR
   \   0001F5   600B         JZ      ??ZDO_beaconNotifyIndCB_15
   2483                  pNwkDesc->deviceCapacity = 1;
   \   0001F7   8E82         MOV     DPL,R6
   \   0001F9   8F83         MOV     DPH,R7
   \   0001FB   A3           INC     DPTR
   \   0001FC   A3           INC     DPTR
   \   0001FD   A3           INC     DPTR
   \   0001FE   A3           INC     DPTR
   \   0001FF   7401         MOV     A,#0x1
   \   000201   F0           MOVX    @DPTR,A
   2484          
   2485                if ( pBeacon->routerCapacity )
   \                     ??ZDO_beaconNotifyIndCB_15:
   \   000202   85..82       MOV     DPL,?V0
   \   000205   85..83       MOV     DPH,?V1
   \   000208   A3           INC     DPTR
   \   000209   A3           INC     DPTR
   \   00020A   A3           INC     DPTR
   \   00020B   A3           INC     DPTR
   \   00020C   A3           INC     DPTR
   \   00020D   A3           INC     DPTR
   \   00020E   E0           MOVX    A,@DPTR
   \   00020F   600A         JZ      ??ZDO_beaconNotifyIndCB_1
   2486                  pNwkDesc->routerCapacity = 1;
   \   000211   8E82         MOV     DPL,R6
   \   000213   8F83         MOV     DPH,R7
   \   000215   A3           INC     DPTR
   \   000216   A3           INC     DPTR
   \   000217   A3           INC     DPTR
   \   000218   7401         MOV     A,#0x1
   \   00021A   F0           MOVX    @DPTR,A
   2487              }
   2488            }
   2489          }
   \                     ??ZDO_beaconNotifyIndCB_1:
   \   00021B   02....       LJMP    ?Subroutine7 & 0xFFFF

   \                                 In  segment BANKED_CODE, align 1, keep-with-next
   \                     ?Subroutine34:
   \   000000   12....       LCALL   ?Subroutine42 & 0xFFFF
   \                     ??CrossCallReturnLabel_51:
   \   000003   E0           MOVX    A,@DPTR
   \   000004   C3           CLR     C
   \   000005   22           RET

   \                                 In  segment BANKED_CODE, align 1, keep-with-next
   \                     ?Subroutine42:
   \   000000   E5..         MOV     A,?V0
   \   000002   240B         ADD     A,#0xb
   \   000004   F582         MOV     DPL,A
   \   000006   E4           CLR     A
   \   000007   35..         ADDC    A,?V1
   \   000009   F583         MOV     DPH,A
   \   00000B   22           RET

   \                                 In  segment BANKED_CODE, align 1, keep-with-next
   \                     ?Subroutine27:
   \   000000   12....       LCALL   ?Subroutine39 & 0xFFFF
   \                     ??CrossCallReturnLabel_47:
   \   000003   22           RET

   \                                 In  segment BANKED_CODE, align 1, keep-with-next
   \                     ?Subroutine39:
   \   000000   E0           MOVX    A,@DPTR
   \   000001   8E82         MOV     DPL,R6
   \   000003   8F83         MOV     DPH,R7
   \   000005   A3           INC     DPTR
   \   000006   A3           INC     DPTR
   \   000007   A3           INC     DPTR
   \   000008   A3           INC     DPTR
   \   000009   A3           INC     DPTR
   \   00000A   22           RET

   \                                 In  segment BANKED_CODE, align 1, keep-with-next
   \                     ?Subroutine22:
   \   000000   12....       LCALL   ?Subroutine39 & 0xFFFF
   \                     ??CrossCallReturnLabel_46:
   \   000003   A3           INC     DPTR
   \   000004   A3           INC     DPTR
   \   000005   A3           INC     DPTR
   \   000006   A3           INC     DPTR
   \   000007   22           RET

   \                                 In  segment BANKED_CODE, align 1, keep-with-next
   \                     ?Subroutine12:
   \   000000   F0           MOVX    @DPTR,A
   \   000001   85..82       MOV     DPL,?V0
   \   000004   85..83       MOV     DPH,?V1
   \   000007   A3           INC     DPTR
   \   000008   A3           INC     DPTR
   \   000009   A3           INC     DPTR
   \   00000A   A3           INC     DPTR
   \   00000B   22           RET

   \                                 In  segment BANKED_CODE, align 1, keep-with-next
   \                     ?Subroutine21:
   \   000000   E0           MOVX    A,@DPTR
   \   000001   F8           MOV     R0,A
   \   000002   A3           INC     DPTR
   \   000003   E0           MOVX    A,@DPTR
   \   000004   F9           MOV     R1,A
   \   000005   8E82         MOV     DPL,R6
   \   000007   8F83         MOV     DPH,R7
   \   000009   A3           INC     DPTR
   \   00000A   A3           INC     DPTR
   \   00000B   A3           INC     DPTR
   \   00000C   A3           INC     DPTR
   \   00000D   A3           INC     DPTR
   \   00000E   A3           INC     DPTR
   \   00000F   A3           INC     DPTR
   \   000010   22           RET

   \                                 In  segment BANKED_CODE, align 1, keep-with-next
   \                     ?Subroutine28:
   \   000000   A3           INC     DPTR
   \   000001   A3           INC     DPTR
   \   000002   E0           MOVX    A,@DPTR
   \   000003   FA           MOV     R2,A
   \   000004   A3           INC     DPTR
   \   000005   E0           MOVX    A,@DPTR
   \   000006   FB           MOV     R3,A
   \   000007   8E82         MOV     DPL,R6
   \   000009   8F83         MOV     DPH,R7
   \   00000B   22           RET
   2490          
   2491          /*********************************************************************
   2492           * @fn          ZDO_StartRouterConfirmCB
   2493           *
   2494           * @brief       This function reports the results of the request to
   2495           *              start functioning as a router in a network.
   2496           *
   2497           * @param       Status - Result of NLME_StartRouterRequest()
   2498           *
   2499           * @return      none
   2500           */

   \                                 In  segment BANKED_CODE, align 1, keep-with-next
   2501          void ZDO_StartRouterConfirmCB( ZStatus_t Status )
   \                     ZDO_StartRouterConfirmCB:
   2502          {
   \   000000   74F7         MOV     A,#-0x9
   \   000002   12....       LCALL   ?BANKED_ENTER_XDATA
   \   000005                ; Saved register size: 9
   \   000005                ; Auto size: 0
   \   000005   E9           MOV     A,R1
   2503            nwkStatus = (byte)Status;
   \   000006   90....       MOV     DPTR,#nwkStatus
   \   000009   F0           MOVX    @DPTR,A
   2504          
   2505            if ( Status == ZSUCCESS )
   \   00000A   7019         JNZ     ??ZDO_StartRouterConfirmCB_0
   2506            {
   2507              // LED on shows Router started
   2508              HalLedSet ( HAL_LED_3, HAL_LED_MODE_ON );
   \   00000C                ; Setup parameters for call to function HalLedSet
   \   00000C   7A01         MOV     R2,#0x1
   \   00000E   7904         MOV     R1,#0x4
   \   000010   12....       LCALL   ??HalLedSet?relay    ; Banked call to: HalLedSet
   2509              // LED off forgets HOLD_AUTO_START
   2510              HalLedSet ( HAL_LED_4, HAL_LED_MODE_OFF);
   \   000013                ; Setup parameters for call to function HalLedSet
   \   000013   7A00         MOV     R2,#0x0
   \   000015   7908         MOV     R1,#0x8
   \   000017   12....       LCALL   ??HalLedSet?relay    ; Banked call to: HalLedSet
   2511              if ( devState == DEV_HOLD )
   \   00001A   90....       MOV     DPTR,#devState
   \   00001D   E0           MOVX    A,@DPTR
   \   00001E   700C         JNZ     ??ZDO_StartRouterConfirmCB_1
   2512              {
   2513                // Began with HOLD_AUTO_START
   2514                devState = DEV_END_DEVICE;
   \   000020   7406         MOV     A,#0x6
   \   000022   F0           MOVX    @DPTR,A
   \   000023   8007         SJMP    ??ZDO_StartRouterConfirmCB_1
   2515              }
   2516            }
   2517          #if defined(BLINK_LEDS)
   2518            else
   2519            {
   2520              HalLedSet( HAL_LED_3, HAL_LED_MODE_FLASH );  // Flash LED to show failure
   \                     ??ZDO_StartRouterConfirmCB_0:
   \   000025                ; Setup parameters for call to function HalLedSet
   \   000025   7A04         MOV     R2,#0x4
   \   000027   7904         MOV     R1,#0x4
   \   000029   12....       LCALL   ??HalLedSet?relay    ; Banked call to: HalLedSet
   2521            }
   2522          #endif
   2523          
   2524            osal_set_event( ZDAppTaskID, ZDO_ROUTER_START );
   \                     ??ZDO_StartRouterConfirmCB_1:
   \   00002C                ; Setup parameters for call to function osal_set_event
   \   00002C   7A20         MOV     R2,#0x20
   \   00002E   02....       LJMP    ?Subroutine0 & 0xFFFF
   2525          }
   2526          
   2527          /*********************************************************************
   2528           * @fn          ZDO_JoinConfirmCB
   2529           *
   2530           * @brief       This function allows the next higher layer to be notified
   2531           *              of the results of its request to join itself or another
   2532           *              device to a network.
   2533           *
   2534           * @param       Status - Result of NLME_JoinRequest()
   2535           *
   2536           * @return      none
   2537           */

   \                                 In  segment BANKED_CODE, align 1, keep-with-next
   2538          void ZDO_JoinConfirmCB( uint16 PanId, ZStatus_t Status )
   \                     ZDO_JoinConfirmCB:
   2539          {
   \   000000                REQUIRE ?V0
   \   000000                REQUIRE ?V2
   \   000000                REQUIRE ?V3
   \   000000   74F4         MOV     A,#-0xc
   \   000002   12....       LCALL   ?BANKED_ENTER_XDATA
   \   000005                ; Saved register size: 12
   \   000005                ; Auto size: 5
   \   000005   74FB         MOV     A,#-0x5
   \   000007   12....       LCALL   ?ALLOC_XSTACK8
   \   00000A   89..         MOV     ?V0,R1
   2540            (void)PanId;  // remove if this parameter is used.
   2541          
   2542            nwkStatus = (byte)Status;
   \   00000C   E9           MOV     A,R1
   \   00000D   90....       MOV     DPTR,#nwkStatus
   \   000010   F0           MOVX    @DPTR,A
   2543          
   2544            if ( Status == ZSUCCESS )
   \   000011   6003         JZ      $+5
   \   000013   02....       LJMP    ??ZDO_JoinConfirmCB_0 & 0xFFFF
   2545            {
   2546              if ( ZSTACK_END_DEVICE_BUILD
   2547                || (ZSTACK_ROUTER_BUILD && ((_NIB.CapabilityFlags & ZMAC_ASSOC_CAPINFO_FFD_TYPE) == 0)))
   \   000016   90....       MOV     DPTR,#_NIB + 14
   \   000019   E0           MOVX    A,@DPTR
   \   00001A   A2E1         MOV     C,0xE0 /* A   */.1
   \   00001C   4079         JC      ??ZDO_JoinConfirmCB_1
   2548              {
   2549                neighborEntry_t *pItem;
   2550           
   2551                // We don't need the neighbor table entries.  
   2552                // Clear the neighbor Table to remove beacon information
   2553                nwkNeighborInitTable();
   \   00001E                ; Setup parameters for call to function nwkNeighborInitTable
   \   00001E   12....       LCALL   ??nwkNeighborInitTable?relay; Banked call to: nwkNeighborInitTable
   2554           
   2555                // Force a neighbor table entry for the parent
   2556                pItem = nwkNeighborFindEmptySlot();
   \   000021                ; Setup parameters for call to function nwkNeighborFindEmptySlot
   \   000021   12....       LCALL   ??nwkNeighborFindEmptySlot?relay; Banked call to: nwkNeighborFindEmptySlot
   \   000024   8A..         MOV     ?V2,R2
   \   000026   8B..         MOV     ?V3,R3
   \   000028   AE..         MOV     R6,?V2
   \   00002A   AF..         MOV     R7,?V3
   2557                if ( pItem != NULL )
   \   00002C   EE           MOV     A,R6
   \   00002D   4F           ORL     A,R7
   \   00002E   6067         JZ      ??ZDO_JoinConfirmCB_1
   2558                {
   2559                  osal_memset( pItem, 0x00, sizeof ( neighborEntry_t  )  );
   \   000030                ; Setup parameters for call to function osal_memset
   \   000030   7C17         MOV     R4,#0x17
   \   000032   7D00         MOV     R5,#0x0
   \   000034   7900         MOV     R1,#0x0
   \   000036   12....       LCALL   ??osal_memset?relay  ; Banked call to: osal_memset
   2560                  pItem->neighborAddress = _NIB.nwkCoordAddress;
   \   000039   90....       MOV     DPTR,#_NIB + 23
   \   00003C   12....       LCALL   ??Subroutine53_0 & 0xFFFF
   \                     ??CrossCallReturnLabel_75:
   \   00003F   8E82         MOV     DPL,R6
   \   000041   8F83         MOV     DPH,R7
   \   000043   E8           MOV     A,R0
   \   000044   F0           MOVX    @DPTR,A
   \   000045   A3           INC     DPTR
   \   000046   E9           MOV     A,R1
   \   000047   F0           MOVX    @DPTR,A
   2561                  osal_cpyExtAddr( pItem ->neighborExtAddr, _NIB. nwkCoordExtAddress );
   \   000048                ; Setup parameters for call to function sAddrExtCpy
   \   000048   7C..         MOV     R4,#(_NIB + 25) & 0xff
   \   00004A   7D..         MOV     R5,#((_NIB + 25) >> 8) & 0xff
   \   00004C   12....       LCALL   ?Subroutine35 & 0xFFFF
   \                     ??CrossCallReturnLabel_36:
   \   00004F   12....       LCALL   ??sAddrExtCpy?relay  ; Banked call to: sAddrExtCpy
   2562                  pItem->panId = _NIB. nwkPanId;
   \   000052   90....       MOV     DPTR,#_NIB + 33
   \   000055   12....       LCALL   ?Subroutine21 & 0xFFFF
   \                     ??CrossCallReturnLabel_11:
   \   000058   A3           INC     DPTR
   \   000059   A3           INC     DPTR
   \   00005A   A3           INC     DPTR
   \   00005B   E8           MOV     A,R0
   \   00005C   F0           MOVX    @DPTR,A
   \   00005D   A3           INC     DPTR
   \   00005E   E9           MOV     A,R1
   \   00005F   F0           MOVX    @DPTR,A
   2563                  pItem->linkInfo.rxLqi = DEF_LQI;
   \   000060   EE           MOV     A,R6
   \   000061   240F         ADD     A,#0xf
   \   000063   F582         MOV     DPL,A
   \   000065   E4           CLR     A
   \   000066   3F           ADDC    A,R7
   \   000067   F583         MOV     DPH,A
   \   000069   74AA         MOV     A,#-0x56
   \   00006B   F0           MOVX    @DPTR,A
   2564                  pItem->linkInfo.txCounter = DEF_LINK_COUNTER;
   \   00006C   90....       MOV     DPTR,#gLINK_DOWN_TRIGGER
   \   00006F   E4           CLR     A
   \   000070   93           MOVC    A,@A+DPTR
   \   000071   7900         MOV     R1,#0x0
   \   000073   2401         ADD     A,#0x1
   \   000075   F8           MOV     R0,A
   \   000076   5001         JNC     ??ZDO_JoinConfirmCB_2
   \   000078   09           INC     R1
   \                     ??ZDO_JoinConfirmCB_2:
   \   000079   7A02         MOV     R2,#0x2
   \   00007B   7B00         MOV     R3,#0x0
   \   00007D   12....       LCALL   ?S_DIV_MOD
   \   000080   EE           MOV     A,R6
   \   000081   240D         ADD     A,#0xd
   \   000083   F582         MOV     DPL,A
   \   000085   E4           CLR     A
   \   000086   3F           ADDC    A,R7
   \   000087   F583         MOV     DPH,A
   \   000089   E8           MOV     A,R0
   \   00008A   F0           MOVX    @DPTR,A
   2565                  pItem->linkInfo.txCost = DEF_LINK_COST;
   \   00008B   EE           MOV     A,R6
   \   00008C   240E         ADD     A,#0xe
   \   00008E   F582         MOV     DPL,A
   \   000090   E4           CLR     A
   \   000091   3F           ADDC    A,R7
   \   000092   F583         MOV     DPH,A
   \   000094   7401         MOV     A,#0x1
   \   000096   F0           MOVX    @DPTR,A
   2566                }
   2567              }
   2568              
   2569              // LED on shows device joined
   2570              HalLedSet ( HAL_LED_3, HAL_LED_MODE_ON );
   \                     ??ZDO_JoinConfirmCB_1:
   \   000097                ; Setup parameters for call to function HalLedSet
   \   000097   7A01         MOV     R2,#0x1
   \   000099   7904         MOV     R1,#0x4
   \   00009B   12....       LCALL   ??HalLedSet?relay    ; Banked call to: HalLedSet
   2571              // LED off forgets HOLD_AUTO_START
   2572              HalLedSet ( HAL_LED_4, HAL_LED_MODE_OFF);
   \   00009E                ; Setup parameters for call to function HalLedSet
   \   00009E   7A00         MOV     R2,#0x0
   \   0000A0   7908         MOV     R1,#0x8
   \   0000A2   12....       LCALL   ??HalLedSet?relay    ; Banked call to: HalLedSet
   2573              if ( (devState == DEV_HOLD) )
   \   0000A5   90....       MOV     DPTR,#devState
   \   0000A8   E0           MOVX    A,@DPTR
   \   0000A9   700C         JNZ     ??ZDO_JoinConfirmCB_3
   2574              {
   2575                // Began with HOLD_AUTO_START
   2576                devState = DEV_NWK_JOINING;
   \   0000AB   7403         MOV     A,#0x3
   \   0000AD   F0           MOVX    @DPTR,A
   \   0000AE   8007         SJMP    ??ZDO_JoinConfirmCB_3
   2577              }
   2578          
   2579              if ( !ZG_SECURE_ENABLED )
   2580              {
   2581                // Notify to save info into NV
   2582                ZDApp_NVUpdate();
   2583              }
   2584            }
   2585            else
   2586            {
   2587          #if defined(BLINK_LEDS)
   2588              HalLedSet ( HAL_LED_3, HAL_LED_MODE_FLASH );  // Flash LED to show failure
   \                     ??ZDO_JoinConfirmCB_0:
   \   0000B0                ; Setup parameters for call to function HalLedSet
   \   0000B0   7A04         MOV     R2,#0x4
   \   0000B2   7904         MOV     R1,#0x4
   \   0000B4   12....       LCALL   ??HalLedSet?relay    ; Banked call to: HalLedSet
   2589          #endif
   2590            }
   2591          
   2592            // Pass the join confirm to higher layer if callback registered
   2593            if (zdoCBFunc[ZDO_JOIN_CNF_CBID] != NULL )
   \                     ??ZDO_JoinConfirmCB_3:
   \   0000B7   90....       MOV     DPTR,#zdoCBFunc + 8
   \   0000BA   12....       LCALL   ??Subroutine55_0 & 0xFFFF
   \                     ??CrossCallReturnLabel_93:
   \   0000BD   6037         JZ      ??ZDO_JoinConfirmCB_4
   2594            {
   2595              zdoJoinCnf_t joinCnf;
   2596          
   2597              joinCnf.status = Status;
   \   0000BF   85..82       MOV     DPL,?XSP + 0
   \   0000C2   85..83       MOV     DPH,?XSP + 1
   \   0000C5   E5..         MOV     A,?V0
   \   0000C7   F0           MOVX    @DPTR,A
   2598              joinCnf.deviceAddr = _NIB.nwkDevAddress;
   \   0000C8   90....       MOV     DPTR,#_NIB + 20
   \   0000CB   12....       LCALL   ??Subroutine53_0 & 0xFFFF
   \                     ??CrossCallReturnLabel_76:
   \   0000CE   7401         MOV     A,#0x1
   \   0000D0   12....       LCALL   ?XSTACK_DISP0_8
   \   0000D3   E8           MOV     A,R0
   \   0000D4   F0           MOVX    @DPTR,A
   \   0000D5   A3           INC     DPTR
   \   0000D6   E9           MOV     A,R1
   \   0000D7   F0           MOVX    @DPTR,A
   2599              joinCnf.parentAddr = _NIB.nwkCoordAddress;
   \   0000D8   90....       MOV     DPTR,#_NIB + 23
   \   0000DB   12....       LCALL   ??Subroutine53_0 & 0xFFFF
   2600          
   2601              zdoCBFunc[ZDO_JOIN_CNF_CBID]( (void*)&joinCnf );
   2602            }
   \                     ??CrossCallReturnLabel_77:
   \   0000DE   7403         MOV     A,#0x3
   \   0000E0   12....       LCALL   ?XSTACK_DISP0_8
   \   0000E3   E8           MOV     A,R0
   \   0000E4   F0           MOVX    @DPTR,A
   \   0000E5   A3           INC     DPTR
   \   0000E6   E9           MOV     A,R1
   \   0000E7   12....       LCALL   ?Subroutine13 & 0xFFFF
   \                     ??CrossCallReturnLabel_4:
   \   0000EA   90....       MOV     DPTR,#zdoCBFunc + 8
   \   0000ED   E0           MOVX    A,@DPTR
   \   0000EE   F8           MOV     R0,A
   \   0000EF   A3           INC     DPTR
   \   0000F0   12....       LCALL   ??Subroutine57_0 & 0xFFFF
   \                     ??CrossCallReturnLabel_108:
   \   0000F3   12....       LCALL   ?CALL_IND
   2603          
   2604            // Notify ZDApp
   2605            ZDApp_SendMsg( ZDAppTaskID, ZDO_NWK_JOIN_IND, sizeof(osal_event_hdr_t), (byte*)NULL );
   \                     ??ZDO_JoinConfirmCB_4:
   \   0000F6                ; Setup parameters for call to function ZDApp_SendMsg
   \   0000F6   7C00         MOV     R4,#0x0
   \   0000F8   7D00         MOV     R5,#0x0
   \   0000FA   7B02         MOV     R3,#0x2
   \   0000FC   7A02         MOV     R2,#0x2
   \   0000FE   90....       MOV     DPTR,#ZDAppTaskID
   \   000101   E0           MOVX    A,@DPTR
   \   000102   F9           MOV     R1,A
   \   000103   12....       LCALL   ??ZDApp_SendMsg?relay; Banked call to: ZDApp_SendMsg
   2606          
   2607          }
   \   000106   7405         MOV     A,#0x5
   \   000108   02....       LJMP    ?Subroutine1 & 0xFFFF

   \                                 In  segment BANKED_CODE, align 1, keep-with-next
   \                     ?Subroutine35:
   \   000000   EE           MOV     A,R6
   \   000001   2402         ADD     A,#0x2
   \   000003   FA           MOV     R2,A
   \   000004   E4           CLR     A
   \   000005   3F           ADDC    A,R7
   \   000006   FB           MOV     R3,A
   \   000007   22           RET
   2608          
   2609          /*********************************************************************
   2610           * @fn          ZDO_PermitJoinCB
   2611           *
   2612           * @brief      This function is called when there is a change in the
   2613           *             device's permit join status.
   2614           *
   2615           * @param       duration - the new duration
   2616           *
   2617           * @return      none
   2618           */

   \                                 In  segment BANKED_CODE, align 1, keep-with-next
   2619          void ZDO_PermitJoinCB( uint8 duration )
   \                     ZDO_PermitJoinCB:
   2620          {
   \   000000   C082         PUSH    DPL
   \   000002   C083         PUSH    DPH
   \   000004                ; Saved register size: 2
   \   000004                ; Auto size: 1
   \   000004   74FF         MOV     A,#-0x1
   \   000006   12....       LCALL   ?ALLOC_XSTACK8
   \   000009   E9           MOV     A,R1
   \   00000A   85..82       MOV     DPL,?XSP + 0
   \   00000D   85..83       MOV     DPH,?XSP + 1
   \   000010   F0           MOVX    @DPTR,A
   2621            // Pass the Permit Join status to higher layer if callback registered
   2622            if (zdoCBFunc[ZDO_PERMIT_JOIN_CBID] != NULL )
   \   000011   90....       MOV     DPTR,#zdoCBFunc + 14
   \   000014   12....       LCALL   ??Subroutine55_0 & 0xFFFF
   \                     ??CrossCallReturnLabel_94:
   \   000017   6006         JZ      ??ZDO_PermitJoinCB_0
   2623            {
   2624              zdoCBFunc[ZDO_PERMIT_JOIN_CBID]( (void*)&duration );
   \   000019                ; Setup parameters for indirect call
   \   000019   12....       LCALL   ?Subroutine18 & 0xFFFF
   2625            }
   \                     ??CrossCallReturnLabel_113:
   \   00001C   12....       LCALL   ?CALL_IND
   2626          }
   \                     ??ZDO_PermitJoinCB_0:
   \   00001F   7401         MOV     A,#0x1
   \   000021   02....       LJMP    ?Subroutine4 & 0xFFFF
   2627          
   2628          /*********************************************************************
   2629           * @fn          ZDO_AddrChangeIndicationCB
   2630           *
   2631           * @brief       This function notifies the application that this
   2632           *              device's address has changed.  Could happen in
   2633           *              a network with stochastic addressing (PRO).
   2634           *
   2635           * @param       newAddr - the new address
   2636           *
   2637           * @return      none
   2638           */

   \                                 In  segment BANKED_CODE, align 1, keep-with-next
   \                     ?Subroutine17:
   \   000000   A3           INC     DPTR
   \   000001                REQUIRE ??Subroutine49_0
   \   000001                ; // Fall through to label ??Subroutine49_0

   \                                 In  segment BANKED_CODE, align 1, keep-with-next
   2639          void ZDO_AddrChangeIndicationCB( uint16 newAddr )
   \                     ZDO_AddrChangeIndicationCB:
   2640          {
   \   000000                REQUIRE ?V0
   \   000000                REQUIRE ?V1
   \   000000                REQUIRE ?V2
   \   000000                REQUIRE ?V3
   \   000000   74F4         MOV     A,#-0xc
   \   000002   12....       LCALL   ?BANKED_ENTER_XDATA
   \   000005                ; Saved register size: 12
   \   000005                ; Auto size: 0
   \   000005   8A..         MOV     ?V0,R2
   \   000007   8B..         MOV     ?V1,R3
   2641            ZDO_AddrChangeInd_t *pZDOAddrChangeMsg;
   2642            epList_t *pItem = epList;
   \   000009   90....       MOV     DPTR,#epList
   \   00000C   12....       LCALL   ??Subroutine54_0 & 0xFFFF
   2643          
   2644            // Notify to save info into NV
   2645            ZDApp_NVUpdate();
   2646          
   2647            // Notify the applications
   2648            osal_set_event( ZDAppTaskID, ZDO_STATE_CHANGE_EVT );
   \                     ??CrossCallReturnLabel_82:
   \   00000F                ; Setup parameters for call to function osal_set_event
   \   00000F   7A10         MOV     R2,#0x10
   \   000011   7B00         MOV     R3,#0x0
   \   000013   90....       MOV     DPTR,#ZDAppTaskID
   \   000016   E0           MOVX    A,@DPTR
   \   000017   F9           MOV     R1,A
   \   000018   12....       LCALL   ??osal_set_event?relay; Banked call to: osal_set_event
   \   00001B   803F         SJMP    ??ZDO_AddrChangeIndicationCB_0
   2649          
   2650            while (pItem != NULL)
   2651            {
   2652              if (pItem->epDesc->endPoint != ZDO_EP)
   \                     ??ZDO_AddrChangeIndicationCB_1:
   \   00001D   8E82         MOV     DPL,R6
   \   00001F   8F83         MOV     DPH,R7
   \   000021   A3           INC     DPTR
   \   000022   12....       LCALL   ?Subroutine17 & 0xFFFF
   \                     ??CrossCallReturnLabel_73:
   \   000025   602E         JZ      ??ZDO_AddrChangeIndicationCB_2
   2653              {
   2654                pZDOAddrChangeMsg = (ZDO_AddrChangeInd_t *)osal_msg_allocate( sizeof( ZDO_AddrChangeInd_t ) );
   \   000027                ; Setup parameters for call to function osal_msg_allocate
   \   000027   7A04         MOV     R2,#0x4
   \   000029   7B00         MOV     R3,#0x0
   \   00002B   12....       LCALL   ??osal_msg_allocate?relay; Banked call to: osal_msg_allocate
   2655                if (pZDOAddrChangeMsg != NULL)
   \   00002E   EA           MOV     A,R2
   \   00002F   4B           ORL     A,R3
   \   000030   6023         JZ      ??ZDO_AddrChangeIndicationCB_2
   2656                {
   2657                  pZDOAddrChangeMsg->hdr.event = ZDO_ADDR_CHANGE_IND;
   \   000032   8A82         MOV     DPL,R2
   \   000034   8B83         MOV     DPH,R3
   \   000036   74D6         MOV     A,#-0x2a
   \   000038   F0           MOVX    @DPTR,A
   2658                  pZDOAddrChangeMsg->shortAddr = newAddr;
   \   000039   A3           INC     DPTR
   \   00003A   A3           INC     DPTR
   \   00003B   E5..         MOV     A,?V0
   \   00003D   F0           MOVX    @DPTR,A
   \   00003E   A3           INC     DPTR
   \   00003F   E5..         MOV     A,?V1
   \   000041   F0           MOVX    @DPTR,A
   2659                  osal_msg_send( *(pItem->epDesc->task_id), (uint8 *)pZDOAddrChangeMsg );
   \   000042                ; Setup parameters for call to function osal_msg_send
   \   000042   8E82         MOV     DPL,R6
   \   000044   8F83         MOV     DPH,R7
   \   000046   A3           INC     DPTR
   \   000047   A3           INC     DPTR
   \   000048   E0           MOVX    A,@DPTR
   \   000049   F8           MOV     R0,A
   \   00004A   A3           INC     DPTR
   \   00004B   12....       LCALL   ??Subroutine57_0 & 0xFFFF
   2660                }
   2661              }
   \                     ??CrossCallReturnLabel_109:
   \   00004E   12....       LCALL   ?Subroutine17 & 0xFFFF
   \                     ??CrossCallReturnLabel_74:
   \   000051   F9           MOV     R1,A
   \   000052   12....       LCALL   ??osal_msg_send?relay; Banked call to: osal_msg_send
   2662              pItem = pItem->nextDesc;
   \                     ??ZDO_AddrChangeIndicationCB_2:
   \   000055   12....       LCALL   ?Subroutine23 & 0xFFFF
   2663            }
   \                     ??CrossCallReturnLabel_80:
   \   000058   E8           MOV     A,R0
   \   000059   FE           MOV     R6,A
   \   00005A   E9           MOV     A,R1
   \   00005B   FF           MOV     R7,A
   \                     ??ZDO_AddrChangeIndicationCB_0:
   \   00005C   EE           MOV     A,R6
   \   00005D   4F           ORL     A,R7
   \   00005E   70BD         JNZ     ??ZDO_AddrChangeIndicationCB_1
   2664          
   2665            // Send out a device announce
   2666            ZDApp_AnnounceNewAddress();
   \   000060                ; Setup parameters for call to function ZDApp_AnnounceNewAddress
   \   000060   12....       LCALL   ??ZDApp_AnnounceNewAddress?relay; Banked call to: ZDApp_AnnounceNewAddress
   2667          }
   \   000063   02....       LJMP    ??Subroutine45_0 & 0xFFFF
   2668          
   2669          /*********************************************************************
   2670           * @fn          ZDO_JoinIndicationCB
   2671           *
   2672           * @brief       This function allows the next higher layer of a
   2673           *              coordinator to be notified of a remote join request.
   2674           *
   2675           * @param       ShortAddress - 16-bit address
   2676           * @param       ExtendedAddress - IEEE (64-bit) address
   2677           * @param       CapabilityFlags - Association Capability Flags
   2678           * @param       type - of joining -
   2679           *                          NWK_ASSOC_JOIN
   2680           *                          NWK_ASSOC_REJOIN_UNSECURE
   2681           *                          NWK_ASSOC_REJOIN_SECURE
   2682           *
   2683           * @return      ZStatus_t
   2684           */

   \                                 In  segment BANKED_CODE, align 1, keep-with-next
   2685          ZStatus_t ZDO_JoinIndicationCB(uint16 ShortAddress, uint8 *ExtendedAddress,
   \                     ZDO_JoinIndicationCB:
   2686                                          uint8 CapabilityFlags, uint8 type)
   2687          {
   \   000000                ; Saved register size: 0
   \   000000                ; Auto size: 0
   2688            (void)ExtendedAddress;
   2689          #if ZDO_NV_SAVE_RFDs
   2690            (void)CapabilityFlags;
   2691          
   2692          #else  // if !ZDO_NV_SAVE_RFDs
   2693            if (CapabilityFlags & CAPINFO_DEVICETYPE_FFD)
   2694          #endif
   2695            {
   2696              ZDApp_NVUpdate();  // Notify to save info into NV.
   2697            }
   2698          
   2699            if (ZG_SECURE_ENABLED)  // Send notification to TC of new device.
   2700            {
   2701              if ( type == NWK_ASSOC_JOIN ||
   2702                   type == NWK_ASSOC_REJOIN_UNSECURE ||
   2703                   type == NWK_ASSOC_REJOIN_SECURE )
   2704              {
   2705                uint16 timeToFire;
   2706                ZDAppNewDevice_t *pNewDevice, *pDeviceList;
   2707          
   2708                pNewDevice = (ZDAppNewDevice_t *) osal_mem_alloc( sizeof(ZDAppNewDevice_t) );
   2709          
   2710                if ( pNewDevice == NULL )
   2711                {
   2712                  // Memory alloc failed
   2713                  return ZMemError;
   2714                }
   2715          
   2716                // Add the new device to the New Device List
   2717                if ( ZDApp_NewDeviceList == NULL )
   2718                {
   2719                  // The list is empty, add the first element
   2720                  ZDApp_NewDeviceList = pNewDevice;
   2721                }
   2722                else
   2723                {
   2724                  pDeviceList = ZDApp_NewDeviceList;
   2725          
   2726                  // Walk the list to last element
   2727                  while ( pDeviceList->next )
   2728                  {
   2729                    pDeviceList = (ZDAppNewDevice_t *) pDeviceList->next;
   2730                  }
   2731          
   2732                  // Add new device at the end
   2733                  pDeviceList->next = pNewDevice;
   2734                }
   2735          
   2736                // get the remaining time of the timer
   2737                timeToFire = osal_get_timeoutEx( ZDAppTaskID, ZDO_NEW_DEVICE );
   2738          
   2739                pNewDevice->next = NULL;
   2740                pNewDevice->shortAddr = ShortAddress;
   2741                pNewDevice->timeDelta = ZDAPP_NEW_DEVICE_TIME - timeToFire;
   2742          
   2743                // Start the timer only if there is no pending timer
   2744                if ( pNewDevice->timeDelta == ZDAPP_NEW_DEVICE_TIME )
   2745                {
   2746                  osal_start_timerEx( ZDAppTaskID, ZDO_NEW_DEVICE, ZDAPP_NEW_DEVICE_TIME );
   2747                }
   2748              }
   2749            }
   2750          
   2751            return ZSuccess;
   \   000000                REQUIRE ?Subroutine5
   \   000000                ; // Fall through to label ?Subroutine5

   \                                 In  segment BANKED_CODE, align 1, keep-with-next
   \                     ?Subroutine5:
   \   000000   7900         MOV     R1,#0x0
   \   000002   02....       LJMP    ?BRET
   2752          }
   2753          
   2754          /*********************************************************************
   2755           * @fn          ZDO_ConcentratorIndicationCB
   2756           *
   2757           * @brief       This function allows the next higher layer of a
   2758           *              device to be notified of existence of the concentrator.
   2759           *
   2760           * @param       nwkAddr - 16-bit NWK address of the concentrator
   2761           * @param       extAddr - pointer to extended Address
   2762           *                        NULL if not available
   2763           * @param       pktCost - PktCost from RREQ
   2764           *
   2765           * @return      void
   2766           */

   \                                 In  segment BANKED_CODE, align 1, keep-with-next
   2767          void ZDO_ConcentratorIndicationCB( uint16 nwkAddr, uint8 *extAddr, uint8 pktCost )
   \                     ZDO_ConcentratorIndicationCB:
   2768          {
   \   000000   74F7         MOV     A,#-0x9
   \   000002   12....       LCALL   ?BANKED_ENTER_XDATA
   \   000005                ; Saved register size: 9
   \   000005                ; Auto size: 5
   \   000005   74FB         MOV     A,#-0x5
   \   000007   12....       LCALL   ?ALLOC_XSTACK8
   2769            zdoConcentratorInd_t conInd;
   2770          
   2771            conInd.nwkAddr = nwkAddr;
   \   00000A   12....       LCALL   ?Subroutine14 & 0xFFFF
   2772            conInd.extAddr = extAddr;
   \                     ??CrossCallReturnLabel_60:
   \   00000D   7402         MOV     A,#0x2
   \   00000F   12....       LCALL   ?XSTACK_DISP0_8
   \   000012   EC           MOV     A,R4
   \   000013   F0           MOVX    @DPTR,A
   \   000014   A3           INC     DPTR
   \   000015   ED           MOV     A,R5
   \   000016   F0           MOVX    @DPTR,A
   2773            conInd.pktCost = pktCost;
   \   000017   7404         MOV     A,#0x4
   \   000019   12....       LCALL   ?XSTACK_DISP0_8
   \   00001C   E9           MOV     A,R1
   \   00001D   F0           MOVX    @DPTR,A
   2774          
   2775            if( zdoCBFunc[ZDO_CONCENTRATOR_IND_CBID] != NULL )
   \   00001E   90....       MOV     DPTR,#zdoCBFunc + 2
   \   000021   12....       LCALL   ??Subroutine55_0 & 0xFFFF
   \                     ??CrossCallReturnLabel_95:
   \   000024   6006         JZ      ??ZDO_ConcentratorIndicationCB_0
   2776            {
   2777              zdoCBFunc[ZDO_CONCENTRATOR_IND_CBID]( (void*)&conInd );
   \   000026                ; Setup parameters for indirect call
   \   000026   12....       LCALL   ?Subroutine18 & 0xFFFF
   2778            }
   \                     ??CrossCallReturnLabel_114:
   \   000029   12....       LCALL   ?CALL_IND
   2779          }
   \                     ??ZDO_ConcentratorIndicationCB_0:
   \   00002C                REQUIRE ?Subroutine8
   \   00002C                ; // Fall through to label ?Subroutine8

   \                                 In  segment BANKED_CODE, align 1, keep-with-next
   \                     ?Subroutine8:
   \   000000   7405         MOV     A,#0x5
   \   000002   12....       LCALL   ?DEALLOC_XSTACK8
   \   000005   80..         SJMP    ??Subroutine56_0
   2780          
   2781          /*********************************************************************
   2782           * @fn          ZDO_LeaveCnf
   2783           *
   2784           * @brief       This function allows the next higher layer to be
   2785           *              notified of the results of its request for this or
   2786           *              a child device to leave the network.
   2787           *
   2788           * @param       cnf - NLME_LeaveCnf_t
   2789           *
   2790           * @return      none
   2791           */

   \                                 In  segment BANKED_CODE, align 1, keep-with-next
   2792          void ZDO_LeaveCnf( NLME_LeaveCnf_t* cnf )
   \                     ZDO_LeaveCnf:
   2793          {
   \   000000                REQUIRE ?V0
   \   000000                REQUIRE ?V1
   \   000000   74F6         MOV     A,#-0xa
   \   000002   12....       LCALL   ?BANKED_ENTER_XDATA
   \   000005                ; Saved register size: 10
   \   000005                ; Auto size: 0
   \   000005   EA           MOV     A,R2
   \   000006   FE           MOV     R6,A
   \   000007   EB           MOV     A,R3
   \   000008   FF           MOV     R7,A
   2794            // Check for this device
   2795            if ( osal_ExtAddrEqual( cnf->extAddr,
   2796                                    NLME_GetExtAddr() ) == TRUE )
   \   000009                ; Setup parameters for call to function NLME_GetExtAddr
   \   000009   12....       LCALL   ??NLME_GetExtAddr?relay; Banked call to: NLME_GetExtAddr
   \   00000C   8A..         MOV     ?V0,R2
   \   00000E   8B..         MOV     ?V1,R3
   \   000010   AC..         MOV     R4,?V0
   \   000012   AD..         MOV     R5,?V1
   \   000014                ; Setup parameters for call to function sAddrExtCmp
   \   000014   12....       LCALL   ?Subroutine35 & 0xFFFF
   \                     ??CrossCallReturnLabel_37:
   \   000017   12....       LCALL   ??sAddrExtCmp?relay  ; Banked call to: sAddrExtCmp
   \   00001A   E9           MOV     A,R1
   \   00001B   6401         XRL     A,#0x1
   \   00001D   7022         JNZ     ??ZDO_LeaveCnf_0
   2797            {
   2798              // Pass the leave confirm to higher layer if callback registered
   2799              if ( ( zdoCBFunc[ZDO_LEAVE_CNF_CBID] == NULL ) ||
   2800                   ( (*zdoCBFunc[ZDO_LEAVE_CNF_CBID])( cnf ) == NULL ) )
   \   00001F   90....       MOV     DPTR,#zdoCBFunc + 10
   \   000022   12....       LCALL   ??Subroutine55_0 & 0xFFFF
   \                     ??CrossCallReturnLabel_96:
   \   000025   6011         JZ      ??ZDO_LeaveCnf_1
   \   000027                ; Setup parameters for indirect call
   \   000027   EE           MOV     A,R6
   \   000028   FA           MOV     R2,A
   \   000029   EF           MOV     A,R7
   \   00002A   FB           MOV     R3,A
   \   00002B   12....       LCALL   ??Subroutine57_0 & 0xFFFF
   \                     ??CrossCallReturnLabel_110:
   \   00002E   12....       LCALL   ?CALL_IND
   \   000031   8B..         MOV     ?V1,R3
   \   000033   EA           MOV     A,R2
   \   000034   45..         ORL     A,?V1
   \   000036   701D         JNZ     ??ZDO_LeaveCnf_2
   2801              {
   2802                // Prepare to leave with reset
   2803                ZDApp_LeaveReset( cnf->rejoin );
   \                     ??ZDO_LeaveCnf_1:
   \   000038                ; Setup parameters for call to function ZDApp_LeaveReset
   \   000038   12....       LCALL   ?Subroutine33 & 0xFFFF
   2804              }
   2805            }
   \                     ??CrossCallReturnLabel_120:
   \   00003B   F9           MOV     R1,A
   \   00003C   12....       LCALL   ??ZDApp_LeaveReset?relay; Banked call to: ZDApp_LeaveReset
   \   00003F   8014         SJMP    ??ZDO_LeaveCnf_2
   2806            else if ( ZSTACK_ROUTER_BUILD )
   2807            {
   2808              // Remove device address(optionally descendents) from data
   2809              ZDApp_LeaveUpdate( cnf->dstAddr,
   2810                                 cnf->extAddr,
   2811                                 cnf->removeChildren );
   \                     ??ZDO_LeaveCnf_0:
   \   000041                ; Setup parameters for call to function ZDApp_LeaveUpdate
   \   000041   8E82         MOV     DPL,R6
   \   000043   8F83         MOV     DPH,R7
   \   000045   A3           INC     DPTR
   \   000046   A3           INC     DPTR
   \   000047   A3           INC     DPTR
   \   000048   A3           INC     DPTR
   \   000049   A3           INC     DPTR
   \   00004A   A3           INC     DPTR
   \   00004B   A3           INC     DPTR
   \   00004C   A3           INC     DPTR
   \   00004D   A3           INC     DPTR
   \   00004E   A3           INC     DPTR
   \   00004F   12....       LCALL   ?Subroutine19 & 0xFFFF
   2812            }
   \                     ??CrossCallReturnLabel_6:
   \   000052   12....       LCALL   ??ZDApp_LeaveUpdate?relay; Banked call to: ZDApp_LeaveUpdate
   2813          }
   \                     ??ZDO_LeaveCnf_2:
   \   000055   02....       LJMP    ??Subroutine52_0 & 0xFFFF

   \                                 In  segment BANKED_CODE, align 1, keep-with-next
   \                     ?Subroutine19:
   \   000000   E0           MOVX    A,@DPTR
   \   000001   F9           MOV     R1,A
   \   000002   EE           MOV     A,R6
   \   000003   2402         ADD     A,#0x2
   \   000005   FC           MOV     R4,A
   \   000006   E4           CLR     A
   \   000007   3F           ADDC    A,R7
   \   000008   FD           MOV     R5,A
   \   000009   8E82         MOV     DPL,R6
   \   00000B   8F83         MOV     DPH,R7
   \   00000D   E0           MOVX    A,@DPTR
   \   00000E   FA           MOV     R2,A
   \   00000F   A3           INC     DPTR
   \   000010   E0           MOVX    A,@DPTR
   \   000011   FB           MOV     R3,A
   \   000012   22           RET

   \                                 In  segment BANKED_CODE, align 1, keep-with-next
   \                     ?Subroutine33:
   \   000000   EE           MOV     A,R6
   \   000001   240B         ADD     A,#0xb
   \   000003                REQUIRE ??Subroutine58_0
   \   000003                ; // Fall through to label ??Subroutine58_0
   2814          
   2815          /*********************************************************************
   2816           * @fn          ZDO_LeaveInd
   2817           *
   2818           * @brief       This function allows the next higher layer of a
   2819           *              device to be notified of a remote leave request or
   2820           *              indication.
   2821           *
   2822           * @param       ind - NLME_LeaveInd_t
   2823           *
   2824           * @return      none
   2825           */

   \                                 In  segment BANKED_CODE, align 1, keep-with-next
   2826          void ZDO_LeaveInd( NLME_LeaveInd_t* ind )
   \                     ZDO_LeaveInd:
   2827          {
   \   000000                REQUIRE ?V0
   \   000000                REQUIRE ?V1
   \   000000   74F6         MOV     A,#-0xa
   \   000002   12....       LCALL   ?BANKED_ENTER_XDATA
   \   000005                ; Saved register size: 10
   \   000005                ; Auto size: 2
   \   000005   74FE         MOV     A,#-0x2
   \   000007   12....       LCALL   ?ALLOC_XSTACK8
   \   00000A   EA           MOV     A,R2
   \   00000B   FE           MOV     R6,A
   \   00000C   EB           MOV     A,R3
   \   00000D   FF           MOV     R7,A
   2828            uint8 leave;
   2829          
   2830          
   2831            // Parent is requesting the leave - NWK layer filters out illegal
   2832            // requests
   2833            if ( ind->request == TRUE )
   \   00000E   8E82         MOV     DPL,R6
   \   000010   8F83         MOV     DPH,R7
   \   000012   A3           INC     DPTR
   \   000013   A3           INC     DPTR
   \   000014   A3           INC     DPTR
   \   000015   A3           INC     DPTR
   \   000016   A3           INC     DPTR
   \   000017   A3           INC     DPTR
   \   000018   A3           INC     DPTR
   \   000019   A3           INC     DPTR
   \   00001A   A3           INC     DPTR
   \   00001B   A3           INC     DPTR
   \   00001C   E0           MOVX    A,@DPTR
   \   00001D   6401         XRL     A,#0x1
   \   00001F   701D         JNZ     ??ZDO_LeaveInd_0
   2834            {
   2835              // Only respond if we are not rejoining the network
   2836              if ( ind->rejoin == FALSE )
   \   000021   12....       LCALL   ?Subroutine32 & 0xFFFF
   \                     ??CrossCallReturnLabel_31:
   \   000024   703C         JNZ     ??ZDO_LeaveInd_1
   2837              {
   2838                // Notify network of leave
   2839                NLME_LeaveRsp_t rsp;
   2840                rsp.rejoin = ind->rejoin;
   \   000026   7401         MOV     A,#0x1
   \   000028   12....       LCALL   ?XSTACK_DISP0_8
   \   00002B   E4           CLR     A
   \   00002C   F0           MOVX    @DPTR,A
   2841          
   2842                if ( ZSTACK_ROUTER_BUILD )
   2843                {
   2844                  rsp.removeChildren = ind->removeChildren;
   \   00002D   12....       LCALL   ?Subroutine33 & 0xFFFF
   2845                }
   2846                else if ( ZSTACK_END_DEVICE_BUILD )
   2847                {
   2848                  rsp.removeChildren = 0;
   2849                }
   2850          
   2851                NLME_LeaveRsp( &rsp );
   2852              }
   2853          
   2854              if ( ZSTACK_END_DEVICE_BUILD )
   2855              {
   2856                // Stop polling and get ready to reset
   2857                NLME_SetPollRate( 0 );
   2858              }
   2859          
   2860              // Prepare to leave with reset
   2861              ZDApp_LeaveReset( ind->rejoin );
   2862            }
   \                     ??CrossCallReturnLabel_121:
   \   000030   85..82       MOV     DPL,?XSP + 0
   \   000033   85..83       MOV     DPH,?XSP + 1
   \   000036   12....       LCALL   ?Subroutine13 & 0xFFFF
   \                     ??CrossCallReturnLabel_5:
   \   000039   12....       LCALL   ??NLME_LeaveRsp?relay; Banked call to: NLME_LeaveRsp
   \   00003C   8024         SJMP    ??ZDO_LeaveInd_1
   2863            else
   2864            {
   2865              leave = FALSE;
   2866          
   2867              // Check if this device needs to leave as a child or descendent
   2868              if ( ind->srcAddr == NLME_GetCoordShortAddr() )
   \                     ??ZDO_LeaveInd_0:
   \   00003E                ; Setup parameters for call to function NLME_GetCoordShortAddr
   \   00003E   12....       LCALL   ??NLME_GetCoordShortAddr?relay; Banked call to: NLME_GetCoordShortAddr
   \   000041   8A..         MOV     ?V0,R2
   \   000043   8B..         MOV     ?V1,R3
   \   000045   A8..         MOV     R0,?V0
   \   000047   A9..         MOV     R1,?V1
   \   000049   8E82         MOV     DPL,R6
   \   00004B   8F83         MOV     DPH,R7
   \   00004D   E0           MOVX    A,@DPTR
   \   00004E   68           XRL     A,R0
   \   00004F   7003         JNZ     ??ZDO_LeaveInd_2
   \   000051   A3           INC     DPTR
   \   000052   E0           MOVX    A,@DPTR
   \   000053   69           XRL     A,R1
   \                     ??ZDO_LeaveInd_2:
   \   000054   7015         JNZ     ??ZDO_LeaveInd_3
   2869              {
   2870                if ( ( ind->removeChildren == TRUE               ) ||
   2871                     ( ZDO_Config_Node_Descriptor.LogicalType ==
   2872                       NODETYPE_DEVICE                           )    )
   \   000056   12....       LCALL   ?Subroutine33 & 0xFFFF
   2873                {
   2874                  leave = TRUE;
   2875                }
   2876              }
   \                     ??CrossCallReturnLabel_122:
   \   000059   6401         XRL     A,#0x1
   \   00005B   6005         JZ      ??ZDO_LeaveInd_1
   \   00005D   12....       LCALL   ?Subroutine24 & 0xFFFF
   \                     ??CrossCallReturnLabel_18:
   \   000060   7009         JNZ     ??ZDO_LeaveInd_3
   2877              else if ( ind->removeChildren == TRUE )
   2878              {
   2879                // Check NWK address allocation algorithm
   2880                //leave = RTG_ANCESTOR(nwkAddr,thisAddr);
   2881              }
   2882          
   2883              if ( leave == TRUE )
   2884              {
   2885                // Prepare to leave with reset
   2886                ZDApp_LeaveReset( ind->rejoin );
   \                     ??ZDO_LeaveInd_1:
   \   000062                ; Setup parameters for call to function ZDApp_LeaveReset
   \   000062   12....       LCALL   ?Subroutine32 & 0xFFFF
   2887              }
   \                     ??CrossCallReturnLabel_32:
   \   000065   F9           MOV     R1,A
   \   000066   12....       LCALL   ??ZDApp_LeaveReset?relay; Banked call to: ZDApp_LeaveReset
   \   000069   800F         SJMP    ??ZDO_LeaveInd_4
   2888              else
   2889              {
   2890                // Remove device address(optionally descendents) from data
   2891                ZDApp_LeaveUpdate( ind->srcAddr,
   2892                                   ind->extAddr,
   2893                                   ind->removeChildren );
   \                     ??ZDO_LeaveInd_3:
   \   00006B                ; Setup parameters for call to function ZDApp_LeaveUpdate
   \   00006B   EE           MOV     A,R6
   \   00006C   240B         ADD     A,#0xb
   \   00006E   F582         MOV     DPL,A
   \   000070   E4           CLR     A
   \   000071   3F           ADDC    A,R7
   \   000072   F583         MOV     DPH,A
   \   000074   12....       LCALL   ?Subroutine19 & 0xFFFF
   2894              }
   2895            }
   \                     ??CrossCallReturnLabel_7:
   \   000077   12....       LCALL   ??ZDApp_LeaveUpdate?relay; Banked call to: ZDApp_LeaveUpdate
   2896          
   2897            // Pass the leave indication to higher layer if callback registered.
   2898            if (zdoCBFunc[ZDO_LEAVE_IND_CBID] != NULL)
   \                     ??ZDO_LeaveInd_4:
   \   00007A   90....       MOV     DPTR,#zdoCBFunc + 12
   \   00007D   12....       LCALL   ??Subroutine55_0 & 0xFFFF
   \                     ??CrossCallReturnLabel_97:
   \   000080   600A         JZ      ??ZDO_LeaveInd_5
   2899            {
   2900              (void)zdoCBFunc[ZDO_LEAVE_IND_CBID](ind);
   \   000082                ; Setup parameters for indirect call
   \   000082   EE           MOV     A,R6
   \   000083   FA           MOV     R2,A
   \   000084   EF           MOV     A,R7
   \   000085   FB           MOV     R3,A
   \   000086   12....       LCALL   ??Subroutine57_0 & 0xFFFF
   2901            }
   \                     ??CrossCallReturnLabel_111:
   \   000089   12....       LCALL   ?CALL_IND
   2902          }
   \                     ??ZDO_LeaveInd_5:
   \   00008C   02....       LJMP    ?Subroutine9 & 0xFFFF
   2903          
   2904          /*********************************************************************
   2905           * @fn          ZDO_SyncIndicationCB
   2906           *
   2907           * @brief       This function allows the next higher layer of a
   2908           *              coordinator to be notified of a loss of synchronization
   2909           *                          with the parent/child device.
   2910           *
   2911           * @param       type: 0 - child; 1 - parent
   2912           *
   2913           *
   2914           * @return      none
   2915           */

   \                                 In  segment BANKED_CODE, align 1, keep-with-next
   2916          void ZDO_SyncIndicationCB( uint8 type, uint16 shortAddr )
   \                     ZDO_SyncIndicationCB:
   2917          {
   \   000000   74F7         MOV     A,#-0x9
   \   000002   12....       LCALL   ?BANKED_ENTER_XDATA
   \   000005                ; Saved register size: 9
   \   000005                ; Auto size: 0
   \   000005   E9           MOV     A,R1
   \   000006   FE           MOV     R6,A
   2918            (void)shortAddr;  // Remove this line if this parameter is used.
   2919          
   2920            if ( ZSTACK_END_DEVICE_BUILD
   2921              || (ZSTACK_ROUTER_BUILD && ((_NIB.CapabilityFlags & ZMAC_ASSOC_CAPINFO_FFD_TYPE) == 0)))
   \   000007   90....       MOV     DPTR,#_NIB + 14
   \   00000A   E0           MOVX    A,@DPTR
   \   00000B   A2E1         MOV     C,0xE0 /* A   */.1
   \   00000D   4018         JC      ??ZDO_SyncIndicationCB_0
   2922            {
   2923              if ( type == 1 )
   \   00000F   7401         MOV     A,#0x1
   \   000011   6E           XRL     A,R6
   \   000012   7013         JNZ     ??ZDO_SyncIndicationCB_0
   2924              {
   2925                // We lost contact with our parent.  Clear the neighbor Table.
   2926                nwkNeighborInitTable();
   \   000014                ; Setup parameters for call to function nwkNeighborInitTable
   \   000014   12....       LCALL   ??nwkNeighborInitTable?relay; Banked call to: nwkNeighborInitTable
   2927          
   2928                // Start the rejoin process.
   2929                ZDApp_SendMsg( ZDAppTaskID, ZDO_NWK_JOIN_REQ, sizeof(osal_event_hdr_t), NULL );
   \   000017                ; Setup parameters for call to function ZDApp_SendMsg
   \   000017   7C00         MOV     R4,#0x0
   \   000019   7D00         MOV     R5,#0x0
   \   00001B   7B02         MOV     R3,#0x2
   \   00001D   7A03         MOV     R2,#0x3
   \   00001F   90....       MOV     DPTR,#ZDAppTaskID
   \   000022   E0           MOVX    A,@DPTR
   \   000023   F9           MOV     R1,A
   \   000024   12....       LCALL   ??ZDApp_SendMsg?relay; Banked call to: ZDApp_SendMsg
   2930              }
   2931            }
   2932          }
   \                     ??ZDO_SyncIndicationCB_0:
   \   000027   02....       LJMP    ??Subroutine56_0 & 0xFFFF
   2933          
   2934          /*********************************************************************
   2935           * @fn          ZDO_ManytoOneFailureIndicationCB
   2936           *
   2937           * @brief       This function allows the next higher layer of a
   2938           *              concentrator to be notified of a many-to-one route
   2939           *              failure.
   2940           *
   2941           * @param       none
   2942           *
   2943           *
   2944           * @return      none
   2945           */

   \                                 In  segment BANKED_CODE, align 1, keep-with-next
   2946          void ZDO_ManytoOneFailureIndicationCB()
   \                     ZDO_ManytoOneFailureIndicationCB:
   2947          {
   \   000000   C082         PUSH    DPL
   \   000002   C083         PUSH    DPH
   \   000004                ; Saved register size: 2
   \   000004                ; Auto size: 0
   2948            // By default, the concentrator automatically redo many-to-one route
   2949            // discovery to update all many-to-one routes in the network
   2950            // If you want anything processing other than the default,
   2951            // please replace the following code.
   2952          
   2953            RTG_MTORouteReq();
   \   000004                ; Setup parameters for call to function RTG_MTORouteReq
   \   000004   12....       LCALL   ??RTG_MTORouteReq?relay; Banked call to: RTG_MTORouteReq
   2954          }
   \   000007   02....       LJMP    ??Subroutine50_0 & 0xFFFF
   2955          
   2956          /*********************************************************************
   2957           * @fn          ZDO_PollConfirmCB
   2958           *
   2959           * @brief       This function allows the next higher layer to be
   2960           *              notified of a Poll Confirm.
   2961           *
   2962           * @param       none
   2963           *
   2964           * @return      none
   2965           */

   \                                 In  segment BANKED_CODE, align 1, keep-with-next
   2966          void ZDO_PollConfirmCB( uint8 status )
   \                     ZDO_PollConfirmCB:
   2967          {
   \   000000                ; Saved register size: 0
   \   000000                ; Auto size: 0
   2968            (void)status;  // Remove this line if this parameter is used.
   2969            return;
   \   000000   02....       LJMP    ?BRET
   2970          }
   2971          
   2972          /*********************************************************************
   2973           * @fn          ZDO_NetworkStatusCB
   2974           *
   2975           * @brief       Network Status Callback function
   2976           *
   2977           * @param       nwkDstAddr - message's destination address- used to determine
   2978           *                           if the message was intended for this device or
   2979           *                           a sleeping end device.
   2980           * @param       statusCode - message's status code (ie. NWKSTAT_NONTREE_LINK_FAILURE)
   2981           * @param       dstAddr - the destination address related to the status code
   2982           *
   2983           * @return      none
   2984           */

   \                                 In  segment BANKED_CODE, align 1, keep-with-next
   2985          void ZDO_NetworkStatusCB( uint16 nwkDstAddr, uint8 statusCode, uint16 dstAddr )
   \                     ZDO_NetworkStatusCB:
   2986          {
   \   000000   C082         PUSH    DPL
   \   000002   C083         PUSH    DPH
   \   000004                ; Saved register size: 2
   \   000004                ; Auto size: 0
   2987            (void)dstAddr;     // Remove this line if this parameter is used.
   2988          
   2989            if ( (nwkDstAddr == NLME_GetShortAddr())
   2990                && (statusCode == NWKSTAT_NONTREE_LINK_FAILURE) )
   \   000004                ; Setup parameters for call to function NLME_GetShortAddr
   \   000004   12....       LCALL   ??NLME_GetShortAddr?relay; Banked call to: NLME_GetShortAddr
   2991            {
   2992              // Routing error for dstAddr, this is informational and a Route
   2993              // Request should happen automatically.
   2994            }
   2995          }
   \   000007   02....       LJMP    ??Subroutine50_0 & 0xFFFF
   2996          
   2997          /******************************************************************************
   2998           * @fn          ZDApp_NwkWriteNVRequest (stubs AddrMgrWriteNVRequest)
   2999           *
   3000           * @brief       Stub routine implemented by NHLE. NHLE should call
   3001           *              <AddrMgrWriteNV> when appropriate.
   3002           *
   3003           * @param       none
   3004           *
   3005           * @return      none
   3006           */

   \                                 In  segment BANKED_CODE, align 1, keep-with-next
   3007          void ZDApp_NwkWriteNVRequest( void )
   \                     AddrMgrWriteNVRequest:
   3008          {
   \   000000                ; Saved register size: 0
   \   000000                ; Auto size: 0
   3009          #if defined ( NV_RESTORE )
   3010            if ( !osal_get_timeoutEx( ZDAppTaskID, ZDO_NWK_UPDATE_NV ) )
   3011            {
   3012              // Trigger to save info into NV
   3013              ZDApp_NVUpdate();
   3014            }
   3015          #endif
   3016          }
   \   000000   02....       LJMP    ?BRET
   3017          
   3018          /*********************************************************************
   3019           * Call Back Functions from Security  - API
   3020           */
   3021          
   3022           /*********************************************************************
   3023           * @fn          ZDO_UpdateDeviceIndication
   3024           *
   3025           * @brief       This function notifies the "Trust Center" of a
   3026           *              network when a device joins or leaves the network.
   3027           *
   3028           * @param       extAddr - pointer to 64 bit address of new device
   3029           * @param       status  - 0 if a new device joined securely
   3030           *                      - 1 if a new device joined un-securely
   3031           *                      - 2 if a device left the network
   3032           *
   3033           * @return      true if newly joined device should be allowed to
   3034           *                                              remain on network
   3035           */

   \                                 In  segment BANKED_CODE, align 1, keep-with-next
   3036          ZStatus_t ZDO_UpdateDeviceIndication( uint8 *extAddr, uint8 status )
   \                     ZDO_UpdateDeviceIndication:
   3037          {
   \   000000                ; Saved register size: 0
   \   000000                ; Auto size: 0
   3038            // can implement a network access policy based on the
   3039            // IEEE address of newly joining devices...
   3040            (void)extAddr;
   3041            (void)status;
   3042          
   3043            return ZSuccess;
   \   000000   02....       LJMP    ?Subroutine5 & 0xFFFF
   3044          }
   3045          
   3046          /*********************************************************************
   3047           * @fn          ZDApp_InMsgCB
   3048           *
   3049           * @brief       This function is called to pass up any message that is
   3050           *              not yet supported.  This allows for the developer to
   3051           *              support features themselves..
   3052           *
   3053           * @return      none
   3054           */

   \                                 In  segment BANKED_CODE, align 1, keep-with-next
   3055          void ZDApp_InMsgCB( zdoIncomingMsg_t *inMsg )
   \                     ZDApp_InMsgCB:
   3056          {
   \   000000                REQUIRE ?V0
   \   000000                REQUIRE ?V1
   \   000000   74F6         MOV     A,#-0xa
   \   000002   12....       LCALL   ?BANKED_ENTER_XDATA
   \   000005                ; Saved register size: 10
   \   000005                ; Auto size: 0
   \   000005   EA           MOV     A,R2
   \   000006   FE           MOV     R6,A
   \   000007   EB           MOV     A,R3
   \   000008   FF           MOV     R7,A
   3057            if ( inMsg->clusterID & ZDO_RESPONSE_BIT )
   \   000009   12....       LCALL   ?Subroutine44 & 0xFFFF
   \                     ??CrossCallReturnLabel_54:
   \   00000C   A3           INC     DPTR
   \   00000D   E0           MOVX    A,@DPTR
   \   00000E   5480         ANL     A,#0x80
   \   000010   7041         JNZ     ??ZDApp_InMsgCB_0
   3058            {
   3059              // Handle the response message
   3060            }
   3061            else
   3062            {
   3063              // Handle the request message by sending a generic "not supported".
   3064              // Device Announce doesn't have a response.
   3065              if ( !(inMsg->wasBroadcast) && inMsg->clusterID != Device_annce )
   \   000012   12....       LCALL   ?Subroutine33 & 0xFFFF
   \                     ??CrossCallReturnLabel_123:
   \   000015   703C         JNZ     ??ZDApp_InMsgCB_0
   \   000017   12....       LCALL   ?Subroutine32 & 0xFFFF
   \                     ??CrossCallReturnLabel_33:
   \   00001A   6413         XRL     A,#0x13
   \   00001C   7002         JNZ     ??ZDApp_InMsgCB_1
   \   00001E   A3           INC     DPTR
   \   00001F   E0           MOVX    A,@DPTR
   \                     ??ZDApp_InMsgCB_1:
   \   000020   6031         JZ      ??ZDApp_InMsgCB_0
   3066              {
   3067                ZDP_GenericRsp( inMsg->TransSeq, &(inMsg->srcAddr), ZDP_NOT_SUPPORTED, 0,
   3068                                (uint16)(inMsg->clusterID | ZDO_RESPONSE_BIT), inMsg->SecurityUse );
   \   000022                ; Setup parameters for call to function ZDP_GenericRsp
   \   000022   12....       LCALL   ?Subroutine31 & 0xFFFF
   3069              }
   3070            }
   \                     ??CrossCallReturnLabel_28:
   \   000025   4480         ORL     A,#0x80
   \   000027   F5..         MOV     ?V1,A
   \   000029   78..         MOV     R0,#?V0
   \   00002B   12....       LCALL   ?PUSH_XSTACK_I_TWO
   \   00002E   E4           CLR     A
   \   00002F   F5..         MOV     ?V0,A
   \   000031   F5..         MOV     ?V1,A
   \   000033   78..         MOV     R0,#?V0
   \   000035   12....       LCALL   ?PUSH_XSTACK_I_TWO
   \   000038   EE           MOV     A,R6
   \   000039   240E         ADD     A,#0xe
   \   00003B   12....       LCALL   ??Subroutine58_0 & 0xFFFF
   \                     ??CrossCallReturnLabel_117:
   \   00003E   FD           MOV     R5,A
   \   00003F   7C84         MOV     R4,#-0x7c
   \   000041   12....       LCALL   ?Subroutine35 & 0xFFFF
   \                     ??CrossCallReturnLabel_38:
   \   000044   EE           MOV     A,R6
   \   000045   240F         ADD     A,#0xf
   \   000047   12....       LCALL   ??Subroutine58_0 & 0xFFFF
   \                     ??CrossCallReturnLabel_118:
   \   00004A   F9           MOV     R1,A
   \   00004B   12....       LCALL   ??ZDP_GenericRsp?relay; Banked call to: ZDP_GenericRsp
   \   00004E   7404         MOV     A,#0x4
   \   000050   12....       LCALL   ?DEALLOC_XSTACK8
   3071          }
   \                     ??ZDApp_InMsgCB_0:
   \   000053   02....       LJMP    ??Subroutine52_0 & 0xFFFF
   3072          
   3073          
   3074          /*********************************************************************
   3075           * @fn      ZDApp_ChangeMatchDescRespPermission()
   3076           *
   3077           * @brief   Changes the Match Descriptor Response permission.
   3078           *
   3079           * @param   endpoint - endpoint to allow responses
   3080           * @param   action - true to allow responses, false to not
   3081           *
   3082           * @return  none
   3083           */

   \                                 In  segment BANKED_CODE, align 1, keep-with-next
   3084          void ZDApp_ChangeMatchDescRespPermission( uint8 endpoint, uint8 action )
   \                     ZDApp_ChangeMatchDescRespPermission:
   3085          {
   \   000000   74F7         MOV     A,#-0x9
   \   000002   12....       LCALL   ?BANKED_ENTER_XDATA
   \   000005                ; Saved register size: 9
   \   000005                ; Auto size: 0
   3086            // Store the action
   3087            afSetMatch( endpoint, action );
   \   000005                ; Setup parameters for call to function afSetMatch
   \   000005   12....       LCALL   ??afSetMatch?relay   ; Banked call to: afSetMatch
   3088          }
   \   000008   02....       LJMP    ??Subroutine56_0 & 0xFFFF
   3089          
   3090          /*********************************************************************
   3091           * @fn      ZDApp_NetworkInit()
   3092           *
   3093           * @brief   Used to start the network joining process
   3094           *
   3095           * @param   delay - mSec delay to wait before starting
   3096           *
   3097           * @return  none
   3098           */

   \                                 In  segment BANKED_CODE, align 1, keep-with-next
   3099          void ZDApp_NetworkInit( uint16 delay )
   \                     ZDApp_NetworkInit:
   3100          {
   \   000000                REQUIRE ?V0
   \   000000                REQUIRE ?V1
   \   000000                REQUIRE ?V2
   \   000000                REQUIRE ?V3
   \   000000   74F4         MOV     A,#-0xc
   \   000002   12....       LCALL   ?BANKED_ENTER_XDATA
   \   000005                ; Saved register size: 12
   \   000005                ; Auto size: 0
   3101            if ( delay )
   \   000005   EA           MOV     A,R2
   \   000006   4B           ORL     A,R3
   \   000007   6021         JZ      ??ZDApp_NetworkInit_0
   3102            {
   3103              // Wait awhile before starting the device
   3104              osal_start_timerEx( ZDAppTaskID, ZDO_NETWORK_INIT, delay );
   \   000009                ; Setup parameters for call to function osal_start_timerEx
   \   000009   8A..         MOV     ?V0,R2
   \   00000B   8B..         MOV     ?V1,R3
   \   00000D   E4           CLR     A
   \   00000E   F5..         MOV     ?V2,A
   \   000010   F5..         MOV     ?V3,A
   \   000012   78..         MOV     R0,#?V0
   \   000014   12....       LCALL   ?PUSH_XSTACK_I_FOUR
   \   000017   7A01         MOV     R2,#0x1
   \   000019   7B00         MOV     R3,#0x0
   \   00001B   90....       MOV     DPTR,#ZDAppTaskID
   \   00001E   E0           MOVX    A,@DPTR
   \   00001F   F9           MOV     R1,A
   \   000020   12....       LCALL   ??osal_start_timerEx?relay; Banked call to: osal_start_timerEx
   \   000023   7404         MOV     A,#0x4
   \   000025   12....       LCALL   ?DEALLOC_XSTACK8
   \   000028   800C         SJMP    ??ZDApp_NetworkInit_1
   3105            }
   3106            else
   3107            {
   3108              osal_set_event( ZDAppTaskID, ZDO_NETWORK_INIT );
   \                     ??ZDApp_NetworkInit_0:
   \   00002A                ; Setup parameters for call to function osal_set_event
   \   00002A   7A01         MOV     R2,#0x1
   \   00002C   7B00         MOV     R3,#0x0
   \   00002E   90....       MOV     DPTR,#ZDAppTaskID
   \   000031   E0           MOVX    A,@DPTR
   \   000032   F9           MOV     R1,A
   \   000033   12....       LCALL   ??osal_set_event?relay; Banked call to: osal_set_event
   3109            }
   3110          }
   \                     ??ZDApp_NetworkInit_1:
   \   000036   02....       LJMP    ??Subroutine45_0 & 0xFFFF
   3111          
   3112          /*********************************************************************
   3113           * @fn      ZDApp_NwkStateUpdateCB()
   3114           *
   3115           * @brief   This function notifies that this device's network
   3116           *          state info has been changed.
   3117           *
   3118           * @param   none
   3119           *
   3120           * @return  none
   3121           */

   \                                 In  segment BANKED_CODE, align 1, keep-with-next
   3122          void ZDApp_NwkStateUpdateCB( void )
   \                     ZDApp_NwkStateUpdateCB:
   3123          {
   \   000000   C082         PUSH    DPL
   \   000002   C083         PUSH    DPH
   \   000004                ; Saved register size: 2
   \   000004                ; Auto size: 0
   3124            // Notify to save info into NV
   3125            if ( !osal_get_timeoutEx( ZDAppTaskID, ZDO_NWK_UPDATE_NV ) )
   \   000004                ; Setup parameters for call to function osal_get_timeoutEx
   \   000004   7A00         MOV     R2,#0x0
   \   000006   7B01         MOV     R3,#0x1
   \   000008   90....       MOV     DPTR,#ZDAppTaskID
   \   00000B   E0           MOVX    A,@DPTR
   \   00000C   F9           MOV     R1,A
   \   00000D   12....       LCALL   ??osal_get_timeoutEx?relay; Banked call to: osal_get_timeoutEx
   3126            {
   3127              // Trigger to save info into NV
   3128              ZDApp_NVUpdate();
   3129            }
   3130          }
   \   000010   02....       LJMP    ??Subroutine50_0 & 0xFFFF
   3131          
   3132          /*********************************************************************
   3133           * @fn      ZDApp_NodeProfileSync()
   3134           *
   3135           * @brief   Sync node with stack profile.
   3136           *
   3137           * @param   stackProfile - stack profile of the network to join
   3138           *
   3139           * @return  none
   3140           */

   \                                 In  segment BANKED_CODE, align 1, keep-with-next
   3141          void ZDApp_NodeProfileSync( uint8 stackProfile )
   \                     ZDApp_NodeProfileSync:
   3142          {
   \   000000   74F7         MOV     A,#-0x9
   \   000002   12....       LCALL   ?BANKED_ENTER_XDATA
   \   000005                ; Saved register size: 9
   \   000005                ; Auto size: 0
   \   000005   E9           MOV     A,R1
   \   000006   FE           MOV     R6,A
   3143            if ( ZDO_Config_Node_Descriptor.CapabilityFlags & CAPINFO_DEVICETYPE_FFD  )
   \   000007   90....       MOV     DPTR,#ZDO_Config_Node_Descriptor + 2
   \   00000A   E0           MOVX    A,@DPTR
   \   00000B   A2E1         MOV     C,0xE0 /* A   */.1
   \   00000D   501A         JNC     ??ZDApp_NodeProfileSync_0
   3144            {
   3145              if ( stackProfile != zgStackProfile )
   \   00000F   90....       MOV     DPTR,#zgStackProfile
   \   000012   E0           MOVX    A,@DPTR
   \   000013   6E           XRL     A,R6
   \   000014   6013         JZ      ??ZDApp_NodeProfileSync_0
   3146              {
   3147                ZDO_Config_Node_Descriptor.LogicalType = NODETYPE_DEVICE;
   \   000016   90....       MOV     DPTR,#ZDO_Config_Node_Descriptor
   \   000019   E0           MOVX    A,@DPTR
   \   00001A   54F8         ANL     A,#0xf8
   \   00001C   4402         ORL     A,#0x2
   \   00001E   F0           MOVX    @DPTR,A
   3148                ZDO_Config_Node_Descriptor.CapabilityFlags = CAPINFO_DEVICETYPE_RFD | CAPINFO_POWER_AC | CAPINFO_RCVR_ON_IDLE;
   \   00001F   90....       MOV     DPTR,#ZDO_Config_Node_Descriptor + 2
   \   000022   740C         MOV     A,#0xc
   \   000024   F0           MOVX    @DPTR,A
   3149                NLME_SetBroadcastFilter( ZDO_Config_Node_Descriptor.CapabilityFlags );
   \   000025                ; Setup parameters for call to function NLME_SetBroadcastFilter
   \   000025   F9           MOV     R1,A
   \   000026   12....       LCALL   ??NLME_SetBroadcastFilter?relay; Banked call to: NLME_SetBroadcastFilter
   3150              }
   3151            }
   3152          }
   \                     ??ZDApp_NodeProfileSync_0:
   \   000029   02....       LJMP    ??Subroutine56_0 & 0xFFFF
   3153          
   3154          /*********************************************************************
   3155           * @fn      ZDApp_StartJoiningCycle()
   3156           *
   3157           * @brief   Starts the joining cycle of a device.  This will only
   3158           *          continue an already started (or stopped) joining cycle.
   3159           *
   3160           * @param   none
   3161           *
   3162           * @return  TRUE if joining stopped, FALSE if joining or rejoining
   3163           */

   \                                 In  segment BANKED_CODE, align 1, keep-with-next
   3164          uint8 ZDApp_StartJoiningCycle( void )
   \                     ZDApp_StartJoiningCycle:
   3165          {
   \   000000   C082         PUSH    DPL
   \   000002   C083         PUSH    DPH
   \   000004                ; Saved register size: 2
   \   000004                ; Auto size: 0
   3166            if ( devState == DEV_INIT || devState == DEV_NWK_DISC )
   \   000004   90....       MOV     DPTR,#devState
   \   000007   E0           MOVX    A,@DPTR
   \   000008   6401         XRL     A,#0x1
   \   00000A   6005         JZ      ??ZDApp_StartJoiningCycle_0
   \   00000C   E0           MOVX    A,@DPTR
   \   00000D   6402         XRL     A,#0x2
   \   00000F   7011         JNZ     ??ZDApp_StartJoiningCycle_1
   3167            {
   3168              continueJoining = TRUE;
   \                     ??ZDApp_StartJoiningCycle_0:
   \   000011   90....       MOV     DPTR,#continueJoining
   \   000014   7401         MOV     A,#0x1
   \   000016   F0           MOVX    @DPTR,A
   3169              ZDApp_NetworkInit( 0 );
   \   000017                ; Setup parameters for call to function ZDApp_NetworkInit
   \   000017   7A00         MOV     R2,#0x0
   \   000019   7B00         MOV     R3,#0x0
   \   00001B   12....       LCALL   ??ZDApp_NetworkInit?relay; Banked call to: ZDApp_NetworkInit
   3170          
   3171              return ( TRUE );
   \   00001E   7901         MOV     R1,#0x1
   \   000020   8002         SJMP    ??ZDApp_StartJoiningCycle_2
   3172            }
   3173            else
   3174              return ( FALSE );
   \                     ??ZDApp_StartJoiningCycle_1:
   \   000022   7900         MOV     R1,#0x0
   \                     ??ZDApp_StartJoiningCycle_2:
   \   000024   02....       LJMP    ??Subroutine50_0 & 0xFFFF
   3175          }
   3176          
   3177          /*********************************************************************
   3178           * @fn      ZDApp_StopJoiningCycle()
   3179           *
   3180           * @brief   Stops the joining or rejoining process of a device.
   3181           *
   3182           * @param   none
   3183           *
   3184           * @return  TRUE if joining stopped, FALSE if joining or rejoining
   3185           */

   \                                 In  segment BANKED_CODE, align 1, keep-with-next
   3186          uint8 ZDApp_StopJoiningCycle( void )
   \                     ZDApp_StopJoiningCycle:
   3187          {
   \   000000   C082         PUSH    DPL
   \   000002   C083         PUSH    DPH
   \   000004                ; Saved register size: 2
   \   000004                ; Auto size: 0
   3188            if ( devState == DEV_INIT || devState == DEV_NWK_DISC )
   \   000004   90....       MOV     DPTR,#devState
   \   000007   E0           MOVX    A,@DPTR
   \   000008   6401         XRL     A,#0x1
   \   00000A   6005         JZ      ??ZDApp_StopJoiningCycle_0
   \   00000C   E0           MOVX    A,@DPTR
   \   00000D   6402         XRL     A,#0x2
   \   00000F   7009         JNZ     ??ZDApp_StopJoiningCycle_1
   3189            {
   3190              continueJoining = FALSE;
   \                     ??ZDApp_StopJoiningCycle_0:
   \   000011   90....       MOV     DPTR,#continueJoining
   \   000014   E4           CLR     A
   \   000015   F0           MOVX    @DPTR,A
   3191              return ( TRUE );
   \   000016   7901         MOV     R1,#0x1
   \   000018   8002         SJMP    ??ZDApp_StopJoiningCycle_2
   3192            }
   3193            else
   3194              return ( FALSE );
   \                     ??ZDApp_StopJoiningCycle_1:
   \   00001A   7900         MOV     R1,#0x0
   \                     ??ZDApp_StopJoiningCycle_2:
   \   00001C   02....       LJMP    ??Subroutine50_0 & 0xFFFF
   3195          }
   3196          
   3197          /*********************************************************************
   3198           * @fn      ZDApp_AnnounceNewAddress()
   3199           *
   3200           * @brief   Send Device Announce and hold all transmissions for
   3201           *          new address timeout.
   3202           *
   3203           * @param   none
   3204           *
   3205           * @return  none
   3206           */

   \                                 In  segment BANKED_CODE, align 1, keep-with-next
   3207          void ZDApp_AnnounceNewAddress( void )
   \                     ZDApp_AnnounceNewAddress:
   3208          {
   \   000000                REQUIRE ?V0
   \   000000                REQUIRE ?V1
   \   000000   74F6         MOV     A,#-0xa
   \   000002   12....       LCALL   ?BANKED_ENTER_XDATA
   \   000005                ; Saved register size: 10
   \   000005                ; Auto size: 0
   3209          #if defined ( ZIGBEE_NWK_UNIQUE_ADDR_CHECK )
   3210            // Turn off data request hold
   3211            APSME_HoldDataRequests( 0 );
   \   000005                ; Setup parameters for call to function APSME_HoldDataRequests
   \   000005   7A00         MOV     R2,#0x0
   \   000007   7B00         MOV     R3,#0x0
   \   000009   12....       LCALL   ??APSME_HoldDataRequests?relay; Banked call to: APSME_HoldDataRequests
   3212          #endif
   3213          
   3214            ZDP_DeviceAnnce( NLME_GetShortAddr(), NLME_GetExtAddr(),
   3215                               ZDO_Config_Node_Descriptor.CapabilityFlags, 0 );
   \   00000C                ; Setup parameters for call to function NLME_GetExtAddr
   \   00000C   12....       LCALL   ??NLME_GetExtAddr?relay; Banked call to: NLME_GetExtAddr
   \   00000F   8A..         MOV     ?V0,R2
   \   000011   8B..         MOV     ?V1,R3
   \   000013   AE..         MOV     R6,?V0
   \   000015                ; Setup parameters for call to function NLME_GetShortAddr
   \   000015   12....       LCALL   ??NLME_GetShortAddr?relay; Banked call to: NLME_GetShortAddr
   \   000018                ; Setup parameters for call to function ZDP_DeviceAnnce
   \   000018   75..00       MOV     ?V0,#0x0
   \   00001B   78..         MOV     R0,#?V0
   \   00001D   12....       LCALL   ?PUSH_XSTACK_I_ONE
   \   000020   90....       MOV     DPTR,#ZDO_Config_Node_Descriptor + 2
   \   000023   E0           MOVX    A,@DPTR
   \   000024   F9           MOV     R1,A
   \   000025   EE           MOV     A,R6
   \   000026   FC           MOV     R4,A
   \   000027   AD..         MOV     R5,?V1
   \   000029   12....       LCALL   ??ZDP_DeviceAnnce?relay; Banked call to: ZDP_DeviceAnnce
   \   00002C   7401         MOV     A,#0x1
   \   00002E   12....       LCALL   ?DEALLOC_XSTACK8
   3216          
   3217          #if defined ( ZIGBEE_NWK_UNIQUE_ADDR_CHECK )
   3218            // Setup the timeout
   3219            APSME_HoldDataRequests( ZDAPP_HOLD_DATA_REQUESTS_TIMEOUT );
   \   000031                ; Setup parameters for call to function APSME_HoldDataRequests
   \   000031   7A00         MOV     R2,#0x0
   \   000033   7B00         MOV     R3,#0x0
   \   000035   12....       LCALL   ??APSME_HoldDataRequests?relay; Banked call to: APSME_HoldDataRequests
   3220          #endif
   3221          }
   \   000038   02....       LJMP    ??Subroutine52_0 & 0xFFFF
   3222          
   3223          /*********************************************************************
   3224           * @fn          ZDApp_NVUpdate
   3225           *
   3226           * @brief       Set the NV Update Timer.
   3227           *
   3228           * @param       none
   3229           *
   3230           * @return      none
   3231           */

   \                                 In  segment BANKED_CODE, align 1, keep-with-next
   3232          void ZDApp_NVUpdate( void )
   \                     ZDApp_NVUpdate:
   3233          {
   \   000000                ; Saved register size: 0
   \   000000                ; Auto size: 0
   3234          #if defined ( NV_RESTORE )
   3235            osal_start_timerEx( ZDAppTaskID, ZDO_NWK_UPDATE_NV, ZDAPP_UPDATE_NWK_NV_TIME );
   3236          #endif
   3237          }
   \   000000   02....       LJMP    ?BRET
   3238          
   3239          /*********************************************************************
   3240           * @fn      ZDApp_CoordStartPANIDConflictCB()
   3241           *
   3242           * @brief   Returns a PAN ID for the network layer to use during
   3243           *          a coordinator start and there is another network with
   3244           *          the intended PANID.
   3245           *
   3246           * @param   panid - the intended PAN ID
   3247           *
   3248           * @return  PANID to try
   3249           */

   \                                 In  segment BANKED_CODE, align 1, keep-with-next
   3250          uint16 ZDApp_CoordStartPANIDConflictCB( uint16 panid )
   \                     ZDApp_CoordStartPANIDConflictCB:
   3251          {
   \   000000                ; Saved register size: 0
   \   000000                ; Auto size: 0
   3252            return ( panid + 1 );
   \   000000   EA           MOV     A,R2
   \   000001   2401         ADD     A,#0x1
   \   000003   0A           INC     R2
   \   000004   5001         JNC     ??ZDApp_CoordStartPANIDConflictCB_0
   \   000006   0B           INC     R3
   \                     ??ZDApp_CoordStartPANIDConflictCB_0:
   \   000007   02....       LJMP    ?BRET
   3253          }
   3254          
   3255          /*********************************************************************
   3256           * @fn          ZDO_SrcRtgIndCB
   3257           *
   3258           * @brief       This function notifies the ZDO available src route record received.
   3259           *
   3260           * @param       srcAddr - source address of the source route
   3261           * @param       relayCnt - number of devices in the relay list
   3262           * @param       relayList - relay list of the source route
   3263           *
   3264           * @return      none
   3265           */

   \                                 In  segment BANKED_CODE, align 1, keep-with-next
   3266          void ZDO_SrcRtgIndCB (uint16 srcAddr, uint8 relayCnt, uint16* pRelayList )
   \                     ZDO_SrcRtgIndCB:
   3267          {
   \   000000   74F7         MOV     A,#-0x9
   \   000002   12....       LCALL   ?BANKED_ENTER_XDATA
   \   000005                ; Saved register size: 9
   \   000005                ; Auto size: 5
   \   000005   74FB         MOV     A,#-0x5
   \   000007   12....       LCALL   ?ALLOC_XSTACK8
   3268            zdoSrcRtg_t srcRtg;
   3269          
   3270            srcRtg.srcAddr = srcAddr;
   \   00000A   12....       LCALL   ?Subroutine14 & 0xFFFF
   3271            srcRtg.relayCnt = relayCnt;
   \                     ??CrossCallReturnLabel_61:
   \   00000D   7402         MOV     A,#0x2
   \   00000F   12....       LCALL   ?XSTACK_DISP0_8
   \   000012   E9           MOV     A,R1
   \   000013   F0           MOVX    @DPTR,A
   3272            srcRtg.pRelayList = pRelayList;
   \   000014   7403         MOV     A,#0x3
   \   000016   12....       LCALL   ?XSTACK_DISP0_8
   \   000019   EC           MOV     A,R4
   \   00001A   F0           MOVX    @DPTR,A
   \   00001B   A3           INC     DPTR
   \   00001C   ED           MOV     A,R5
   \   00001D   F0           MOVX    @DPTR,A
   3273          
   3274            if( zdoCBFunc[ZDO_SRC_RTG_IND_CBID] != NULL )
   \   00001E   90....       MOV     DPTR,#zdoCBFunc
   \   000021   12....       LCALL   ??Subroutine55_0 & 0xFFFF
   \                     ??CrossCallReturnLabel_98:
   \   000024   6006         JZ      ??ZDO_SrcRtgIndCB_0
   3275            {
   3276              zdoCBFunc[ZDO_SRC_RTG_IND_CBID]( (void*)&srcRtg );
   \   000026                ; Setup parameters for indirect call
   \   000026   12....       LCALL   ?Subroutine18 & 0xFFFF
   3277            }
   \                     ??CrossCallReturnLabel_115:
   \   000029   12....       LCALL   ?CALL_IND
   3278          }
   \                     ??ZDO_SrcRtgIndCB_0:
   \   00002C   02....       LJMP    ?Subroutine8 & 0xFFFF
   3279          
   3280          /*********************************************************************
   3281           * @fn          ZDApp_InitZdoCBFunc
   3282           *
   3283           * @brief       Call this function to initialize zdoCBFunc[]
   3284           *
   3285           * @param       none
   3286           *
   3287           * @return      none
   3288           */

   \                                 In  segment BANKED_CODE, align 1, keep-with-next
   3289          void ZDApp_InitZdoCBFunc( void )
   \                     ZDApp_InitZdoCBFunc:
   3290          {
   \   000000   C082         PUSH    DPL
   \   000002   C083         PUSH    DPH
   \   000004                ; Saved register size: 2
   \   000004                ; Auto size: 0
   3291            uint8 i;
   3292          
   3293            for ( i=0; i< MAX_ZDO_CB_FUNC; i++ )
   \   000004   7A00         MOV     R2,#0x0
   3294            {
   3295              zdoCBFunc[i] = NULL;
   \                     ??ZDApp_InitZdoCBFunc_0:
   \   000006   EA           MOV     A,R2
   \   000007   25E0         ADD     A,0xE0 /* A   */
   \   000009   12....       LCALL   ?Subroutine41 & 0xFFFF
   3296            }
   \                     ??CrossCallReturnLabel_48:
   \   00000C   E4           CLR     A
   \   00000D   F0           MOVX    @DPTR,A
   \   00000E   A3           INC     DPTR
   \   00000F   F0           MOVX    @DPTR,A
   \   000010   0A           INC     R2
   \   000011   EA           MOV     A,R2
   \   000012   C3           CLR     C
   \   000013   9409         SUBB    A,#0x9
   \   000015   40EF         JC      ??ZDApp_InitZdoCBFunc_0
   3297          }
   \   000017   02....       LJMP    ??Subroutine50_0 & 0xFFFF

   \                                 In  segment BANKED_CODE, align 1, keep-with-next
   \                     ?Subroutine41:
   \   000000   F8           MOV     R0,A
   \   000001   E4           CLR     A
   \   000002   33           RLC     A
   \   000003   F9           MOV     R1,A
   \   000004   74..         MOV     A,#zdoCBFunc & 0xff
   \   000006   28           ADD     A,R0
   \   000007   F582         MOV     DPL,A
   \   000009   74..         MOV     A,#(zdoCBFunc >> 8) & 0xff
   \   00000B   39           ADDC    A,R1
   \   00000C   F583         MOV     DPH,A
   \   00000E   22           RET
   3298          
   3299          /*********************************************************************
   3300           * @fn          ZDO_RegisterForZdoCB
   3301           *
   3302           * @brief       Call this function to register the higher layer (for
   3303           *              example, the Application layer or MT layer) with ZDO
   3304           *              callbacks to get notified of some ZDO indication like
   3305           *              existence of a concentrator or receipt of a source
   3306           *              route record.
   3307           *
   3308           * @param       indID - ZDO Indication ID
   3309           * @param       pFn   - Callback function pointer
   3310           *
   3311           * @return      ZSuccess - successful, ZInvalidParameter if not
   3312           */

   \                                 In  segment BANKED_CODE, align 1, keep-with-next
   3313          ZStatus_t ZDO_RegisterForZdoCB( uint8 indID, pfnZdoCb pFn )
   \                     ZDO_RegisterForZdoCB:
   3314          {
   \   000000   C082         PUSH    DPL
   \   000002   C083         PUSH    DPH
   \   000004                ; Saved register size: 2
   \   000004                ; Auto size: 0
   \   000004   E9           MOV     A,R1
   \   000005   FC           MOV     R4,A
   3315            // Check the range of the indication ID
   3316            if ( indID < MAX_ZDO_CB_FUNC )
   \   000006   C3           CLR     C
   \   000007   9409         SUBB    A,#0x9
   \   000009   500B         JNC     ??ZDO_RegisterForZdoCB_0
   3317            {
   3318              zdoCBFunc[indID] = pFn;
   \   00000B   EC           MOV     A,R4
   \   00000C   12....       LCALL   ?Subroutine30 & 0xFFFF
   \                     ??CrossCallReturnLabel_25:
   \   00000F   12....       LCALL   ??Subroutine46_0 & 0xFFFF
   3319              return ZSuccess;
   \                     ??CrossCallReturnLabel_57:
   \   000012   7900         MOV     R1,#0x0
   \   000014   8002         SJMP    ??ZDO_RegisterForZdoCB_1
   3320            }
   3321          
   3322            return ZInvalidParameter;
   \                     ??ZDO_RegisterForZdoCB_0:
   \   000016   7902         MOV     R1,#0x2
   \                     ??ZDO_RegisterForZdoCB_1:
   \   000018   02....       LJMP    ??Subroutine50_0 & 0xFFFF
   3323          }

   \                                 In  segment BANKED_CODE, align 1, keep-with-next
   \                     ?Subroutine30:
   \   000000   29           ADD     A,R1
   \   000001   12....       LCALL   ?Subroutine41 & 0xFFFF
   \                     ??CrossCallReturnLabel_49:
   \   000004   22           RET
   3324          
   3325          /*********************************************************************
   3326           * @fn          ZDO_DeregisterForZdoCB
   3327           *
   3328           * @brief       Call this function to de-register the higher layer (for
   3329           *              example, the Application layer or MT layer) with ZDO
   3330           *              callbacks to get notified of some ZDO indication like
   3331           *              existence of a concentrator or receipt of a source
   3332           *              route record.
   3333           *
   3334           * @param       indID - ZDO Indication ID
   3335           *
   3336           * @return      ZSuccess - successful, ZInvalidParameter if not
   3337           */

   \                                 In  segment BANKED_CODE, align 1, keep-with-next
   3338          ZStatus_t ZDO_DeregisterForZdoCB( uint8 indID )
   \                     ZDO_DeregisterForZdoCB:
   3339          {
   \   000000   C082         PUSH    DPL
   \   000002   C083         PUSH    DPH
   \   000004                ; Saved register size: 2
   \   000004                ; Auto size: 0
   \   000004   E9           MOV     A,R1
   \   000005   FA           MOV     R2,A
   3340            // Check the range of the indication ID
   3341            if ( indID < MAX_ZDO_CB_FUNC )
   \   000006   C3           CLR     C
   \   000007   9409         SUBB    A,#0x9
   \   000009   500B         JNC     ??ZDO_DeregisterForZdoCB_0
   3342            {
   3343              zdoCBFunc[indID] = NULL;
   \   00000B   EA           MOV     A,R2
   \   00000C   12....       LCALL   ?Subroutine30 & 0xFFFF
   \                     ??CrossCallReturnLabel_26:
   \   00000F   E4           CLR     A
   \   000010   F0           MOVX    @DPTR,A
   \   000011   A3           INC     DPTR
   \   000012   F0           MOVX    @DPTR,A
   3344              return ZSuccess;
   \   000013   F9           MOV     R1,A
   \   000014   8002         SJMP    ??ZDO_DeregisterForZdoCB_1
   3345            }
   3346          
   3347            return ZInvalidParameter;
   \                     ??ZDO_DeregisterForZdoCB_0:
   \   000016   7902         MOV     R1,#0x2
   \                     ??ZDO_DeregisterForZdoCB_1:
   \   000018   02....       LJMP    ??Subroutine50_0 & 0xFFFF
   3348          }
   3349          
   3350          #if !defined ( ZDP_BIND_SKIP_VALIDATION )
   3351          #if defined ( REFLECTOR )
   3352          /*********************************************************************
   3353           * @fn          ZDApp_SetPendingBindDefault
   3354           *
   3355           * @brief       This function initializes a specific entry of pending
   3356           *              Bind Request.
   3357           *
   3358           * @param       pendBindReq - pointer to the entry in the table
   3359           *
   3360           * @return      none
   3361           */

   \                                 In  segment BANKED_CODE, align 1, keep-with-next
   3362          void ZDApp_SetPendingBindDefault( ZDO_PendingBindReq_t *pendBindReq )
   \                     ZDApp_SetPendingBindDefault:
   3363          {
   \   000000   74F7         MOV     A,#-0x9
   \   000002   12....       LCALL   ?BANKED_ENTER_XDATA
   \   000005                ; Saved register size: 9
   \   000005                ; Auto size: 0
   \   000005   EA           MOV     A,R2
   \   000006   FE           MOV     R6,A
   \   000007   EB           MOV     A,R3
   \   000008   FF           MOV     R7,A
   3364            // Set it to an initial value
   3365            osal_memset( pendBindReq, 0xFF, sizeof( ZDO_PendingBindReq_t ) );
   \   000009                ; Setup parameters for call to function osal_memset
   \   000009   7C21         MOV     R4,#0x21
   \   00000B   7D00         MOV     R5,#0x0
   \   00000D   79FF         MOV     R1,#-0x1
   \   00000F   12....       LCALL   ??osal_memset?relay  ; Banked call to: osal_memset
   3366          
   3367            // We are checking for age 0 for aged-out records
   3368            pendBindReq->age = 0;
   \   000012   EE           MOV     A,R6
   \   000013   2420         ADD     A,#0x20
   \   000015   F582         MOV     DPL,A
   \   000017   E4           CLR     A
   \   000018   3F           ADDC    A,R7
   \   000019   F583         MOV     DPH,A
   \   00001B   E4           CLR     A
   \   00001C   F0           MOVX    @DPTR,A
   3369          }
   \   00001D   02....       LJMP    ??Subroutine56_0 & 0xFFFF
   3370          
   3371          /*********************************************************************
   3372           * @fn          ZDApp_InitPendingBind
   3373           *
   3374           * @brief       This function initializes the buffer that holds
   3375           *              pending Bind Request messages if no valid NWK address
   3376           *              exists in Address Manager and a Network Address Req
   3377           *              has been sent out.
   3378           *
   3379           * @param       none
   3380           *
   3381           * @return      none
   3382           */

   \                                 In  segment BANKED_CODE, align 1, keep-with-next
   \                     ?Subroutine15:
   \   000000   90....       MOV     DPTR,#ZDAppPendingBindReq
   \   000003                REQUIRE ??Subroutine55_0
   \   000003                ; // Fall through to label ??Subroutine55_0

   \                                 In  segment BANKED_CODE, align 1, keep-with-next
   3383          void ZDApp_InitPendingBind( void )
   \                     ZDApp_InitPendingBind:
   3384          {
   \   000000   74F7         MOV     A,#-0x9
   \   000002   12....       LCALL   ?BANKED_ENTER_XDATA
   \   000005                ; Saved register size: 9
   \   000005                ; Auto size: 0
   3385            if ( ZDAppPendingBindReq == NULL )
   \   000005   12....       LCALL   ?Subroutine15 & 0xFFFF
   \                     ??CrossCallReturnLabel_99:
   \   000008   7030         JNZ     ??ZDApp_InitPendingBind_0
   3386            {
   3387              if ( ( ZDAppPendingBindReq = osal_mem_alloc( sizeof(ZDO_PendingBindReq_t) * MAX_PENDING_BIND_REQ ) ) != NULL )
   \   00000A                ; Setup parameters for call to function osal_mem_alloc
   \   00000A   7A63         MOV     R2,#0x63
   \   00000C   7B00         MOV     R3,#0x0
   \   00000E   12....       LCALL   ??osal_mem_alloc?relay; Banked call to: osal_mem_alloc
   \   000011   90....       MOV     DPTR,#ZDAppPendingBindReq
   \   000014   12....       LCALL   ??Subroutine46_0 & 0xFFFF
   \                     ??CrossCallReturnLabel_58:
   \   000017   12....       LCALL   ?Subroutine15 & 0xFFFF
   \                     ??CrossCallReturnLabel_100:
   \   00001A   601E         JZ      ??ZDApp_InitPendingBind_0
   3388              {
   3389                uint8 i;
   3390          
   3391                for ( i = 0; i < MAX_PENDING_BIND_REQ; i++ )
   \   00001C   7E00         MOV     R6,#0x0
   3392                {
   3393                  // Set to default values
   3394                  ZDApp_SetPendingBindDefault( &ZDAppPendingBindReq[i] );
   \                     ??ZDApp_InitPendingBind_1:
   \   00001E                ; Setup parameters for call to function ZDApp_SetPendingBindDefault
   \   00001E   EE           MOV     A,R6
   \   00001F   75F021       MOV     B,#0x21
   \   000022   A4           MUL     AB
   \   000023   F8           MOV     R0,A
   \   000024   A9F0         MOV     R1,B
   \   000026   90....       MOV     DPTR,#ZDAppPendingBindReq
   \   000029   E0           MOVX    A,@DPTR
   \   00002A   28           ADD     A,R0
   \   00002B   FA           MOV     R2,A
   \   00002C   A3           INC     DPTR
   \   00002D   E0           MOVX    A,@DPTR
   \   00002E   39           ADDC    A,R1
   \   00002F   FB           MOV     R3,A
   \   000030   12....       LCALL   ??ZDApp_SetPendingBindDefault?relay; Banked call to: ZDApp_SetPendingBindDefault
   3395                }
   \   000033   0E           INC     R6
   \   000034   EE           MOV     A,R6
   \   000035   C3           CLR     C
   \   000036   9403         SUBB    A,#0x3
   \   000038   40E4         JC      ??ZDApp_InitPendingBind_1
   3396              }
   3397            }
   3398          }
   \                     ??ZDApp_InitPendingBind_0:
   \   00003A   02....       LJMP    ??Subroutine56_0 & 0xFFFF
   3399          
   3400          /*********************************************************************
   3401           * @fn          ZDApp_GetEmptyPendingBindReq
   3402           *
   3403           * @brief       This function looks for an empty entry.
   3404           *
   3405           * @param       none
   3406           *
   3407           * @return      Pointer to entry
   3408           */

   \                                 In  segment BANKED_CODE, align 1, keep-with-next
   3409          ZDO_PendingBindReq_t *ZDApp_GetEmptyPendingBindReq( void )
   \                     ZDApp_GetEmptyPendingBindReq:
   3410          {
   \   000000   C082         PUSH    DPL
   \   000002   C083         PUSH    DPH
   \   000004                ; Saved register size: 2
   \   000004                ; Auto size: 0
   3411            uint8 i;
   3412          
   3413            if ( ZDAppPendingBindReq != NULL )
   \   000004   12....       LCALL   ?Subroutine15 & 0xFFFF
   \                     ??CrossCallReturnLabel_101:
   \   000007   602B         JZ      ??ZDApp_GetEmptyPendingBindReq_0
   3414            {
   3415              for ( i = 0; i < MAX_PENDING_BIND_REQ; i++ )
   \   000009   7A00         MOV     R2,#0x0
   3416              {
   3417                if ( ZDAppPendingBindReq[i].age == 0 )
   \                     ??ZDApp_GetEmptyPendingBindReq_1:
   \   00000B   EA           MOV     A,R2
   \   00000C   75F021       MOV     B,#0x21
   \   00000F   A4           MUL     AB
   \   000010   F8           MOV     R0,A
   \   000011   ABF0         MOV     R3,B
   \   000013   EB           MOV     A,R3
   \   000014   12....       LCALL   ??Subroutine60_0 & 0xFFFF
   \                     ??CrossCallReturnLabel_124:
   \   000017   7014         JNZ     ??ZDApp_GetEmptyPendingBindReq_2
   3418                {
   3419                  return ( &ZDAppPendingBindReq[i] );
   \   000019   EA           MOV     A,R2
   \   00001A   75F021       MOV     B,#0x21
   \   00001D   A4           MUL     AB
   \   00001E   F8           MOV     R0,A
   \   00001F   EB           MOV     A,R3
   \   000020   F9           MOV     R1,A
   \   000021   90....       MOV     DPTR,#ZDAppPendingBindReq
   \   000024   E0           MOVX    A,@DPTR
   \   000025   28           ADD     A,R0
   \   000026   FA           MOV     R2,A
   \   000027   A3           INC     DPTR
   \   000028   E0           MOVX    A,@DPTR
   \   000029   39           ADDC    A,R1
   \   00002A   FB           MOV     R3,A
   \   00002B   800B         SJMP    ??ZDApp_GetEmptyPendingBindReq_3
   3420                }
   3421              }
   \                     ??ZDApp_GetEmptyPendingBindReq_2:
   \   00002D   0A           INC     R2
   \   00002E   EA           MOV     A,R2
   \   00002F   C3           CLR     C
   \   000030   9403         SUBB    A,#0x3
   \   000032   40D7         JC      ??ZDApp_GetEmptyPendingBindReq_1
   3422            }
   3423          
   3424            // No empty entry was found
   3425            return NULL;
   \                     ??ZDApp_GetEmptyPendingBindReq_0:
   \   000034   7A00         MOV     R2,#0x0
   \   000036   7B00         MOV     R3,#0x0
   \                     ??ZDApp_GetEmptyPendingBindReq_3:
   \   000038   02....       LJMP    ??Subroutine50_0 & 0xFFFF
   3426          }

   \                                 In  segment BANKED_CODE, align 1, keep-with-next
   \                     ??Subroutine60_0:
   \   000000   F9           MOV     R1,A
   \   000001   12....       LCALL   ?Subroutine40 & 0xFFFF
   \                     ??CrossCallReturnLabel_129:
   \   000004   2420         ADD     A,#0x20
   \   000006   F582         MOV     DPL,A
   \   000008   E4           CLR     A
   \   000009   39           ADDC    A,R1
   \   00000A   F583         MOV     DPH,A
   \   00000C   E0           MOVX    A,@DPTR
   \   00000D   22           RET

   \                                 In  segment BANKED_CODE, align 1, keep-with-next
   \                     ?Subroutine40:
   \   000000   90....       MOV     DPTR,#ZDAppPendingBindReq
   \   000003   E0           MOVX    A,@DPTR
   \   000004   28           ADD     A,R0
   \   000005   F8           MOV     R0,A
   \   000006   A3           INC     DPTR
   \   000007   E0           MOVX    A,@DPTR
   \   000008   39           ADDC    A,R1
   \   000009   F9           MOV     R1,A
   \   00000A   E8           MOV     A,R0
   \   00000B   22           RET
   3427          
   3428          /*********************************************************************
   3429           * @fn          ZDApp_ProcessPendingBindReq
   3430           *
   3431           * @brief       Process pending entry based on EXT address.
   3432           *
   3433           * @param       extAddr - of device to look up
   3434           *
   3435           * @return      none
   3436           */

   \                                 In  segment BANKED_CODE, align 1, keep-with-next
   3437          void ZDApp_ProcessPendingBindReq( uint8 *extAddr )
   \                     ZDApp_ProcessPendingBindReq:
   3438          {
   \   000000                REQUIRE ?V0
   \   000000                REQUIRE ?V1
   \   000000                REQUIRE ?V2
   \   000000                REQUIRE ?V3
   \   000000                REQUIRE ?V4
   \   000000                REQUIRE ?V5
   \   000000                REQUIRE ?V6
   \   000000   74F1         MOV     A,#-0xf
   \   000002   12....       LCALL   ?BANKED_ENTER_XDATA
   \   000005                ; Saved register size: 15
   \   000005                ; Auto size: 1
   \   000005   74FF         MOV     A,#-0x1
   \   000007   12....       LCALL   ?ALLOC_XSTACK8
   \   00000A   8A..         MOV     ?V2,R2
   \   00000C   8B..         MOV     ?V3,R3
   3439            uint8 i;
   3440          
   3441            // Loop through all the pending entries for that Ext Address
   3442            // to create Bind Entries and send Bind Rsp
   3443            if ( ZDAppPendingBindReq != NULL )
   \   00000E   12....       LCALL   ?Subroutine15 & 0xFFFF
   \                     ??CrossCallReturnLabel_102:
   \   000011   7003         JNZ     $+5
   \   000013   02....       LJMP    ??ZDApp_ProcessPendingBindReq_0 & 0xFFFF
   3444            {
   3445              for ( i = 0; i < MAX_PENDING_BIND_REQ; i++ )
   \   000016   75..00       MOV     ?V0,#0x0
   3446              {
   3447                if ( osal_memcmp( ZDAppPendingBindReq[i].bindReq.dstAddress.addr.extAddr,
   3448                                  extAddr, Z_EXTADDR_LEN ) == TRUE )
   \                     ??ZDApp_ProcessPendingBindReq_1:
   \   000019                ; Setup parameters for call to function osal_memcmp
   \   000019   85....       MOV     ?V4,?V2
   \   00001C   85....       MOV     ?V5,?V3
   \   00001F   75..00       MOV     ?V6,#0x0
   \   000022   78..         MOV     R0,#?V4
   \   000024   12....       LCALL   ?PUSH_XSTACK_I_THREE
   \   000027   7C08         MOV     R4,#0x8
   \   000029   7D00         MOV     R5,#0x0
   \   00002B   E5..         MOV     A,?V0
   \   00002D   75F021       MOV     B,#0x21
   \   000030   A4           MUL     AB
   \   000031   F8           MOV     R0,A
   \   000032   A9F0         MOV     R1,B
   \   000034   12....       LCALL   ?Subroutine26 & 0xFFFF
   \                     ??CrossCallReturnLabel_19:
   \   000037   F5..         MOV     ?V4,A
   \   000039   E4           CLR     A
   \   00003A   39           ADDC    A,R1
   \   00003B   A9..         MOV     R1,?V4
   \   00003D   FA           MOV     R2,A
   \   00003E   7B00         MOV     R3,#0x0
   \   000040   12....       LCALL   ??osal_memcmp?relay  ; Banked call to: osal_memcmp
   \   000043   7403         MOV     A,#0x3
   \   000045   12....       LCALL   ?DEALLOC_XSTACK8
   \   000048   E9           MOV     A,R1
   \   000049   6401         XRL     A,#0x1
   \   00004B   6003         JZ      $+5
   \   00004D   02....       LJMP    ??ZDApp_ProcessPendingBindReq_2 & 0xFFFF
   3449                {
   3450                  uint8 bindStat = ZDP_TABLE_FULL; // Assume table is full
   \   000050   85..82       MOV     DPL,?XSP + 0
   \   000053   85..83       MOV     DPH,?XSP + 1
   \   000056   748C         MOV     A,#-0x74
   \   000058   F0           MOVX    @DPTR,A
   3451          
   3452                  // Add Bind entry
   3453                  if ( APSME_BindRequest( ZDAppPendingBindReq[i].bindReq.srcEndpoint,
   3454                                          ZDAppPendingBindReq[i].bindReq.clusterID,
   3455                                          &(ZDAppPendingBindReq[i].bindReq.dstAddress),
   3456                                          ZDAppPendingBindReq[i].bindReq.dstEndpoint ) == ZSuccess )
   \   000059   E5..         MOV     A,?V0
   \   00005B   75F021       MOV     B,#0x21
   \   00005E   A4           MUL     AB
   \   00005F   FE           MOV     R6,A
   \   000060   AFF0         MOV     R7,B
   \   000062   90....       MOV     DPTR,#ZDAppPendingBindReq
   \   000065   E0           MOVX    A,@DPTR
   \   000066   2E           ADD     A,R6
   \   000067   FE           MOV     R6,A
   \   000068   A3           INC     DPTR
   \   000069   E0           MOVX    A,@DPTR
   \   00006A   3F           ADDC    A,R7
   \   00006B   FF           MOV     R7,A
   \   00006C                ; Setup parameters for call to function APSME_BindRequest
   \   00006C   EE           MOV     A,R6
   \   00006D   2414         ADD     A,#0x14
   \   00006F   12....       LCALL   ??Subroutine58_0 & 0xFFFF
   \                     ??CrossCallReturnLabel_119:
   \   000072   F5..         MOV     ?V1,A
   \   000074   78..         MOV     R0,#?V1
   \   000076   12....       LCALL   ?PUSH_XSTACK_I_ONE
   \   000079   EE           MOV     A,R6
   \   00007A   240B         ADD     A,#0xb
   \   00007C   FC           MOV     R4,A
   \   00007D   E4           CLR     A
   \   00007E   3F           ADDC    A,R7
   \   00007F   FD           MOV     R5,A
   \   000080   8E82         MOV     DPL,R6
   \   000082   8F83         MOV     DPH,R7
   \   000084   A3           INC     DPTR
   \   000085   A3           INC     DPTR
   \   000086   A3           INC     DPTR
   \   000087   A3           INC     DPTR
   \   000088   A3           INC     DPTR
   \   000089   A3           INC     DPTR
   \   00008A   A3           INC     DPTR
   \   00008B   12....       LCALL   ?Subroutine28 & 0xFFFF
   \                     ??CrossCallReturnLabel_24:
   \   00008E   A3           INC     DPTR
   \   00008F   A3           INC     DPTR
   \   000090   A3           INC     DPTR
   \   000091   A3           INC     DPTR
   \   000092   A3           INC     DPTR
   \   000093   A3           INC     DPTR
   \   000094   A3           INC     DPTR
   \   000095   A3           INC     DPTR
   \   000096   E0           MOVX    A,@DPTR
   \   000097   F9           MOV     R1,A
   \   000098   12....       LCALL   ??APSME_BindRequest?relay; Banked call to: APSME_BindRequest
   \   00009B   7401         MOV     A,#0x1
   \   00009D   12....       LCALL   ?DEALLOC_XSTACK8
   \   0000A0   E9           MOV     A,R1
   \   0000A1   7008         JNZ     ??ZDApp_ProcessPendingBindReq_3
   3457                  {
   3458                    // valid entry
   3459                    bindStat = ZDP_SUCCESS;
   \   0000A3   85..82       MOV     DPL,?XSP + 0
   \   0000A6   85..83       MOV     DPH,?XSP + 1
   \   0000A9   E4           CLR     A
   \   0000AA   F0           MOVX    @DPTR,A
   3460          
   3461                    // Notify to save info into NV
   3462                    ZDApp_NVUpdate();
   3463                  }
   3464          
   3465                  // Send back a response message
   3466                  ZDP_BindRsp( ZDAppPendingBindReq[i].transSeq, &(ZDAppPendingBindReq[i].srcAddr),
   3467                               bindStat, ZDAppPendingBindReq[i].securityUse );
   \                     ??ZDApp_ProcessPendingBindReq_3:
   \   0000AB   E5..         MOV     A,?V0
   \   0000AD   12....       LCALL   ?Subroutine20 & 0xFFFF
   \                     ??CrossCallReturnLabel_8:
   \   0000B0   F5..         MOV     ?V1,A
   \   0000B2   78..         MOV     R0,#?V1
   \   0000B4   12....       LCALL   ?PUSH_XSTACK_I_ONE
   \   0000B7   7401         MOV     A,#0x1
   \   0000B9   12....       LCALL   ?XSTACK_DISP100_8
   \   0000BC   88..         MOV     ?V4,R0
   \   0000BE   89..         MOV     ?V5,R1
   \   0000C0   78..         MOV     R0,#?V4
   \   0000C2   12....       LCALL   ?PUSH_XSTACK_I_TWO
   \   0000C5   75..21       MOV     ?V4,#0x21
   \   0000C8   75..80       MOV     ?V5,#-0x80
   \   0000CB   78..         MOV     R0,#?V4
   \   0000CD   12....       LCALL   ?PUSH_XSTACK_I_TWO
   \   0000D0   12....       LCALL   ?Subroutine37 & 0xFFFF
   \                     ??CrossCallReturnLabel_41:
   \   0000D3   5001         JNC     ??ZDApp_ProcessPendingBindReq_4
   \   0000D5   0B           INC     R3
   \                     ??ZDApp_ProcessPendingBindReq_4:
   \   0000D6   12....       LCALL   ??ZDP_SendData?relay ; Banked call to: ZDP_SendData
   \   0000D9   7405         MOV     A,#0x5
   \   0000DB   12....       LCALL   ?DEALLOC_XSTACK8
   3468          
   3469                  // Set the pending request entry to default values
   3470                  ZDApp_SetPendingBindDefault( &ZDAppPendingBindReq[i] );
   \   0000DE                ; Setup parameters for call to function ZDApp_SetPendingBindDefault
   \   0000DE   12....       LCALL   ?Subroutine38 & 0xFFFF
   3471                }
   3472              }
   \                     ??CrossCallReturnLabel_43:
   \   0000E1   12....       LCALL   ??ZDApp_SetPendingBindDefault?relay; Banked call to: ZDApp_SetPendingBindDefault
   \                     ??ZDApp_ProcessPendingBindReq_2:
   \   0000E4   05..         INC     ?V0
   \   0000E6   E5..         MOV     A,?V0
   \   0000E8   C3           CLR     C
   \   0000E9   9403         SUBB    A,#0x3
   \   0000EB   5003         JNC     $+5
   \   0000ED   02....       LJMP    ??ZDApp_ProcessPendingBindReq_1 & 0xFFFF
   3473            }
   3474          }
   \                     ??ZDApp_ProcessPendingBindReq_0:
   \   0000F0   7401         MOV     A,#0x1
   \   0000F2   02....       LJMP    ?Subroutine6 & 0xFFFF

   \                                 In  segment BANKED_CODE, align 1, keep-with-next
   \                     ?Subroutine38:
   \   000000   90....       MOV     DPTR,#ZDAppPendingBindReq
   \   000003   E0           MOVX    A,@DPTR
   \   000004   2E           ADD     A,R6
   \   000005   FA           MOV     R2,A
   \   000006   A3           INC     DPTR
   \   000007   E0           MOVX    A,@DPTR
   \   000008   3F           ADDC    A,R7
   \   000009   FB           MOV     R3,A
   \   00000A   22           RET

   \                                 In  segment BANKED_CODE, align 1, keep-with-next
   \                     ?Subroutine37:
   \   000000   7901         MOV     R1,#0x1
   \   000002   EA           MOV     A,R2
   \   000003   2415         ADD     A,#0x15
   \   000005   FC           MOV     R4,A
   \   000006   E4           CLR     A
   \   000007   3B           ADDC    A,R3
   \   000008   FD           MOV     R5,A
   \   000009   EA           MOV     A,R2
   \   00000A   241F         ADD     A,#0x1f
   \   00000C   FA           MOV     R2,A
   \   00000D   22           RET

   \                                 In  segment BANKED_CODE, align 1, keep-with-next
   \                     ?Subroutine26:
   \   000000   12....       LCALL   ?Subroutine40 & 0xFFFF
   \                     ??CrossCallReturnLabel_128:
   \   000003   240B         ADD     A,#0xb
   \   000005   22           RET

   \                                 In  segment BANKED_CODE, align 1, keep-with-next
   \                     ?Subroutine20:
   \   000000   75F021       MOV     B,#0x21
   \   000003   A4           MUL     AB
   \   000004   FE           MOV     R6,A
   \   000005   AFF0         MOV     R7,B
   \   000007   12....       LCALL   ?Subroutine38 & 0xFFFF
   \                     ??CrossCallReturnLabel_45:
   \   00000A                ; Setup parameters for call to function ZDP_SendData
   \   00000A                ; Setup parameters for call to function ZDP_SendData
   \   00000A   EA           MOV     A,R2
   \   00000B   241E         ADD     A,#0x1e
   \   00000D   F582         MOV     DPL,A
   \   00000F   E4           CLR     A
   \   000010   3B           ADDC    A,R3
   \   000011   F583         MOV     DPH,A
   \   000013   E0           MOVX    A,@DPTR
   \   000014   22           RET
   3475          
   3476          /*********************************************************************
   3477           * @fn          ZDApp_AgeOutPendingBindEntry
   3478           *
   3479           * @brief       Age out pending Bind Req entries.
   3480           *
   3481           * @param       none
   3482           *
   3483           * @return      none
   3484           */

   \                                 In  segment BANKED_CODE, align 1, keep-with-next
   3485          void ZDApp_AgeOutPendingBindEntry( void )
   \                     ZDApp_AgeOutPendingBindEntry:
   3486          {
   \   000000                REQUIRE ?V0
   \   000000                REQUIRE ?V1
   \   000000                REQUIRE ?V2
   \   000000                REQUIRE ?V3
   \   000000   74F4         MOV     A,#-0xc
   \   000002   12....       LCALL   ?BANKED_ENTER_XDATA
   \   000005                ; Saved register size: 12
   \   000005                ; Auto size: 14
   \   000005   74F2         MOV     A,#-0xe
   \   000007   12....       LCALL   ?ALLOC_XSTACK8
   3487            uint8 i;
   3488            bool entryFound = FALSE;
   \   00000A   75..00       MOV     ?V0,#0x0
   3489          
   3490            if ( ZDAppPendingBindReq != NULL )
   \   00000D   12....       LCALL   ?Subroutine15 & 0xFFFF
   \                     ??CrossCallReturnLabel_103:
   \   000010   7003         JNZ     $+5
   \   000012   02....       LJMP    ??ZDApp_AgeOutPendingBindEntry_0 & 0xFFFF
   3491            {
   3492              for ( i = 0; i < MAX_PENDING_BIND_REQ; i++ )
   \   000015   75..00       MOV     ?V1,#0x0
   3493              {
   3494                if ( ZDAppPendingBindReq[i].age > 1 )
   \                     ??ZDApp_AgeOutPendingBindEntry_1:
   \   000018   E5..         MOV     A,?V1
   \   00001A   75F021       MOV     B,#0x21
   \   00001D   A4           MUL     AB
   \   00001E   F8           MOV     R0,A
   \   00001F   AAF0         MOV     R2,B
   \   000021   12....       LCALL   ??Subroutine59_0 & 0xFFFF
   \                     ??CrossCallReturnLabel_125:
   \   000024   C3           CLR     C
   \   000025   9402         SUBB    A,#0x2
   \   000027   E5..         MOV     A,?V1
   \   000029   75F021       MOV     B,#0x21
   \   00002C   400B         JC      ??ZDApp_AgeOutPendingBindEntry_2
   3495                {
   3496                  ZDAppPendingBindReq[i].age--;
   \   00002E   12....       LCALL   ?Subroutine16 & 0xFFFF
   \                     ??CrossCallReturnLabel_126:
   \   000031   14           DEC     A
   \   000032   F0           MOVX    @DPTR,A
   3497          
   3498                  entryFound = TRUE;
   \   000033   75..01       MOV     ?V0,#0x1
   \   000036   02....       LJMP    ??ZDApp_AgeOutPendingBindEntry_3 & 0xFFFF
   3499                }
   3500                else if ( ZDAppPendingBindReq[i].age == 1 )
   \                     ??ZDApp_AgeOutPendingBindEntry_2:
   \   000039   12....       LCALL   ?Subroutine16 & 0xFFFF
   \                     ??CrossCallReturnLabel_127:
   \   00003C   6401         XRL     A,#0x1
   \   00003E   6003         JZ      $+5
   \   000040   02....       LJMP    ??ZDApp_AgeOutPendingBindEntry_3 & 0xFFFF
   3501                {
   3502                  // The record has aged out and has valid data
   3503                  AddrMgrEntry_t entry;
   3504                  uint8 bindStat = ZDP_TABLE_FULL; // Assume table is full
   \   000043   85..82       MOV     DPL,?XSP + 0
   \   000046   85..83       MOV     DPH,?XSP + 1
   \   000049   748C         MOV     A,#-0x74
   \   00004B   F0           MOVX    @DPTR,A
   3505          
   3506                  entry.user = ADDRMGR_USER_BINDING;
   \   00004C   7401         MOV     A,#0x1
   \   00004E   12....       LCALL   ?XSTACK_DISP0_8
   \   000051   7404         MOV     A,#0x4
   \   000053   F0           MOVX    @DPTR,A
   3507          
   3508                  // Remove the entry in address manager so we do not keep entries
   3509                  // with invalid addresses
   3510                  AddrMgrExtAddrSet( entry.extAddr, ZDAppPendingBindReq[i].bindReq.dstAddress.addr.extAddr );
   \   000054                ; Setup parameters for call to function AddrMgrExtAddrSet
   \   000054   E5..         MOV     A,?V1
   \   000056   75F021       MOV     B,#0x21
   \   000059   A4           MUL     AB
   \   00005A   F8           MOV     R0,A
   \   00005B   EA           MOV     A,R2
   \   00005C   F9           MOV     R1,A
   \   00005D   12....       LCALL   ?Subroutine26 & 0xFFFF
   \                     ??CrossCallReturnLabel_20:
   \   000060   FC           MOV     R4,A
   \   000061   E4           CLR     A
   \   000062   39           ADDC    A,R1
   \   000063   FD           MOV     R5,A
   \   000064   7404         MOV     A,#0x4
   \   000066   12....       LCALL   ?XSTACK_DISP0_8
   \   000069   AA82         MOV     R2,DPL
   \   00006B   AB83         MOV     R3,DPH
   \   00006D   12....       LCALL   ??AddrMgrExtAddrSet?relay; Banked call to: AddrMgrExtAddrSet
   3511          
   3512                  if ( AddrMgrEntryLookupExt( &entry ) == TRUE )
   \   000070                ; Setup parameters for call to function AddrMgrEntryLookupExt
   \   000070   7401         MOV     A,#0x1
   \   000072   12....       LCALL   ?XSTACK_DISP101_8
   \   000075   12....       LCALL   ??AddrMgrEntryLookupExt?relay; Banked call to: AddrMgrEntryLookupExt
   \   000078   E9           MOV     A,R1
   \   000079   6401         XRL     A,#0x1
   \   00007B   7017         JNZ     ??ZDApp_AgeOutPendingBindEntry_4
   3513                  {
   3514                    if ( entry.nwkAddr == INVALID_NODE_ADDR )
   \   00007D   7402         MOV     A,#0x2
   \   00007F   12....       LCALL   ?XSTACK_DISP0_8
   \   000082   E0           MOVX    A,@DPTR
   \   000083   64FE         XRL     A,#0xfe
   \   000085   7003         JNZ     ??ZDApp_AgeOutPendingBindEntry_5
   \   000087   A3           INC     DPTR
   \   000088   E0           MOVX    A,@DPTR
   \   000089   F4           CPL     A
   \                     ??ZDApp_AgeOutPendingBindEntry_5:
   \   00008A   7008         JNZ     ??ZDApp_AgeOutPendingBindEntry_4
   3515                    {
   3516                      // Release the entry that contains an invalid NWK address
   3517                      AddrMgrEntryRelease( &entry );
   \   00008C                ; Setup parameters for call to function AddrMgrEntryRelease
   \   00008C   7401         MOV     A,#0x1
   \   00008E   12....       LCALL   ?XSTACK_DISP101_8
   \   000091   12....       LCALL   ??AddrMgrEntryRelease?relay; Banked call to: AddrMgrEntryRelease
   3518                    }
   3519                  }
   3520          
   3521                  // Send the Bind Response with failure status
   3522                  ZDP_BindRsp( ZDAppPendingBindReq[i].transSeq,
   3523                               &(ZDAppPendingBindReq[i].srcAddr),
   3524                               bindStat, ZDAppPendingBindReq[i].securityUse );
   \                     ??ZDApp_AgeOutPendingBindEntry_4:
   \   000094   E5..         MOV     A,?V1
   \   000096   12....       LCALL   ?Subroutine20 & 0xFFFF
   \                     ??CrossCallReturnLabel_9:
   \   000099   F5..         MOV     ?V2,A
   \   00009B   78..         MOV     R0,#?V2
   \   00009D   12....       LCALL   ?PUSH_XSTACK_I_ONE
   \   0000A0   7401         MOV     A,#0x1
   \   0000A2   12....       LCALL   ?XSTACK_DISP100_8
   \   0000A5   88..         MOV     ?V2,R0
   \   0000A7   89..         MOV     ?V3,R1
   \   0000A9   78..         MOV     R0,#?V2
   \   0000AB   12....       LCALL   ?PUSH_XSTACK_I_TWO
   \   0000AE   75..21       MOV     ?V2,#0x21
   \   0000B1   75..80       MOV     ?V3,#-0x80
   \   0000B4   78..         MOV     R0,#?V2
   \   0000B6   12....       LCALL   ?PUSH_XSTACK_I_TWO
   \   0000B9   12....       LCALL   ?Subroutine37 & 0xFFFF
   \                     ??CrossCallReturnLabel_42:
   \   0000BC   5001         JNC     ??ZDApp_AgeOutPendingBindEntry_6
   \   0000BE   0B           INC     R3
   \                     ??ZDApp_AgeOutPendingBindEntry_6:
   \   0000BF   12....       LCALL   ??ZDP_SendData?relay ; Banked call to: ZDP_SendData
   \   0000C2   7405         MOV     A,#0x5
   \   0000C4   12....       LCALL   ?DEALLOC_XSTACK8
   3525          
   3526                  // Clear the record and set to default values
   3527                  ZDApp_SetPendingBindDefault( &ZDAppPendingBindReq[i] );
   \   0000C7                ; Setup parameters for call to function ZDApp_SetPendingBindDefault
   \   0000C7   12....       LCALL   ?Subroutine38 & 0xFFFF
   3528                }
   3529              }
   \                     ??CrossCallReturnLabel_44:
   \   0000CA   12....       LCALL   ??ZDApp_SetPendingBindDefault?relay; Banked call to: ZDApp_SetPendingBindDefault
   \                     ??ZDApp_AgeOutPendingBindEntry_3:
   \   0000CD   05..         INC     ?V1
   \   0000CF   E5..         MOV     A,?V1
   \   0000D1   C3           CLR     C
   \   0000D2   9403         SUBB    A,#0x3
   \   0000D4   5003         JNC     $+5
   \   0000D6   02....       LJMP    ??ZDApp_AgeOutPendingBindEntry_1 & 0xFFFF
   3530            }
   3531          
   3532            if ( entryFound == FALSE )
   \   0000D9   E5..         MOV     A,?V0
   \   0000DB   A2E0         MOV     C,0xE0 /* A   */.0
   \   0000DD   400E         JC      ??ZDApp_AgeOutPendingBindEntry_7
   3533            {
   3534              osal_stop_timerEx( ZDAppTaskID, ZDO_PENDING_BIND_REQ_EVT );
   \                     ??ZDApp_AgeOutPendingBindEntry_0:
   \   0000DF                ; Setup parameters for call to function osal_stop_timerEx
   \   0000DF   7A00         MOV     R2,#0x0
   \   0000E1   7B10         MOV     R3,#0x10
   \   0000E3   90....       MOV     DPTR,#ZDAppTaskID
   \   0000E6   E0           MOVX    A,@DPTR
   \   0000E7   F9           MOV     R1,A
   \   0000E8   12....       LCALL   ??osal_stop_timerEx?relay; Banked call to: osal_stop_timerEx
   \   0000EB   8017         SJMP    ??ZDApp_AgeOutPendingBindEntry_8
   3535            }
   3536            else
   3537            {
   3538              osal_start_timerEx( ZDAppTaskID, ZDO_PENDING_BIND_REQ_EVT,
   3539                                  AGE_OUT_PEND_BIND_REQ_DELAY );
   \                     ??ZDApp_AgeOutPendingBindEntry_7:
   \   0000ED                ; Setup parameters for call to function osal_start_timerEx
   \   0000ED   90....       MOV     DPTR,#__Constant_3e8
   \   0000F0   12....       LCALL   ?PUSH_XSTACK8_X_FOUR
   \   0000F3   7A00         MOV     R2,#0x0
   \   0000F5   7B10         MOV     R3,#0x10
   \   0000F7   90....       MOV     DPTR,#ZDAppTaskID
   \   0000FA   E0           MOVX    A,@DPTR
   \   0000FB   F9           MOV     R1,A
   \   0000FC   12....       LCALL   ??osal_start_timerEx?relay; Banked call to: osal_start_timerEx
   \   0000FF   7404         MOV     A,#0x4
   \   000101   12....       LCALL   ?DEALLOC_XSTACK8
   3540            }
   3541          }
   \                     ??ZDApp_AgeOutPendingBindEntry_8:
   \   000104   740E         MOV     A,#0xe
   \   000106   02....       LJMP    ?Subroutine1 & 0xFFFF

   \                                 In  segment BANKED_CODE, align 1, keep-with-next
   \                     ?Subroutine16:
   \   000000   A4           MUL     AB
   \   000001   F8           MOV     R0,A
   \   000002                REQUIRE ??Subroutine59_0
   \   000002                ; // Fall through to label ??Subroutine59_0

   \                                 In  segment BANKED_CODE, align 1, keep-with-next
   \                     ??Subroutine59_0:
   \   000000   EA           MOV     A,R2
   \   000001                REQUIRE ??Subroutine60_0
   \   000001                ; // Fall through to label ??Subroutine60_0

   \                                 In  segment XDATA_ID, align 1, keep-with-next
   \                     `?<Initializer for zdoDiscCounter>`:
   \   000000   01           DB 1

   \                                 In  segment XDATA_ID, align 1, keep-with-next
   \                     `?<Initializer for continueJoining>`:
   \   000000   01           DB 1

   \                                 In  segment XDATA_ID, align 1, keep-with-next
   \                     `?<Initializer for devState>`:
   \   000000   01           DB 1

   \                                 In  segment XDATA_ID, align 1, keep-with-next
   \                     `?<Initializer for devStartMode>`:
   \   000000   02           DB 2

   \                                 In  segment XDATA_ID, align 1, keep-with-next
   \                     `?<Initializer for ZDApp_epDesc>`:
   \   000000   00           DB 0
   \   000001   ....         DW ZDAppTaskID
   \   000003   0000         DW 0H
   \   000005   00           DB 0

   \                                 In  segment XDATA_ID, align 1, keep-with-next
   \                     `?<Initializer for ZDApp_SavedPollRate>`:
   \   000000   E803         DW 1000

   \                                 In  segment XDATA_ROM_C, align 1
   \                     __Constant_64:
   \   000000   64000000     DD 100

   \                                 In  segment XDATA_ROM_C, align 1
   \                     __Constant_4e2:
   \   000000   E2040000     DD 1250

   \                                 In  segment XDATA_ROM_C, align 1
   \                     __Constant_3e8:
   \   000000   E8030000     DD 1000

   \                                 In  segment BANK_RELAYS, align 1
   \                     ??ZDApp_Init?relay:
   \   000000   12....       LCALL   ?BDISPATCH
   \   000003   ......       DC24    ZDApp_Init

   \                                 In  segment BANK_RELAYS, align 1
   \                     ??ZDApp_SecInit?relay:
   \   000000   12....       LCALL   ?BDISPATCH
   \   000003   ......       DC24    ZDApp_SecInit

   \                                 In  segment BANK_RELAYS, align 1
   \                     ??ZDApp_event_loop?relay:
   \   000000   12....       LCALL   ?BDISPATCH
   \   000003   ......       DC24    ZDApp_event_loop

   \                                 In  segment BANK_RELAYS, align 1
   \                     ??ZDApp_ProcessSecEvent?relay:
   \   000000   12....       LCALL   ?BDISPATCH
   \   000003   ......       DC24    ZDApp_ProcessSecEvent

   \                                 In  segment BANK_RELAYS, align 1
   \                     ??ZDOInitDevice?relay:
   \   000000   12....       LCALL   ?BDISPATCH
   \   000003   ......       DC24    ZDOInitDevice

   \                                 In  segment BANK_RELAYS, align 1
   \                     ??ZDApp_ReadNetworkRestoreState?relay:
   \   000000   12....       LCALL   ?BDISPATCH
   \   000003   ......       DC24    ZDApp_ReadNetworkRestoreState

   \                                 In  segment BANK_RELAYS, align 1
   \                     ??ZDAppDetermineDeviceType?relay:
   \   000000   12....       LCALL   ?BDISPATCH
   \   000003   ......       DC24    ZDAppDetermineDeviceType

   \                                 In  segment BANK_RELAYS, align 1
   \                     ??ZDApp_NetworkStartEvt?relay:
   \   000000   12....       LCALL   ?BDISPATCH
   \   000003   ......       DC24    ZDApp_NetworkStartEvt

   \                                 In  segment BANK_RELAYS, align 1
   \                     ??ZDApp_DeviceAuthEvt?relay:
   \   000000   12....       LCALL   ?BDISPATCH
   \   000003   ......       DC24    ZDApp_DeviceAuthEvt

   \                                 In  segment BANK_RELAYS, align 1
   \                     ??ZDApp_SaveNetworkStateEvt?relay:
   \   000000   12....       LCALL   ?BDISPATCH
   \   000003   ......       DC24    ZDApp_SaveNetworkStateEvt

   \                                 In  segment BANK_RELAYS, align 1
   \                     ??ZDApp_InitUserDesc?relay:
   \   000000   12....       LCALL   ?BDISPATCH
   \   000003   ......       DC24    ZDApp_InitUserDesc

   \                                 In  segment BANK_RELAYS, align 1
   \                     ??ZDAppCheckForHoldKey?relay:
   \   000000   12....       LCALL   ?BDISPATCH
   \   000003   ......       DC24    ZDAppCheckForHoldKey

   \                                 In  segment BANK_RELAYS, align 1
   \                     ??ZDApp_ProcessOSALMsg?relay:
   \   000000   12....       LCALL   ?BDISPATCH
   \   000003   ......       DC24    ZDApp_ProcessOSALMsg

   \                                 In  segment BANK_RELAYS, align 1
   \                     ??ZDApp_ProcessMsgCBs?relay:
   \   000000   12....       LCALL   ?BDISPATCH
   \   000003   ......       DC24    ZDApp_ProcessMsgCBs

   \                                 In  segment BANK_RELAYS, align 1
   \                     ??ZDApp_RegisterCBs?relay:
   \   000000   12....       LCALL   ?BDISPATCH
   \   000003   ......       DC24    ZDApp_RegisterCBs

   \                                 In  segment BANK_RELAYS, align 1
   \                     ??ZDApp_ProcessSecMsg?relay:
   \   000000   12....       LCALL   ?BDISPATCH
   \   000003   ......       DC24    ZDApp_ProcessSecMsg

   \                                 In  segment BANK_RELAYS, align 1
   \                     ??ZDApp_ProcessNetworkJoin?relay:
   \   000000   12....       LCALL   ?BDISPATCH
   \   000003   ......       DC24    ZDApp_ProcessNetworkJoin

   \                                 In  segment BANK_RELAYS, align 1
   \                     ??ZDApp_SaveNwkKey?relay:
   \   000000   12....       LCALL   ?BDISPATCH
   \   000003   ......       DC24    ZDApp_SaveNwkKey

   \                                 In  segment BANK_RELAYS, align 1
   \                     ??ZDApp_ForceConcentratorChange?relay:
   \   000000   12....       LCALL   ?BDISPATCH
   \   000003   ......       DC24    ZDApp_ForceConcentratorChange

   \                                 In  segment BANK_RELAYS, align 1
   \                     ??ZDApp_ResetNwkKey?relay:
   \   000000   12....       LCALL   ?BDISPATCH
   \   000003   ......       DC24    ZDApp_ResetNwkKey

   \                                 In  segment BANK_RELAYS, align 1
   \                     ??ZDApp_RestoreNwkKey?relay:
   \   000000   12....       LCALL   ?BDISPATCH
   \   000003   ......       DC24    ZDApp_RestoreNwkKey

   \                                 In  segment BANK_RELAYS, align 1
   \                     ??ZDApp_ResetTimerStart?relay:
   \   000000   12....       LCALL   ?BDISPATCH
   \   000003   ......       DC24    ZDApp_ResetTimerStart

   \                                 In  segment BANK_RELAYS, align 1
   \                     ??ZDApp_ResetTimerCancel?relay:
   \   000000   12....       LCALL   ?BDISPATCH
   \   000003   ......       DC24    ZDApp_ResetTimerCancel

   \                                 In  segment BANK_RELAYS, align 1
   \                     ??ZDApp_LeaveCtrlInit?relay:
   \   000000   12....       LCALL   ?BDISPATCH
   \   000003   ......       DC24    ZDApp_LeaveCtrlInit

   \                                 In  segment BANK_RELAYS, align 1
   \                     ??ZDApp_LeaveCtrlSet?relay:
   \   000000   12....       LCALL   ?BDISPATCH
   \   000003   ......       DC24    ZDApp_LeaveCtrlSet

   \                                 In  segment BANK_RELAYS, align 1
   \                     ??ZDApp_LeaveCtrlReset?relay:
   \   000000   12....       LCALL   ?BDISPATCH
   \   000003   ......       DC24    ZDApp_LeaveCtrlReset

   \                                 In  segment BANK_RELAYS, align 1
   \                     ??ZDApp_LeaveCtrlBypass?relay:
   \   000000   12....       LCALL   ?BDISPATCH
   \   000003   ......       DC24    ZDApp_LeaveCtrlBypass

   \                                 In  segment BANK_RELAYS, align 1
   \                     ??ZDApp_LeaveCtrlStartup?relay:
   \   000000   12....       LCALL   ?BDISPATCH
   \   000003   ......       DC24    ZDApp_LeaveCtrlStartup

   \                                 In  segment BANK_RELAYS, align 1
   \                     ??ZDApp_LeaveReset?relay:
   \   000000   12....       LCALL   ?BDISPATCH
   \   000003   ......       DC24    ZDApp_LeaveReset

   \                                 In  segment BANK_RELAYS, align 1
   \                     ??ZDApp_LeaveUpdate?relay:
   \   000000   12....       LCALL   ?BDISPATCH
   \   000003   ......       DC24    ZDApp_LeaveUpdate

   \                                 In  segment BANK_RELAYS, align 1
   \                     ??ZDApp_NetworkDiscoveryReq?relay:
   \   000000   12....       LCALL   ?BDISPATCH
   \   000003   ......       DC24    ZDApp_NetworkDiscoveryReq

   \                                 In  segment BANK_RELAYS, align 1
   \                     ??ZDApp_JoinReq?relay:
   \   000000   12....       LCALL   ?BDISPATCH
   \   000003   ......       DC24    ZDApp_JoinReq

   \                                 In  segment BANK_RELAYS, align 1
   \                     ??ZDApp_DeviceConfigured?relay:
   \   000000   12....       LCALL   ?BDISPATCH
   \   000003   ......       DC24    ZDApp_DeviceConfigured

   \                                 In  segment BANK_RELAYS, align 1
   \                     ??ZDApp_SendEventMsg?relay:
   \   000000   12....       LCALL   ?BDISPATCH
   \   000003   ......       DC24    ZDApp_SendEventMsg

   \                                 In  segment BANK_RELAYS, align 1
   \                     ??ZDApp_SendMsg?relay:
   \   000000   12....       LCALL   ?BDISPATCH
   \   000003   ......       DC24    ZDApp_SendMsg

   \                                 In  segment BANK_RELAYS, align 1
   \                     ??ZDO_NetworkDiscoveryConfirmCB?relay:
   \   000000   12....       LCALL   ?BDISPATCH
   \   000003   ......       DC24    ZDO_NetworkDiscoveryConfirmCB

   \                                 In  segment BANK_RELAYS, align 1
   \                     ??ZDApp_NwkDescListProcessing?relay:
   \   000000   12....       LCALL   ?BDISPATCH
   \   000003   ......       DC24    ZDApp_NwkDescListProcessing

   \                                 In  segment BANK_RELAYS, align 1
   \                     ??ZDO_NetworkFormationConfirmCB?relay:
   \   000000   12....       LCALL   ?BDISPATCH
   \   000003   ......       DC24    ZDO_NetworkFormationConfirmCB

   \                                 In  segment BANK_RELAYS, align 1
   \                     ??ZDO_beaconNotifyIndCB?relay:
   \   000000   12....       LCALL   ?BDISPATCH
   \   000003   ......       DC24    ZDO_beaconNotifyIndCB

   \                                 In  segment BANK_RELAYS, align 1
   \                     ??ZDO_StartRouterConfirmCB?relay:
   \   000000   12....       LCALL   ?BDISPATCH
   \   000003   ......       DC24    ZDO_StartRouterConfirmCB

   \                                 In  segment BANK_RELAYS, align 1
   \                     ??ZDO_JoinConfirmCB?relay:
   \   000000   12....       LCALL   ?BDISPATCH
   \   000003   ......       DC24    ZDO_JoinConfirmCB

   \                                 In  segment BANK_RELAYS, align 1
   \                     ??ZDO_PermitJoinCB?relay:
   \   000000   12....       LCALL   ?BDISPATCH
   \   000003   ......       DC24    ZDO_PermitJoinCB

   \                                 In  segment BANK_RELAYS, align 1
   \                     ??ZDO_AddrChangeIndicationCB?relay:
   \   000000   12....       LCALL   ?BDISPATCH
   \   000003   ......       DC24    ZDO_AddrChangeIndicationCB

   \                                 In  segment BANK_RELAYS, align 1
   \                     ??ZDO_JoinIndicationCB?relay:
   \   000000   12....       LCALL   ?BDISPATCH
   \   000003   ......       DC24    ZDO_JoinIndicationCB

   \                                 In  segment BANK_RELAYS, align 1
   \                     ??ZDO_ConcentratorIndicationCB?relay:
   \   000000   12....       LCALL   ?BDISPATCH
   \   000003   ......       DC24    ZDO_ConcentratorIndicationCB

   \                                 In  segment BANK_RELAYS, align 1
   \                     ??ZDO_LeaveCnf?relay:
   \   000000   12....       LCALL   ?BDISPATCH
   \   000003   ......       DC24    ZDO_LeaveCnf

   \                                 In  segment BANK_RELAYS, align 1
   \                     ??ZDO_LeaveInd?relay:
   \   000000   12....       LCALL   ?BDISPATCH
   \   000003   ......       DC24    ZDO_LeaveInd

   \                                 In  segment BANK_RELAYS, align 1
   \                     ??ZDO_SyncIndicationCB?relay:
   \   000000   12....       LCALL   ?BDISPATCH
   \   000003   ......       DC24    ZDO_SyncIndicationCB

   \                                 In  segment BANK_RELAYS, align 1
   \                     ??ZDO_ManytoOneFailureIndicationCB?relay:
   \   000000   12....       LCALL   ?BDISPATCH
   \   000003   ......       DC24    ZDO_ManytoOneFailureIndicationCB

   \                                 In  segment BANK_RELAYS, align 1
   \                     ??ZDO_PollConfirmCB?relay:
   \   000000   12....       LCALL   ?BDISPATCH
   \   000003   ......       DC24    ZDO_PollConfirmCB

   \                                 In  segment BANK_RELAYS, align 1
   \                     ??ZDO_NetworkStatusCB?relay:
   \   000000   12....       LCALL   ?BDISPATCH
   \   000003   ......       DC24    ZDO_NetworkStatusCB

   \                                 In  segment BANK_RELAYS, align 1
   \                     ??AddrMgrWriteNVRequest?relay:
   \   000000   12....       LCALL   ?BDISPATCH
   \   000003   ......       DC24    AddrMgrWriteNVRequest

   \                                 In  segment BANK_RELAYS, align 1
   \                     ??ZDO_UpdateDeviceIndication?relay:
   \   000000   12....       LCALL   ?BDISPATCH
   \   000003   ......       DC24    ZDO_UpdateDeviceIndication

   \                                 In  segment BANK_RELAYS, align 1
   \                     ??ZDApp_InMsgCB?relay:
   \   000000   12....       LCALL   ?BDISPATCH
   \   000003   ......       DC24    ZDApp_InMsgCB

   \                                 In  segment BANK_RELAYS, align 1
   \                     ??ZDApp_ChangeMatchDescRespPermission?relay:
   \   000000   12....       LCALL   ?BDISPATCH
   \   000003   ......       DC24    ZDApp_ChangeMatchDescRespPermission

   \                                 In  segment BANK_RELAYS, align 1
   \                     ??ZDApp_NetworkInit?relay:
   \   000000   12....       LCALL   ?BDISPATCH
   \   000003   ......       DC24    ZDApp_NetworkInit

   \                                 In  segment BANK_RELAYS, align 1
   \                     ??ZDApp_NwkStateUpdateCB?relay:
   \   000000   12....       LCALL   ?BDISPATCH
   \   000003   ......       DC24    ZDApp_NwkStateUpdateCB

   \                                 In  segment BANK_RELAYS, align 1
   \                     ??ZDApp_NodeProfileSync?relay:
   \   000000   12....       LCALL   ?BDISPATCH
   \   000003   ......       DC24    ZDApp_NodeProfileSync

   \                                 In  segment BANK_RELAYS, align 1
   \                     ??ZDApp_StartJoiningCycle?relay:
   \   000000   12....       LCALL   ?BDISPATCH
   \   000003   ......       DC24    ZDApp_StartJoiningCycle

   \                                 In  segment BANK_RELAYS, align 1
   \                     ??ZDApp_StopJoiningCycle?relay:
   \   000000   12....       LCALL   ?BDISPATCH
   \   000003   ......       DC24    ZDApp_StopJoiningCycle

   \                                 In  segment BANK_RELAYS, align 1
   \                     ??ZDApp_AnnounceNewAddress?relay:
   \   000000   12....       LCALL   ?BDISPATCH
   \   000003   ......       DC24    ZDApp_AnnounceNewAddress

   \                                 In  segment BANK_RELAYS, align 1
   \                     ??ZDApp_NVUpdate?relay:
   \   000000   12....       LCALL   ?BDISPATCH
   \   000003   ......       DC24    ZDApp_NVUpdate

   \                                 In  segment BANK_RELAYS, align 1
   \                     ??ZDApp_CoordStartPANIDConflictCB?relay:
   \   000000   12....       LCALL   ?BDISPATCH
   \   000003   ......       DC24    ZDApp_CoordStartPANIDConflictCB

   \                                 In  segment BANK_RELAYS, align 1
   \                     ??ZDO_SrcRtgIndCB?relay:
   \   000000   12....       LCALL   ?BDISPATCH
   \   000003   ......       DC24    ZDO_SrcRtgIndCB

   \                                 In  segment BANK_RELAYS, align 1
   \                     ??ZDApp_InitZdoCBFunc?relay:
   \   000000   12....       LCALL   ?BDISPATCH
   \   000003   ......       DC24    ZDApp_InitZdoCBFunc

   \                                 In  segment BANK_RELAYS, align 1
   \                     ??ZDO_RegisterForZdoCB?relay:
   \   000000   12....       LCALL   ?BDISPATCH
   \   000003   ......       DC24    ZDO_RegisterForZdoCB

   \                                 In  segment BANK_RELAYS, align 1
   \                     ??ZDO_DeregisterForZdoCB?relay:
   \   000000   12....       LCALL   ?BDISPATCH
   \   000003   ......       DC24    ZDO_DeregisterForZdoCB

   \                                 In  segment BANK_RELAYS, align 1
   \                     ??ZDApp_SetPendingBindDefault?relay:
   \   000000   12....       LCALL   ?BDISPATCH
   \   000003   ......       DC24    ZDApp_SetPendingBindDefault

   \                                 In  segment BANK_RELAYS, align 1
   \                     ??ZDApp_InitPendingBind?relay:
   \   000000   12....       LCALL   ?BDISPATCH
   \   000003   ......       DC24    ZDApp_InitPendingBind

   \                                 In  segment BANK_RELAYS, align 1
   \                     ??ZDApp_GetEmptyPendingBindReq?relay:
   \   000000   12....       LCALL   ?BDISPATCH
   \   000003   ......       DC24    ZDApp_GetEmptyPendingBindReq

   \                                 In  segment BANK_RELAYS, align 1
   \                     ??ZDApp_ProcessPendingBindReq?relay:
   \   000000   12....       LCALL   ?BDISPATCH
   \   000003   ......       DC24    ZDApp_ProcessPendingBindReq

   \                                 In  segment BANK_RELAYS, align 1
   \                     ??ZDApp_AgeOutPendingBindEntry?relay:
   \   000000   12....       LCALL   ?BDISPATCH
   \   000003   ......       DC24    ZDApp_AgeOutPendingBindEntry
   3542          #endif
   3543          #endif
   3544          
   3545          /*********************************************************************
   3546          *********************************************************************/

   Maximum stack usage in bytes:

   ISTACK XSTACK Function
   ------ ------ --------
      0      0   AddrMgrWriteNVRequest
      2      9   ZDAppCheckForHoldKey
        2      0   -> HalKeyRead
      2     12   ZDAppDetermineDeviceType
        2      0   -> nwk_ExtPANIDValid
      0     43   ZDApp_AgeOutPendingBindEntry
        0     26   -> AddrMgrEntryLookupExt
        0     26   -> AddrMgrEntryRelease
        0     26   -> AddrMgrExtAddrSet
        0     26   -> ZDApp_SetPendingBindDefault
        0     31   -> ZDP_SendData
        0     30   -> osal_start_timerEx
        0     26   -> osal_stop_timerEx
      0     23   ZDApp_AnnounceNewAddress
        0     10   -> APSME_HoldDataRequests
        0     10   -> NLME_GetExtAddr
        0     10   -> NLME_GetShortAddr
        0     11   -> ZDP_DeviceAnnce
      0      9   ZDApp_ChangeMatchDescRespPermission
        0      9   -> afSetMatch
      0      0   ZDApp_CoordStartPANIDConflictCB
      2     16   ZDApp_DeviceAuthEvt
        2      0   -> NLME_SetPollRate
        2      0   -> NLME_StartRouterRequest
        2      0   -> ZDApp_AnnounceNewAddress
        2      0   -> ZDApp_ResetTimerCancel
        2      0   -> ZDApp_SaveNwkKey
        2      0   -> osal_set_event
      0     16   ZDApp_DeviceConfigured
        0     16   -> osal_nv_read
      0     14   ZDApp_ForceConcentratorChange
        0     14   -> osal_nv_read
        0     14   -> osal_start_timerEx
        0     10   -> osal_stop_timerEx
      2      0   ZDApp_GetEmptyPendingBindReq
      0     14   ZDApp_InMsgCB
        0     14   -> ZDP_GenericRsp
      0      9   ZDApp_Init
        0      9   -> HalLedBlink
        0      9   -> NLME_GetExtAddr
        0      9   -> ZDAppCheckForHoldKey
        0      9   -> ZDApp_InitPendingBind
        0      9   -> ZDApp_InitUserDesc
        0      9   -> ZDApp_InitZdoCBFunc
        0      9   -> ZDApp_RegisterCBs
        0      9   -> ZDOInitDevice
        0      9   -> ZDO_Init
        0      9   -> afRegister
      0     18   ZDApp_InitPendingBind
        0      9   -> ZDApp_SetPendingBindDefault
        0      9   -> osal_mem_alloc
      0     40   ZDApp_InitUserDesc
        0     27   -> osal_memset
        0     29   -> osal_nv_item_init
        0     31   -> osal_nv_read
      2      9   ZDApp_InitZdoCBFunc
      0     20   ZDApp_JoinReq
        0     16   -> NLME_JoinRequest
        0     12   -> ZDApp_NodeProfileSync
      2      0   ZDApp_LeaveCtrlBypass
      0     26   ZDApp_LeaveCtrlInit
        0     12   -> osal_nv_item_init
        0     14   -> osal_nv_read
      0     14   ZDApp_LeaveCtrlReset
        0     14   -> osal_nv_write
      0     23   ZDApp_LeaveCtrlSet
        0     14   -> osal_nv_write
      2     12   ZDApp_LeaveCtrlStartup
        2      0   -> ZDApp_LeaveCtrlReset
      0     21   ZDApp_LeaveReset
        0      9   -> ZDApp_LeaveCtrlSet
        0      9   -> ZDApp_ResetTimerStart
      0     47   ZDApp_LeaveUpdate
        0     32   -> APSME_UpdateDeviceReq
        0     32   -> AssocIsChild
        0     32   -> NLME_RemoveChild
        0     32   -> RTG_RemoveRtgEntry
        0     32   -> ZDSecMgrAddrClear
        0     32   -> ZDSecMgrDeviceRemoveByExtAddr
        0     32   -> nwkNeighborRemove
        0     35   -> osal_memcpy
      0      0   ZDApp_NVUpdate
      0     12   ZDApp_NetworkDiscoveryReq
        0     12   -> NLME_NetworkDiscoveryRequest
      0     28   ZDApp_NetworkInit
        0     12   -> osal_set_event
        0     16   -> osal_start_timerEx
      2     12   ZDApp_NetworkStartEvt
        2      0   -> NLME_GetEnergyThreshold
        2      0   -> NLME_SetEnergyThreshold
        2      0   -> osal_pwrmgr_device
        2      0   -> osal_set_event
      0     21   ZDApp_NodeProfileSync
        0      9   -> NLME_SetBroadcastFilter
      0     14   ZDApp_NwkDescListProcessing
        0     14   -> nwk_ExtPANIDValid
        0     14   -> nwk_getNwkDescList
        0     14   -> sAddrExtCmp
      2      0   ZDApp_NwkStateUpdateCB
        2      0   -> osal_get_timeoutEx
      0     56   ZDApp_ProcessMsgCBs
        0     56   -> ZDApp_ProcessPendingBindReq
        0     56   -> ZDMatchSendState
        0     56   -> ZDO_MatchEndDeviceBind
        0     56   -> ZDO_ParseAddrRsp
        0     56   -> ZDO_ParseBindUnbindReq
        0     56   -> ZDO_ParseEndDeviceBindReq
        0     56   -> ZDO_ProcessBindUnbindReq
        0     56   -> ZDO_UpdateAddrManager
        0     56   -> osal_mem_free
      0     12   ZDApp_ProcessNetworkJoin
        0     12   -> NLME_GetShortAddr
        0     12   -> NLME_NwkDiscTerm
        0     12   -> NLME_SetPollRate
        0     12   -> NLME_SetQueuedPollRate
        0     12   -> NLME_SetResponseRate
        0     12   -> NLME_StartRouterRequest
        0     12   -> ZDApp_AnnounceNewAddress
        0     12   -> ZDApp_NetworkInit
        0     12   -> ZMacSetReq
        0     12   -> nwkNeighborInitTable
        0     12   -> osal_rand
        0     12   -> osal_set_event
      2     12   ZDApp_ProcessOSALMsg
        2      0   -> ZDApp_ProcessMsgCBs
        2      0   -> ZDP_IncomingData
      0     77   ZDApp_ProcessPendingBindReq
        0     17   -> APSME_BindRequest
        0     16   -> ZDApp_SetPendingBindDefault
        0     21   -> ZDP_SendData
        0     19   -> osal_memcmp
      0     20   ZDApp_ProcessSecEvent
        0     16   -> ZDApp_DeviceAuthEvt
        0     16   -> ZDApp_SaveNwkKey
        0     16   -> ZDSecMgrNewDeviceEvent
        0     16   -> ZDSecMgrSaveTCLinkKey
        0     16   -> osal_mem_free
        0     20   -> osal_start_timerEx
      2      0   ZDApp_ProcessSecMsg
        2      0   -> ZDSecMgrUpdateDeviceInd
      0      9   ZDApp_ReadNetworkRestoreState
        0      9   -> zgReadStartupOptions
      2      9   ZDApp_RegisterCBs
        2      0   -> ZDO_RegisterForZDOMsg
      0     35   ZDApp_ResetNwkKey
        0     31   -> osal_memset
        0     35   -> osal_nv_write
      2      0   ZDApp_ResetTimerCancel
        2      0   -> osal_clear_event
        2      0   -> osal_stop_timerEx
      0     25   ZDApp_ResetTimerStart
        0     12   -> osal_get_timeoutEx
        0     16   -> osal_start_timerEx
      0     53   ZDApp_RestoreNwkKey
        0     52   -> osal_memcmp
        0     49   -> osal_memset
        0     53   -> osal_nv_read
        0     53   -> osal_nv_write
      0      0   ZDApp_SaveNetworkStateEvt
      0     51   ZDApp_SaveNwkKey
        0     31   -> SSP_ReadNwkActiveKey
        0     31   -> osal_memset
        0     35   -> osal_nv_write
      0      9   ZDApp_SecInit
        0      9   -> ZDSecMgrInit
      0      9   ZDApp_SendEventMsg
        0      9   -> ZDApp_SendMsg
      1     36   ZDApp_SendMsg
        0     19   -> osal_memcpy
        0     16   -> osal_msg_allocate
        0     16   -> osal_msg_send
      0     35   ZDApp_SetPendingBindDefault
        0      9   -> osal_memset
      2      0   ZDApp_StartJoiningCycle
        2      0   -> ZDApp_NetworkInit
      2      0   ZDApp_StopJoiningCycle
      0     16   ZDApp_event_loop
        0     12   -> Onboard_soft_reset
        0     12   -> ZDApp_AgeOutPendingBindEntry
        0     12   -> ZDApp_NetworkStartEvt
        0     12   -> ZDApp_ProcessOSALMsg
        0     12   -> ZDO_StartDevice
        0     12   -> ZDO_UpdateNwkStatus
        0     12   -> osal_msg_deallocate
        0     12   -> osal_msg_receive
        0     12   -> osal_pwrmgr_device
        0     12   -> osal_set_event
        0     16   -> osal_start_timerEx
        0     12   -> zgWriteStartupOptions
      0     21   ZDOInitDevice
        0     12   -> NLME_SetBroadcastFilter
        0     12   -> ZDAppDetermineDeviceType
        0     12   -> ZDApp_LeaveCtrlInit
        0     12   -> ZDApp_LeaveCtrlStartup
        0     12   -> ZDApp_NetworkInit
        0     12   -> ZDConfig_InitDescriptors
        0     12   -> ZDSecMgrInit
        0     12   -> osal_rand
        0     12   -> osal_set_event
        0     12   -> zgInitItems
        0     12   -> zgWriteStartupOptions
      0     12   ZDO_AddrChangeIndicationCB
        0     12   -> ZDApp_AnnounceNewAddress
        0     12   -> osal_msg_allocate
        0     12   -> osal_msg_send
        0     12   -> osal_set_event
      1     14   ZDO_ConcentratorIndicationCB
      2      0   ZDO_DeregisterForZdoCB
      1     17   ZDO_JoinConfirmCB
        0     17   -> HalLedSet
        0     17   -> ZDApp_SendMsg
        0     17   -> nwkNeighborFindEmptySlot
        0     17   -> nwkNeighborInitTable
        0     17   -> osal_memset
        0     17   -> sAddrExtCpy
      0      1   ZDO_JoinIndicationCB
      0     10   ZDO_LeaveCnf
        0     10   -> NLME_GetExtAddr
        0     10   -> ZDApp_LeaveReset
        0     10   -> ZDApp_LeaveUpdate
        0     10   -> sAddrExtCmp
      1     12   ZDO_LeaveInd
        0     12   -> NLME_GetCoordShortAddr
        0     12   -> NLME_LeaveRsp
        0     12   -> ZDApp_LeaveReset
        0     12   -> ZDApp_LeaveUpdate
      2      0   ZDO_ManytoOneFailureIndicationCB
        2      0   -> RTG_MTORouteReq
      3      3   ZDO_NetworkDiscoveryConfirmCB
        2      3   -> ZDApp_SendMsg
      0      9   ZDO_NetworkFormationConfirmCB
        0      9   -> HalLedSet
        0      9   -> osal_set_event
      2      0   ZDO_NetworkStatusCB
        2      0   -> NLME_GetShortAddr
      3      1   ZDO_PermitJoinCB
      0      0   ZDO_PollConfirmCB
      2      0   ZDO_RegisterForZdoCB
      1     14   ZDO_SrcRtgIndCB
      0      9   ZDO_StartRouterConfirmCB
        0      9   -> HalLedSet
        0      9   -> osal_set_event
      0      9   ZDO_SyncIndicationCB
        0      9   -> ZDApp_SendMsg
        0      9   -> nwkNeighborInitTable
      0      0   ZDO_UpdateDeviceIndication
      1     14   ZDO_beaconNotifyIndCB
        0     14   -> osal_mem_alloc
        0     14   -> osal_memset
        0     14   -> sAddrExtCpy


   Segment part sizes:

   Bytes  Function/Label
   -----  --------------
       2  ?<Initializer for ZDApp_SavedPollRate>
       6  ?<Initializer for ZDApp_epDesc>
       1  ?<Initializer for continueJoining>
       1  ?<Initializer for devStartMode>
       1  ?<Initializer for devState>
       1  ?<Initializer for zdoDiscCounter>
       6  ??AddrMgrWriteNVRequest?relay
       5  ??Subroutine45_0
       6  ??Subroutine46_0
       6  ??Subroutine47_0
      11  ??Subroutine48_0
      10  ??Subroutine49_0
       7  ??Subroutine50_0
       3  ??Subroutine51_0
       5  ??Subroutine52_0
       6  ??Subroutine53_0
       6  ??Subroutine54_0
       8  ??Subroutine55_0
       5  ??Subroutine56_0
       6  ??Subroutine57_0
       8  ??Subroutine58_0
       1  ??Subroutine59_0
      14  ??Subroutine60_0
       6  ??ZDAppCheckForHoldKey?relay
       6  ??ZDAppDetermineDeviceType?relay
       6  ??ZDApp_AgeOutPendingBindEntry?relay
       6  ??ZDApp_AnnounceNewAddress?relay
       6  ??ZDApp_ChangeMatchDescRespPermission?relay
       6  ??ZDApp_CoordStartPANIDConflictCB?relay
       6  ??ZDApp_DeviceAuthEvt?relay
       6  ??ZDApp_DeviceConfigured?relay
       6  ??ZDApp_ForceConcentratorChange?relay
       6  ??ZDApp_GetEmptyPendingBindReq?relay
       6  ??ZDApp_InMsgCB?relay
       6  ??ZDApp_Init?relay
       6  ??ZDApp_InitPendingBind?relay
       6  ??ZDApp_InitUserDesc?relay
       6  ??ZDApp_InitZdoCBFunc?relay
       6  ??ZDApp_JoinReq?relay
       6  ??ZDApp_LeaveCtrlBypass?relay
       6  ??ZDApp_LeaveCtrlInit?relay
       6  ??ZDApp_LeaveCtrlReset?relay
       6  ??ZDApp_LeaveCtrlSet?relay
       6  ??ZDApp_LeaveCtrlStartup?relay
       6  ??ZDApp_LeaveReset?relay
       6  ??ZDApp_LeaveUpdate?relay
       6  ??ZDApp_NVUpdate?relay
       6  ??ZDApp_NetworkDiscoveryReq?relay
       6  ??ZDApp_NetworkInit?relay
       6  ??ZDApp_NetworkStartEvt?relay
       6  ??ZDApp_NodeProfileSync?relay
       6  ??ZDApp_NwkDescListProcessing?relay
       6  ??ZDApp_NwkStateUpdateCB?relay
       6  ??ZDApp_ProcessMsgCBs?relay
       6  ??ZDApp_ProcessNetworkJoin?relay
       6  ??ZDApp_ProcessOSALMsg?relay
       6  ??ZDApp_ProcessPendingBindReq?relay
       6  ??ZDApp_ProcessSecEvent?relay
       6  ??ZDApp_ProcessSecMsg?relay
       6  ??ZDApp_ReadNetworkRestoreState?relay
       6  ??ZDApp_RegisterCBs?relay
       6  ??ZDApp_ResetNwkKey?relay
       6  ??ZDApp_ResetTimerCancel?relay
       6  ??ZDApp_ResetTimerStart?relay
       6  ??ZDApp_RestoreNwkKey?relay
       6  ??ZDApp_SaveNetworkStateEvt?relay
       6  ??ZDApp_SaveNwkKey?relay
       6  ??ZDApp_SecInit?relay
       6  ??ZDApp_SendEventMsg?relay
       6  ??ZDApp_SendMsg?relay
       6  ??ZDApp_SetPendingBindDefault?relay
       6  ??ZDApp_StartJoiningCycle?relay
       6  ??ZDApp_StopJoiningCycle?relay
       6  ??ZDApp_event_loop?relay
       6  ??ZDOInitDevice?relay
       6  ??ZDO_AddrChangeIndicationCB?relay
       6  ??ZDO_ConcentratorIndicationCB?relay
       6  ??ZDO_DeregisterForZdoCB?relay
       6  ??ZDO_JoinConfirmCB?relay
       6  ??ZDO_JoinIndicationCB?relay
       6  ??ZDO_LeaveCnf?relay
       6  ??ZDO_LeaveInd?relay
       6  ??ZDO_ManytoOneFailureIndicationCB?relay
       6  ??ZDO_NetworkDiscoveryConfirmCB?relay
       6  ??ZDO_NetworkFormationConfirmCB?relay
       6  ??ZDO_NetworkStatusCB?relay
       6  ??ZDO_PermitJoinCB?relay
       6  ??ZDO_PollConfirmCB?relay
       6  ??ZDO_RegisterForZdoCB?relay
       6  ??ZDO_SrcRtgIndCB?relay
       6  ??ZDO_StartRouterConfirmCB?relay
       6  ??ZDO_SyncIndicationCB?relay
       6  ??ZDO_UpdateDeviceIndication?relay
       6  ??ZDO_beaconNotifyIndCB?relay
      10  ?Subroutine0
       3  ?Subroutine1
       5  ?Subroutine10
       5  ?Subroutine11
      12  ?Subroutine12
       6  ?Subroutine13
       6  ?Subroutine14
       3  ?Subroutine15
       2  ?Subroutine16
       1  ?Subroutine17
       4  ?Subroutine18
      19  ?Subroutine19
       5  ?Subroutine2
      21  ?Subroutine20
      17  ?Subroutine21
       8  ?Subroutine22
       4  ?Subroutine23
       9  ?Subroutine24
       9  ?Subroutine25
       6  ?Subroutine26
       4  ?Subroutine27
      12  ?Subroutine28
       1  ?Subroutine29
      35  ?Subroutine3
       5  ?Subroutine30
       8  ?Subroutine31
       4  ?Subroutine32
       3  ?Subroutine33
       6  ?Subroutine34
       8  ?Subroutine35
      10  ?Subroutine36
      14  ?Subroutine37
      11  ?Subroutine38
      11  ?Subroutine39
       3  ?Subroutine4
      12  ?Subroutine40
      15  ?Subroutine41
      12  ?Subroutine42
       5  ?Subroutine43
      10  ?Subroutine44
       5  ?Subroutine5
       8  ?Subroutine6
       5  ?Subroutine7
       7  ?Subroutine8
       4  ?Subroutine9
       3  AddrMgrWriteNVRequest
       1  MatchRsps
      24  ZDAppCheckForHoldKey
      74  ZDAppDetermineDeviceType
       9  ZDAppNwkAddr
       2  ZDAppPendingBindReq
       1  ZDAppTaskID
     265  ZDApp_AgeOutPendingBindEntry
      59  ZDApp_AnnounceNewAddress
       2  ZDApp_AutoFindMode_epDesc
      11  ZDApp_ChangeMatchDescRespPermission
      10  ZDApp_CoordStartPANIDConflictCB
      69  ZDApp_DeviceAuthEvt
      84  ZDApp_DeviceConfigured
     129  ZDApp_ForceConcentratorChange
      59  ZDApp_GetEmptyPendingBindReq
      86  ZDApp_InMsgCB
      91  ZDApp_Init
      61  ZDApp_InitPendingBind
     111  ZDApp_InitUserDesc
      26  ZDApp_InitZdoCBFunc
      75  ZDApp_JoinReq
       1  ZDApp_LeaveCtrl
      15  ZDApp_LeaveCtrlBypass
      75  ZDApp_LeaveCtrlInit
      13  ZDApp_LeaveCtrlReset
      22  ZDApp_LeaveCtrlSet
      47  ZDApp_LeaveCtrlStartup
      18  ZDApp_LeaveReset
     195  ZDApp_LeaveUpdate
       3  ZDApp_NVUpdate
      11  ZDApp_NetworkDiscoveryReq
      57  ZDApp_NetworkInit
      89  ZDApp_NetworkStartEvt
       2  ZDApp_NewDeviceList
      44  ZDApp_NodeProfileSync
     273  ZDApp_NwkDescListProcessing
      19  ZDApp_NwkStateUpdateCB
     242  ZDApp_ProcessMsgCBs
     440  ZDApp_ProcessNetworkJoin
      50  ZDApp_ProcessOSALMsg
     245  ZDApp_ProcessPendingBindReq
     225  ZDApp_ProcessSecEvent
      19  ZDApp_ProcessSecMsg
      23  ZDApp_ReadNetworkRestoreState
      91  ZDApp_RegisterCBs
      66  ZDApp_ResetNwkKey
      31  ZDApp_ResetTimerCancel
      57  ZDApp_ResetTimerStart
     211  ZDApp_RestoreNwkKey
       3  ZDApp_SaveNetworkStateEvt
      75  ZDApp_SaveNwkKey
       2  ZDApp_SavedPollRate
      11  ZDApp_SecInit
      22  ZDApp_SendEventMsg
      83  ZDApp_SendMsg
      32  ZDApp_SetPendingBindDefault
      39  ZDApp_StartJoiningCycle
      31  ZDApp_StopJoiningCycle
       6  ZDApp_epDesc
     254  ZDApp_event_loop
     155  ZDOInitDevice
     102  ZDO_AddrChangeIndicationCB
      44  ZDO_ConcentratorIndicationCB
      27  ZDO_DeregisterForZdoCB
     267  ZDO_JoinConfirmCB
       0  ZDO_JoinIndicationCB
      88  ZDO_LeaveCnf
     143  ZDO_LeaveInd
      10  ZDO_ManytoOneFailureIndicationCB
      63  ZDO_NetworkDiscoveryConfirmCB
      49  ZDO_NetworkFormationConfirmCB
      10  ZDO_NetworkStatusCB
      36  ZDO_PermitJoinCB
       3  ZDO_PollConfirmCB
      27  ZDO_RegisterForZdoCB
      47  ZDO_SrcRtgIndCB
      49  ZDO_StartRouterConfirmCB
      42  ZDO_SyncIndicationCB
       3  ZDO_UpdateDeviceIndication
       8  ZDO_UseExtendedPANID
     542  ZDO_beaconNotifyIndCB
       4  __Constant_3e8
       4  __Constant_4e2
       4  __Constant_64
       1  _tmpRejoinState
       1  continueJoining
       1  devStartMode
       1  devState
       1  nwkStatus
       1  retryCnt
       1  zdappHoldKeys
       1  zdappMgmtNwkDiscReqInProgress
       9  zdappMgmtNwkDiscRspAddr
       1  zdappMgmtNwkDiscRspTransSeq
       1  zdappMgmtNwkDiscStartIndex
       1  zdappMgmtSavedNwkState
      18  zdoCBFunc
       1  zdoDiscCounter

 
 6 555 bytes in segment BANKED_CODE
   432 bytes in segment BANK_RELAYS
    12 bytes in segment XDATA_I
    12 bytes in segment XDATA_ID
    12 bytes in segment XDATA_ROM_C
    61 bytes in segment XDATA_Z
 
 6 999 bytes of CODE  memory
     0 bytes of CONST memory (+ 12 bytes shared)
    73 bytes of XDATA memory

Errors: none
Warnings: none
